Archive member included because of file (symbol)

../../lib/jpeg-6b\libjpeg-6b_lpc2106-cmucam3.a(jcapimin.o)
                              lpc2106-cmucam3_buildfiles/main.o (jpeg_CreateCompress)
../../lib/jpeg-6b\libjpeg-6b_lpc2106-cmucam3.a(jcapistd.o)
                              lpc2106-cmucam3_buildfiles/main.o (jpeg_start_compress)
../../lib/jpeg-6b\libjpeg-6b_lpc2106-cmucam3.a(jcinit.o)
                              ../../lib/jpeg-6b\libjpeg-6b_lpc2106-cmucam3.a(jcapistd.o) (jinit_compress_master)
../../lib/jpeg-6b\libjpeg-6b_lpc2106-cmucam3.a(jcmainct.o)
                              ../../lib/jpeg-6b\libjpeg-6b_lpc2106-cmucam3.a(jcinit.o) (jinit_c_main_controller)
../../lib/jpeg-6b\libjpeg-6b_lpc2106-cmucam3.a(jcmarker.o)
                              ../../lib/jpeg-6b\libjpeg-6b_lpc2106-cmucam3.a(jcapimin.o) (jinit_marker_writer)
../../lib/jpeg-6b\libjpeg-6b_lpc2106-cmucam3.a(jcmaster.o)
                              ../../lib/jpeg-6b\libjpeg-6b_lpc2106-cmucam3.a(jcinit.o) (jinit_c_master_control)
../../lib/jpeg-6b\libjpeg-6b_lpc2106-cmucam3.a(jcomapi.o)
                              ../../lib/jpeg-6b\libjpeg-6b_lpc2106-cmucam3.a(jcapimin.o) (jpeg_abort)
../../lib/jpeg-6b\libjpeg-6b_lpc2106-cmucam3.a(jcparam.o)
                              lpc2106-cmucam3_buildfiles/main.o (jpeg_set_quality)
../../lib/jpeg-6b\libjpeg-6b_lpc2106-cmucam3.a(jcprepct.o)
                              ../../lib/jpeg-6b\libjpeg-6b_lpc2106-cmucam3.a(jcinit.o) (jinit_c_prep_controller)
../../lib/jpeg-6b\libjpeg-6b_lpc2106-cmucam3.a(jcsample.o)
                              ../../lib/jpeg-6b\libjpeg-6b_lpc2106-cmucam3.a(jcinit.o) (jinit_downsampler)
../../lib/jpeg-6b\libjpeg-6b_lpc2106-cmucam3.a(jdatadst.o)
                              lpc2106-cmucam3_buildfiles/main.o (jpeg_stdio_dest)
../../lib/jpeg-6b\libjpeg-6b_lpc2106-cmucam3.a(jerror.o)
                              lpc2106-cmucam3_buildfiles/main.o (jpeg_std_error)
../../lib/jpeg-6b\libjpeg-6b_lpc2106-cmucam3.a(jutils.o)
                              ../../lib/jpeg-6b\libjpeg-6b_lpc2106-cmucam3.a(jcmaster.o) (jdiv_round_up)
../../lib/jpeg-6b\libjpeg-6b_lpc2106-cmucam3.a(jmemmgr.o)
                              ../../lib/jpeg-6b\libjpeg-6b_lpc2106-cmucam3.a(jcapimin.o) (jinit_memory_mgr)
../../lib/jpeg-6b\libjpeg-6b_lpc2106-cmucam3.a(jmemnobs.o)
                              ../../lib/jpeg-6b\libjpeg-6b_lpc2106-cmucam3.a(jmemmgr.o) (jpeg_get_small)
../../lib/jpeg-6b\libjpeg-6b_lpc2106-cmucam3.a(jccoefct.o)
                              ../../lib/jpeg-6b\libjpeg-6b_lpc2106-cmucam3.a(jcinit.o) (jinit_c_coef_controller)
../../lib/jpeg-6b\libjpeg-6b_lpc2106-cmucam3.a(jccolor.o)
                              ../../lib/jpeg-6b\libjpeg-6b_lpc2106-cmucam3.a(jcinit.o) (jinit_color_converter)
../../lib/jpeg-6b\libjpeg-6b_lpc2106-cmucam3.a(jcdctmgr.o)
                              ../../lib/jpeg-6b\libjpeg-6b_lpc2106-cmucam3.a(jcinit.o) (jinit_forward_dct)
../../lib/jpeg-6b\libjpeg-6b_lpc2106-cmucam3.a(jchuff.o)
                              ../../lib/jpeg-6b\libjpeg-6b_lpc2106-cmucam3.a(jcinit.o) (jinit_huff_encoder)
../../lib/jpeg-6b\libjpeg-6b_lpc2106-cmucam3.a(jfdctint.o)
                              ../../lib/jpeg-6b\libjpeg-6b_lpc2106-cmucam3.a(jcdctmgr.o) (jpeg_fdct_islow)
../../hal/lpc2106-cmucam3\libhal-lpc2106-cmucam3.a(interrupt.o)
                              (--whole-archive)
../../hal/lpc2106-cmucam3\libhal-lpc2106-cmucam3.a(cc3.o)
                              (--whole-archive)
../../hal/lpc2106-cmucam3\libhal-lpc2106-cmucam3.a(cc3_hal.o)
                              (--whole-archive)
../../hal/lpc2106-cmucam3\libhal-lpc2106-cmucam3.a(syscalls.o)
                              (--whole-archive)
../../hal/lpc2106-cmucam3\libhal-lpc2106-cmucam3.a(serial.o)
                              (--whole-archive)
../../hal/lpc2106-cmucam3\libhal-lpc2106-cmucam3.a(servo.o)
                              (--whole-archive)
../../hal/lpc2106-cmucam3\libhal-lpc2106-cmucam3.a(rdcf2.o)
                              (--whole-archive)
../../hal/lpc2106-cmucam3\libhal-lpc2106-cmucam3.a(mmc_hardware.o)
                              (--whole-archive)
../../hal/lpc2106-cmucam3\libhal-lpc2106-cmucam3.a(mmc_driver.o)
                              (--whole-archive)
../../hal/lpc2106-cmucam3\libhal-lpc2106-cmucam3.a(gpio.o)
                              (--whole-archive)
../../hal/lpc2106-cmucam3\libhal-lpc2106-cmucam3.a(devices.o)
                              (--whole-archive)
../../hal/lpc2106-cmucam3\libhal-lpc2106-cmucam3.a(uart_driver.o)
                              (--whole-archive)
../../hal/lpc2106-cmucam3\libhal-lpc2106-cmucam3.a(startup.o)
                              (--whole-archive)
c:/program files/codesourcery/sourcery g++ lite/bin/../lib/gcc/arm-none-eabi/4.5.1\libgcc.a(_udivsi3.o)
                              ../../lib/jpeg-6b\libjpeg-6b_lpc2106-cmucam3.a(jmemmgr.o) (__aeabi_uidiv)
c:/program files/codesourcery/sourcery g++ lite/bin/../lib/gcc/arm-none-eabi/4.5.1\libgcc.a(_divsi3.o)
                              ../../lib/jpeg-6b\libjpeg-6b_lpc2106-cmucam3.a(jcparam.o) (__aeabi_idiv)
c:/program files/codesourcery/sourcery g++ lite/bin/../lib/gcc/arm-none-eabi/4.5.1\libgcc.a(_dvmd_tls.o)
                              c:/program files/codesourcery/sourcery g++ lite/bin/../lib/gcc/arm-none-eabi/4.5.1\libgcc.a(_udivsi3.o) (__aeabi_idiv0)
c:/program files/codesourcery/sourcery g++ lite/bin/../lib/gcc/arm-none-eabi/4.5.1/../../../../arm-none-eabi/lib\libc.a(lib_a-calloc.o)
                              ../../hal/lpc2106-cmucam3\libhal-lpc2106-cmucam3.a(mmc_hardware.o) (calloc)
c:/program files/codesourcery/sourcery g++ lite/bin/../lib/gcc/arm-none-eabi/4.5.1/../../../../arm-none-eabi/lib\libc.a(lib_a-callocr.o)
                              c:/program files/codesourcery/sourcery g++ lite/bin/../lib/gcc/arm-none-eabi/4.5.1/../../../../arm-none-eabi/lib\libc.a(lib_a-calloc.o) (_calloc_r)
c:/program files/codesourcery/sourcery g++ lite/bin/../lib/gcc/arm-none-eabi/4.5.1/../../../../arm-none-eabi/lib\libc.a(lib_a-ctype_.o)
                              ../../hal/lpc2106-cmucam3\libhal-lpc2106-cmucam3.a(syscalls.o) (__ctype_ptr__)
c:/program files/codesourcery/sourcery g++ lite/bin/../lib/gcc/arm-none-eabi/4.5.1/../../../../arm-none-eabi/lib\libc.a(lib_a-exit.o)
                              ../../lib/jpeg-6b\libjpeg-6b_lpc2106-cmucam3.a(jerror.o) (exit)
c:/program files/codesourcery/sourcery g++ lite/bin/../lib/gcc/arm-none-eabi/4.5.1/../../../../arm-none-eabi/lib\libc.a(lib_a-fclose.o)
                              lpc2106-cmucam3_buildfiles/main.o (fclose)
c:/program files/codesourcery/sourcery g++ lite/bin/../lib/gcc/arm-none-eabi/4.5.1/../../../../arm-none-eabi/lib\libc.a(lib_a-fflush.o)
                              c:/program files/codesourcery/sourcery g++ lite/bin/../lib/gcc/arm-none-eabi/4.5.1/../../../../arm-none-eabi/lib\libc.a(lib_a-fclose.o) (_fflush_r)
c:/program files/codesourcery/sourcery g++ lite/bin/../lib/gcc/arm-none-eabi/4.5.1/../../../../arm-none-eabi/lib\libc.a(lib_a-findfp.o)
                              c:/program files/codesourcery/sourcery g++ lite/bin/../lib/gcc/arm-none-eabi/4.5.1/../../../../arm-none-eabi/lib\libc.a(lib_a-fclose.o) (__sinit)
c:/program files/codesourcery/sourcery g++ lite/bin/../lib/gcc/arm-none-eabi/4.5.1/../../../../arm-none-eabi/lib\libc.a(lib_a-fiprintf.o)
                              ../../lib/jpeg-6b\libjpeg-6b_lpc2106-cmucam3.a(jerror.o) (fiprintf)
c:/program files/codesourcery/sourcery g++ lite/bin/../lib/gcc/arm-none-eabi/4.5.1/../../../../arm-none-eabi/lib\libc.a(lib_a-fopen.o)
                              lpc2106-cmucam3_buildfiles/main.o (fopen)
c:/program files/codesourcery/sourcery g++ lite/bin/../lib/gcc/arm-none-eabi/4.5.1/../../../../arm-none-eabi/lib\libc.a(lib_a-freer.o)
                              c:/program files/codesourcery/sourcery g++ lite/bin/../lib/gcc/arm-none-eabi/4.5.1/../../../../arm-none-eabi/lib\libc.a(lib_a-fclose.o) (_free_r)
c:/program files/codesourcery/sourcery g++ lite/bin/../lib/gcc/arm-none-eabi/4.5.1/../../../../arm-none-eabi/lib\libc.a(lib_a-fseek.o)
                              c:/program files/codesourcery/sourcery g++ lite/bin/../lib/gcc/arm-none-eabi/4.5.1/../../../../arm-none-eabi/lib\libc.a(lib_a-fopen.o) (_fseek_r)
c:/program files/codesourcery/sourcery g++ lite/bin/../lib/gcc/arm-none-eabi/4.5.1/../../../../arm-none-eabi/lib\libc.a(lib_a-fstatr.o)
                              c:/program files/codesourcery/sourcery g++ lite/bin/../lib/gcc/arm-none-eabi/4.5.1/../../../../arm-none-eabi/lib\libc.a(lib_a-fseek.o) (_fstat_r)
c:/program files/codesourcery/sourcery g++ lite/bin/../lib/gcc/arm-none-eabi/4.5.1/../../../../arm-none-eabi/lib\libc.a(lib_a-fwalk.o)
                              c:/program files/codesourcery/sourcery g++ lite/bin/../lib/gcc/arm-none-eabi/4.5.1/../../../../arm-none-eabi/lib\libc.a(lib_a-findfp.o) (_fwalk)
c:/program files/codesourcery/sourcery g++ lite/bin/../lib/gcc/arm-none-eabi/4.5.1/../../../../arm-none-eabi/lib\libc.a(lib_a-fwrite.o)
                              ../../lib/jpeg-6b\libjpeg-6b_lpc2106-cmucam3.a(jdatadst.o) (fwrite)
c:/program files/codesourcery/sourcery g++ lite/bin/../lib/gcc/arm-none-eabi/4.5.1/../../../../arm-none-eabi/lib\libc.a(lib_a-impure.o)
                              ../../lib/jpeg-6b\libjpeg-6b_lpc2106-cmucam3.a(jerror.o) (_impure_ptr)
c:/program files/codesourcery/sourcery g++ lite/bin/../lib/gcc/arm-none-eabi/4.5.1/../../../../arm-none-eabi/lib\libc.a(lib_a-iprintf.o)
                              lpc2106-cmucam3_buildfiles/main.o (iprintf)
c:/program files/codesourcery/sourcery g++ lite/bin/../lib/gcc/arm-none-eabi/4.5.1/../../../../arm-none-eabi/lib\libc.a(lib_a-lcltime_r.o)
                              ../../hal/lpc2106-cmucam3\libhal-lpc2106-cmucam3.a(rdcf2.o) (localtime_r)
c:/program files/codesourcery/sourcery g++ lite/bin/../lib/gcc/arm-none-eabi/4.5.1/../../../../arm-none-eabi/lib\libc.a(lib_a-makebuf.o)
                              c:/program files/codesourcery/sourcery g++ lite/bin/../lib/gcc/arm-none-eabi/4.5.1/../../../../arm-none-eabi/lib\libc.a(lib_a-fseek.o) (__smakebuf_r)
c:/program files/codesourcery/sourcery g++ lite/bin/../lib/gcc/arm-none-eabi/4.5.1/../../../../arm-none-eabi/lib\libc.a(lib_a-malloc.o)
                              ../../lib/jpeg-6b\libjpeg-6b_lpc2106-cmucam3.a(jmemnobs.o) (malloc)
c:/program files/codesourcery/sourcery g++ lite/bin/../lib/gcc/arm-none-eabi/4.5.1/../../../../arm-none-eabi/lib\libc.a(lib_a-mallocr.o)
                              c:/program files/codesourcery/sourcery g++ lite/bin/../lib/gcc/arm-none-eabi/4.5.1/../../../../arm-none-eabi/lib\libc.a(lib_a-callocr.o) (_malloc_r)
c:/program files/codesourcery/sourcery g++ lite/bin/../lib/gcc/arm-none-eabi/4.5.1/../../../../arm-none-eabi/lib\libc.a(lib_a-memcmp.o)
                              ../../hal/lpc2106-cmucam3\libhal-lpc2106-cmucam3.a(rdcf2.o) (memcmp)
c:/program files/codesourcery/sourcery g++ lite/bin/../lib/gcc/arm-none-eabi/4.5.1/../../../../arm-none-eabi/lib\libc.a(lib_a-memcpy.o)
                              ../../lib/jpeg-6b\libjpeg-6b_lpc2106-cmucam3.a(jcparam.o) (memcpy)
c:/program files/codesourcery/sourcery g++ lite/bin/../lib/gcc/arm-none-eabi/4.5.1/../../../../arm-none-eabi/lib\libc.a(lib_a-memset.o)
                              ../../lib/jpeg-6b\libjpeg-6b_lpc2106-cmucam3.a(jcapimin.o) (memset)
c:/program files/codesourcery/sourcery g++ lite/bin/../lib/gcc/arm-none-eabi/4.5.1/../../../../arm-none-eabi/lib\libc.a(lib_a-mktm_r.o)
                              c:/program files/codesourcery/sourcery g++ lite/bin/../lib/gcc/arm-none-eabi/4.5.1/../../../../arm-none-eabi/lib\libc.a(lib_a-lcltime_r.o) (_mktm_r)
c:/program files/codesourcery/sourcery g++ lite/bin/../lib/gcc/arm-none-eabi/4.5.1/../../../../arm-none-eabi/lib\libc.a(lib_a-mlock.o)
                              c:/program files/codesourcery/sourcery g++ lite/bin/../lib/gcc/arm-none-eabi/4.5.1/../../../../arm-none-eabi/lib\libc.a(lib_a-freer.o) (__malloc_lock)
c:/program files/codesourcery/sourcery g++ lite/bin/../lib/gcc/arm-none-eabi/4.5.1/../../../../arm-none-eabi/lib\libc.a(lib_a-openr.o)
                              c:/program files/codesourcery/sourcery g++ lite/bin/../lib/gcc/arm-none-eabi/4.5.1/../../../../arm-none-eabi/lib\libc.a(lib_a-fopen.o) (_open_r)
c:/program files/codesourcery/sourcery g++ lite/bin/../lib/gcc/arm-none-eabi/4.5.1/../../../../arm-none-eabi/lib\libc.a(lib_a-reent.o)
                              ../../hal/lpc2106-cmucam3\libhal-lpc2106-cmucam3.a(syscalls.o) (errno)
c:/program files/codesourcery/sourcery g++ lite/bin/../lib/gcc/arm-none-eabi/4.5.1/../../../../arm-none-eabi/lib\libc.a(lib_a-refill.o)
                              c:/program files/codesourcery/sourcery g++ lite/bin/../lib/gcc/arm-none-eabi/4.5.1/../../../../arm-none-eabi/lib\libc.a(lib_a-fseek.o) (__srefill_r)
c:/program files/codesourcery/sourcery g++ lite/bin/../lib/gcc/arm-none-eabi/4.5.1/../../../../arm-none-eabi/lib\libc.a(lib_a-sbrkr.o)
                              c:/program files/codesourcery/sourcery g++ lite/bin/../lib/gcc/arm-none-eabi/4.5.1/../../../../arm-none-eabi/lib\libc.a(lib_a-freer.o) (_sbrk_r)
c:/program files/codesourcery/sourcery g++ lite/bin/../lib/gcc/arm-none-eabi/4.5.1/../../../../arm-none-eabi/lib\libc.a(lib_a-setbuf.o)
                              ../../hal/lpc2106-cmucam3\libhal-lpc2106-cmucam3.a(serial.o) (setbuf)
c:/program files/codesourcery/sourcery g++ lite/bin/../lib/gcc/arm-none-eabi/4.5.1/../../../../arm-none-eabi/lib\libc.a(lib_a-setjmp.o)
                              ../../hal/lpc2106-cmucam3\libhal-lpc2106-cmucam3.a(rdcf2.o) (setjmp)
c:/program files/codesourcery/sourcery g++ lite/bin/../lib/gcc/arm-none-eabi/4.5.1/../../../../arm-none-eabi/lib\libc.a(lib_a-setvbuf.o)
                              c:/program files/codesourcery/sourcery g++ lite/bin/../lib/gcc/arm-none-eabi/4.5.1/../../../../arm-none-eabi/lib\libc.a(lib_a-setbuf.o) (setvbuf)
c:/program files/codesourcery/sourcery g++ lite/bin/../lib/gcc/arm-none-eabi/4.5.1/../../../../arm-none-eabi/lib\libc.a(lib_a-siprintf.o)
                              ../../lib/jpeg-6b\libjpeg-6b_lpc2106-cmucam3.a(jerror.o) (siprintf)
c:/program files/codesourcery/sourcery g++ lite/bin/../lib/gcc/arm-none-eabi/4.5.1/../../../../arm-none-eabi/lib\libc.a(lib_a-sniprintf.o)
                              lpc2106-cmucam3_buildfiles/main.o (sniprintf)
c:/program files/codesourcery/sourcery g++ lite/bin/../lib/gcc/arm-none-eabi/4.5.1/../../../../arm-none-eabi/lib\libc.a(lib_a-stdio.o)
                              c:/program files/codesourcery/sourcery g++ lite/bin/../lib/gcc/arm-none-eabi/4.5.1/../../../../arm-none-eabi/lib\libc.a(lib_a-findfp.o) (__sread)
c:/program files/codesourcery/sourcery g++ lite/bin/../lib/gcc/arm-none-eabi/4.5.1/../../../../arm-none-eabi/lib\libc.a(lib_a-strdup.o)
                              ../../hal/lpc2106-cmucam3\libhal-lpc2106-cmucam3.a(syscalls.o) (strdup)
c:/program files/codesourcery/sourcery g++ lite/bin/../lib/gcc/arm-none-eabi/4.5.1/../../../../arm-none-eabi/lib\libc.a(lib_a-strdup_r.o)
                              c:/program files/codesourcery/sourcery g++ lite/bin/../lib/gcc/arm-none-eabi/4.5.1/../../../../arm-none-eabi/lib\libc.a(lib_a-strdup.o) (_strdup_r)
c:/program files/codesourcery/sourcery g++ lite/bin/../lib/gcc/arm-none-eabi/4.5.1/../../../../arm-none-eabi/lib\libc.a(lib_a-strlen.o)
                              c:/program files/codesourcery/sourcery g++ lite/bin/../lib/gcc/arm-none-eabi/4.5.1/../../../../arm-none-eabi/lib\libc.a(lib_a-strdup_r.o) (strlen)
c:/program files/codesourcery/sourcery g++ lite/bin/../lib/gcc/arm-none-eabi/4.5.1/../../../../arm-none-eabi/lib\libc.a(lib_a-strtol.o)
                              ../../hal/lpc2106-cmucam3\libhal-lpc2106-cmucam3.a(uart_driver.o) (strtol)
c:/program files/codesourcery/sourcery g++ lite/bin/../lib/gcc/arm-none-eabi/4.5.1/../../../../arm-none-eabi/lib\libc.a(lib_a-svfiprintf.o)
                              c:/program files/codesourcery/sourcery g++ lite/bin/../lib/gcc/arm-none-eabi/4.5.1/../../../../arm-none-eabi/lib\libc.a(lib_a-siprintf.o) (_svfiprintf_r)
c:/program files/codesourcery/sourcery g++ lite/bin/../lib/gcc/arm-none-eabi/4.5.1/../../../../arm-none-eabi/lib\libc.a(lib_a-sysgettod.o)
                              ../../hal/lpc2106-cmucam3\libhal-lpc2106-cmucam3.a(rdcf2.o) (gettimeofday)
c:/program files/codesourcery/sourcery g++ lite/bin/../lib/gcc/arm-none-eabi/4.5.1/../../../../arm-none-eabi/lib\libc.a(lib_a-tzlock.o)
                              c:/program files/codesourcery/sourcery g++ lite/bin/../lib/gcc/arm-none-eabi/4.5.1/../../../../arm-none-eabi/lib\libc.a(lib_a-mktm_r.o) (__tz_lock)
c:/program files/codesourcery/sourcery g++ lite/bin/../lib/gcc/arm-none-eabi/4.5.1/../../../../arm-none-eabi/lib\libc.a(lib_a-tzvars.o)
                              c:/program files/codesourcery/sourcery g++ lite/bin/../lib/gcc/arm-none-eabi/4.5.1/../../../../arm-none-eabi/lib\libc.a(lib_a-mktm_r.o) (_daylight)
c:/program files/codesourcery/sourcery g++ lite/bin/../lib/gcc/arm-none-eabi/4.5.1/../../../../arm-none-eabi/lib\libc.a(lib_a-vfiprintf.o)
                              c:/program files/codesourcery/sourcery g++ lite/bin/../lib/gcc/arm-none-eabi/4.5.1/../../../../arm-none-eabi/lib\libc.a(lib_a-fiprintf.o) (_vfiprintf_r)
c:/program files/codesourcery/sourcery g++ lite/bin/../lib/gcc/arm-none-eabi/4.5.1/../../../../arm-none-eabi/lib\libc.a(lib_a-writer.o)
                              c:/program files/codesourcery/sourcery g++ lite/bin/../lib/gcc/arm-none-eabi/4.5.1/../../../../arm-none-eabi/lib\libc.a(lib_a-stdio.o) (_write_r)
c:/program files/codesourcery/sourcery g++ lite/bin/../lib/gcc/arm-none-eabi/4.5.1/../../../../arm-none-eabi/lib\libc.a(lib_a-wsetup.o)
                              c:/program files/codesourcery/sourcery g++ lite/bin/../lib/gcc/arm-none-eabi/4.5.1/../../../../arm-none-eabi/lib\libc.a(lib_a-vfiprintf.o) (__swsetup_r)
c:/program files/codesourcery/sourcery g++ lite/bin/../lib/gcc/arm-none-eabi/4.5.1/../../../../arm-none-eabi/lib\libc.a(lib_a-__call_atexit.o)
                              c:/program files/codesourcery/sourcery g++ lite/bin/../lib/gcc/arm-none-eabi/4.5.1/../../../../arm-none-eabi/lib\libc.a(lib_a-exit.o) (__call_exitprocs)
c:/program files/codesourcery/sourcery g++ lite/bin/../lib/gcc/arm-none-eabi/4.5.1/../../../../arm-none-eabi/lib\libc.a(lib_a-atexit.o)
                              c:/program files/codesourcery/sourcery g++ lite/bin/../lib/gcc/arm-none-eabi/4.5.1/../../../../arm-none-eabi/lib\libc.a(lib_a-__call_atexit.o) (atexit)
c:/program files/codesourcery/sourcery g++ lite/bin/../lib/gcc/arm-none-eabi/4.5.1/../../../../arm-none-eabi/lib\libc.a(lib_a-closer.o)
                              c:/program files/codesourcery/sourcery g++ lite/bin/../lib/gcc/arm-none-eabi/4.5.1/../../../../arm-none-eabi/lib\libc.a(lib_a-stdio.o) (_close_r)
c:/program files/codesourcery/sourcery g++ lite/bin/../lib/gcc/arm-none-eabi/4.5.1/../../../../arm-none-eabi/lib\libc.a(lib_a-fini.o)
                              c:/program files/codesourcery/sourcery g++ lite/bin/../lib/gcc/arm-none-eabi/4.5.1/../../../../arm-none-eabi/lib\libc.a(lib_a-__call_atexit.o) (__libc_fini_array)
c:/program files/codesourcery/sourcery g++ lite/bin/../lib/gcc/arm-none-eabi/4.5.1/../../../../arm-none-eabi/lib\libc.a(lib_a-flags.o)
                              c:/program files/codesourcery/sourcery g++ lite/bin/../lib/gcc/arm-none-eabi/4.5.1/../../../../arm-none-eabi/lib\libc.a(lib_a-fopen.o) (__sflags)
c:/program files/codesourcery/sourcery g++ lite/bin/../lib/gcc/arm-none-eabi/4.5.1/../../../../arm-none-eabi/lib\libc.a(lib_a-fputwc.o)
                              c:/program files/codesourcery/sourcery g++ lite/bin/../lib/gcc/arm-none-eabi/4.5.1/../../../../arm-none-eabi/lib\libc.a(lib_a-vfiprintf.o) (_fputwc_r)
c:/program files/codesourcery/sourcery g++ lite/bin/../lib/gcc/arm-none-eabi/4.5.1/../../../../arm-none-eabi/lib\libc.a(lib_a-fvwrite.o)
                              c:/program files/codesourcery/sourcery g++ lite/bin/../lib/gcc/arm-none-eabi/4.5.1/../../../../arm-none-eabi/lib\libc.a(lib_a-fwrite.o) (__sfvwrite_r)
c:/program files/codesourcery/sourcery g++ lite/bin/../lib/gcc/arm-none-eabi/4.5.1/../../../../arm-none-eabi/lib\libc.a(lib_a-gettimeofdayr.o)
                              c:/program files/codesourcery/sourcery g++ lite/bin/../lib/gcc/arm-none-eabi/4.5.1/../../../../arm-none-eabi/lib\libc.a(lib_a-sysgettod.o) (_gettimeofday_r)
c:/program files/codesourcery/sourcery g++ lite/bin/../lib/gcc/arm-none-eabi/4.5.1/../../../../arm-none-eabi/lib\libc.a(lib_a-gettzinfo.o)
                              c:/program files/codesourcery/sourcery g++ lite/bin/../lib/gcc/arm-none-eabi/4.5.1/../../../../arm-none-eabi/lib\libc.a(lib_a-mktm_r.o) (__gettzinfo)
c:/program files/codesourcery/sourcery g++ lite/bin/../lib/gcc/arm-none-eabi/4.5.1/../../../../arm-none-eabi/lib\libc.a(lib_a-isattyr.o)
                              c:/program files/codesourcery/sourcery g++ lite/bin/../lib/gcc/arm-none-eabi/4.5.1/../../../../arm-none-eabi/lib\libc.a(lib_a-makebuf.o) (_isatty_r)
c:/program files/codesourcery/sourcery g++ lite/bin/../lib/gcc/arm-none-eabi/4.5.1/../../../../arm-none-eabi/lib\libc.a(lib_a-locale.o)
                              c:/program files/codesourcery/sourcery g++ lite/bin/../lib/gcc/arm-none-eabi/4.5.1/../../../../arm-none-eabi/lib\libc.a(lib_a-fputwc.o) (__locale_mb_cur_max)
c:/program files/codesourcery/sourcery g++ lite/bin/../lib/gcc/arm-none-eabi/4.5.1/../../../../arm-none-eabi/lib\libc.a(lib_a-lseekr.o)
                              c:/program files/codesourcery/sourcery g++ lite/bin/../lib/gcc/arm-none-eabi/4.5.1/../../../../arm-none-eabi/lib\libc.a(lib_a-stdio.o) (_lseek_r)
c:/program files/codesourcery/sourcery g++ lite/bin/../lib/gcc/arm-none-eabi/4.5.1/../../../../arm-none-eabi/lib\libc.a(lib_a-memchr.o)
                              c:/program files/codesourcery/sourcery g++ lite/bin/../lib/gcc/arm-none-eabi/4.5.1/../../../../arm-none-eabi/lib\libc.a(lib_a-svfiprintf.o) (memchr)
c:/program files/codesourcery/sourcery g++ lite/bin/../lib/gcc/arm-none-eabi/4.5.1/../../../../arm-none-eabi/lib\libc.a(lib_a-memmove.o)
                              c:/program files/codesourcery/sourcery g++ lite/bin/../lib/gcc/arm-none-eabi/4.5.1/../../../../arm-none-eabi/lib\libc.a(lib_a-svfiprintf.o) (memmove)
c:/program files/codesourcery/sourcery g++ lite/bin/../lib/gcc/arm-none-eabi/4.5.1/../../../../arm-none-eabi/lib\libc.a(lib_a-readr.o)
                              c:/program files/codesourcery/sourcery g++ lite/bin/../lib/gcc/arm-none-eabi/4.5.1/../../../../arm-none-eabi/lib\libc.a(lib_a-stdio.o) (_read_r)
c:/program files/codesourcery/sourcery g++ lite/bin/../lib/gcc/arm-none-eabi/4.5.1/../../../../arm-none-eabi/lib\libc.a(lib_a-reallocr.o)
                              c:/program files/codesourcery/sourcery g++ lite/bin/../lib/gcc/arm-none-eabi/4.5.1/../../../../arm-none-eabi/lib\libc.a(lib_a-svfiprintf.o) (_realloc_r)
c:/program files/codesourcery/sourcery g++ lite/bin/../lib/gcc/arm-none-eabi/4.5.1/../../../../arm-none-eabi/lib\libc.a(lib_a-strcmp.o)
                              c:/program files/codesourcery/sourcery g++ lite/bin/../lib/gcc/arm-none-eabi/4.5.1/../../../../arm-none-eabi/lib\libc.a(lib_a-locale.o) (strcmp)
c:/program files/codesourcery/sourcery g++ lite/bin/../lib/gcc/arm-none-eabi/4.5.1/../../../../arm-none-eabi/lib\libc.a(lib_a-wbuf.o)
                              c:/program files/codesourcery/sourcery g++ lite/bin/../lib/gcc/arm-none-eabi/4.5.1/../../../../arm-none-eabi/lib\libc.a(lib_a-fputwc.o) (__swbuf_r)
c:/program files/codesourcery/sourcery g++ lite/bin/../lib/gcc/arm-none-eabi/4.5.1/../../../../arm-none-eabi/lib\libc.a(lib_a-wcrtomb.o)
                              c:/program files/codesourcery/sourcery g++ lite/bin/../lib/gcc/arm-none-eabi/4.5.1/../../../../arm-none-eabi/lib\libc.a(lib_a-fputwc.o) (_wcrtomb_r)
c:/program files/codesourcery/sourcery g++ lite/bin/../lib/gcc/arm-none-eabi/4.5.1/../../../../arm-none-eabi/lib\libc.a(lib_a-wctomb_r.o)
                              c:/program files/codesourcery/sourcery g++ lite/bin/../lib/gcc/arm-none-eabi/4.5.1/../../../../arm-none-eabi/lib\libc.a(lib_a-wcrtomb.o) (__wctomb)
c:/program files/codesourcery/sourcery g++ lite/bin/../lib/gcc/arm-none-eabi/4.5.1/../../../../arm-none-eabi/lib\libc.a(lib_a-__atexit.o)
                              c:/program files/codesourcery/sourcery g++ lite/bin/../lib/gcc/arm-none-eabi/4.5.1/../../../../arm-none-eabi/lib\libc.a(lib_a-atexit.o) (__register_exitproc)
c:/program files/codesourcery/sourcery g++ lite/bin/../lib/gcc/arm-none-eabi/4.5.1\libgcc.a(_aeabi_uldivmod.o)
                              c:/program files/codesourcery/sourcery g++ lite/bin/../lib/gcc/arm-none-eabi/4.5.1/../../../../arm-none-eabi/lib\libc.a(lib_a-svfiprintf.o) (__aeabi_uldivmod)
c:/program files/codesourcery/sourcery g++ lite/bin/../lib/gcc/arm-none-eabi/4.5.1\libgcc.a(bpabi.o)
                              c:/program files/codesourcery/sourcery g++ lite/bin/../lib/gcc/arm-none-eabi/4.5.1\libgcc.a(_aeabi_uldivmod.o) (__gnu_uldivmod_helper)
c:/program files/codesourcery/sourcery g++ lite/bin/../lib/gcc/arm-none-eabi/4.5.1\libgcc.a(_divdi3.o)
                              c:/program files/codesourcery/sourcery g++ lite/bin/../lib/gcc/arm-none-eabi/4.5.1\libgcc.a(bpabi.o) (__divdi3)
c:/program files/codesourcery/sourcery g++ lite/bin/../lib/gcc/arm-none-eabi/4.5.1\libgcc.a(_udivdi3.o)
                              c:/program files/codesourcery/sourcery g++ lite/bin/../lib/gcc/arm-none-eabi/4.5.1\libgcc.a(bpabi.o) (__udivdi3)
c:/program files/codesourcery/sourcery g++ lite/bin/../lib/gcc/arm-none-eabi/4.5.1\libgcc.a(_clzsi2.o)
                              c:/program files/codesourcery/sourcery g++ lite/bin/../lib/gcc/arm-none-eabi/4.5.1\libgcc.a(_divdi3.o) (__clzsi2)

Allocating common symbols
Common symbol       size              file

errno               0x4               c:/program files/codesourcery/sourcery g++ lite/bin/../lib/gcc/arm-none-eabi/4.5.1/../../../../arm-none-eabi/lib\libc.a(lib_a-reent.o)

Discarded input sections

 .text          0x00000000        0x0 c:/program files/codesourcery/sourcery g++ lite/bin/../lib/gcc/arm-none-eabi/4.5.1/crti.o
 .data          0x00000000        0x0 c:/program files/codesourcery/sourcery g++ lite/bin/../lib/gcc/arm-none-eabi/4.5.1/crti.o
 .bss           0x00000000        0x0 c:/program files/codesourcery/sourcery g++ lite/bin/../lib/gcc/arm-none-eabi/4.5.1/crti.o
 .data          0x00000000        0x4 c:/program files/codesourcery/sourcery g++ lite/bin/../lib/gcc/arm-none-eabi/4.5.1/crtbegin.o
 .text          0x00000000        0x0 lpc2106-cmucam3_buildfiles/main.o
 .data          0x00000000        0x0 lpc2106-cmucam3_buildfiles/main.o
 .bss           0x00000000        0x0 lpc2106-cmucam3_buildfiles/main.o
 .text          0x00000000        0x0 ../../lib/jpeg-6b\libjpeg-6b_lpc2106-cmucam3.a(jcapimin.o)
 .data          0x00000000        0x0 ../../lib/jpeg-6b\libjpeg-6b_lpc2106-cmucam3.a(jcapimin.o)
 .bss           0x00000000        0x0 ../../lib/jpeg-6b\libjpeg-6b_lpc2106-cmucam3.a(jcapimin.o)
 .text.jpeg_destroy_compress
                0x00000000       0x10 ../../lib/jpeg-6b\libjpeg-6b_lpc2106-cmucam3.a(jcapimin.o)
 .text.jpeg_abort_compress
                0x00000000       0x10 ../../lib/jpeg-6b\libjpeg-6b_lpc2106-cmucam3.a(jcapimin.o)
 .text.jpeg_write_marker
                0x00000000      0x104 ../../lib/jpeg-6b\libjpeg-6b_lpc2106-cmucam3.a(jcapimin.o)
 .text.jpeg_write_m_header
                0x00000000       0x78 ../../lib/jpeg-6b\libjpeg-6b_lpc2106-cmucam3.a(jcapimin.o)
 .text.jpeg_write_m_byte
                0x00000000       0x1c ../../lib/jpeg-6b\libjpeg-6b_lpc2106-cmucam3.a(jcapimin.o)
 .text.jpeg_write_tables
                0x00000000       0x94 ../../lib/jpeg-6b\libjpeg-6b_lpc2106-cmucam3.a(jcapimin.o)
 .text          0x00000000        0x0 ../../lib/jpeg-6b\libjpeg-6b_lpc2106-cmucam3.a(jcapistd.o)
 .data          0x00000000        0x0 ../../lib/jpeg-6b\libjpeg-6b_lpc2106-cmucam3.a(jcapistd.o)
 .bss           0x00000000        0x0 ../../lib/jpeg-6b\libjpeg-6b_lpc2106-cmucam3.a(jcapistd.o)
 .text.jpeg_write_raw_data
                0x00000000      0x128 ../../lib/jpeg-6b\libjpeg-6b_lpc2106-cmucam3.a(jcapistd.o)
 .text          0x00000000        0x0 ../../lib/jpeg-6b\libjpeg-6b_lpc2106-cmucam3.a(jcinit.o)
 .data          0x00000000        0x0 ../../lib/jpeg-6b\libjpeg-6b_lpc2106-cmucam3.a(jcinit.o)
 .bss           0x00000000        0x0 ../../lib/jpeg-6b\libjpeg-6b_lpc2106-cmucam3.a(jcinit.o)
 .text          0x00000000        0x0 ../../lib/jpeg-6b\libjpeg-6b_lpc2106-cmucam3.a(jcmainct.o)
 .data          0x00000000        0x0 ../../lib/jpeg-6b\libjpeg-6b_lpc2106-cmucam3.a(jcmainct.o)
 .bss           0x00000000        0x0 ../../lib/jpeg-6b\libjpeg-6b_lpc2106-cmucam3.a(jcmainct.o)
 .text          0x00000000        0x0 ../../lib/jpeg-6b\libjpeg-6b_lpc2106-cmucam3.a(jcmarker.o)
 .data          0x00000000        0x0 ../../lib/jpeg-6b\libjpeg-6b_lpc2106-cmucam3.a(jcmarker.o)
 .bss           0x00000000        0x0 ../../lib/jpeg-6b\libjpeg-6b_lpc2106-cmucam3.a(jcmarker.o)
 .text          0x00000000        0x0 ../../lib/jpeg-6b\libjpeg-6b_lpc2106-cmucam3.a(jcmaster.o)
 .data          0x00000000        0x0 ../../lib/jpeg-6b\libjpeg-6b_lpc2106-cmucam3.a(jcmaster.o)
 .bss           0x00000000        0x0 ../../lib/jpeg-6b\libjpeg-6b_lpc2106-cmucam3.a(jcmaster.o)
 .text          0x00000000        0x0 ../../lib/jpeg-6b\libjpeg-6b_lpc2106-cmucam3.a(jcomapi.o)
 .data          0x00000000        0x0 ../../lib/jpeg-6b\libjpeg-6b_lpc2106-cmucam3.a(jcomapi.o)
 .bss           0x00000000        0x0 ../../lib/jpeg-6b\libjpeg-6b_lpc2106-cmucam3.a(jcomapi.o)
 .text          0x00000000        0x0 ../../lib/jpeg-6b\libjpeg-6b_lpc2106-cmucam3.a(jcparam.o)
 .data          0x00000000        0x0 ../../lib/jpeg-6b\libjpeg-6b_lpc2106-cmucam3.a(jcparam.o)
 .bss           0x00000000        0x0 ../../lib/jpeg-6b\libjpeg-6b_lpc2106-cmucam3.a(jcparam.o)
 .text.jpeg_quality_scaling
                0x00000000       0x44 ../../lib/jpeg-6b\libjpeg-6b_lpc2106-cmucam3.a(jcparam.o)
 .text          0x00000000        0x0 ../../lib/jpeg-6b\libjpeg-6b_lpc2106-cmucam3.a(jcprepct.o)
 .data          0x00000000        0x0 ../../lib/jpeg-6b\libjpeg-6b_lpc2106-cmucam3.a(jcprepct.o)
 .bss           0x00000000        0x0 ../../lib/jpeg-6b\libjpeg-6b_lpc2106-cmucam3.a(jcprepct.o)
 .text          0x00000000        0x0 ../../lib/jpeg-6b\libjpeg-6b_lpc2106-cmucam3.a(jcsample.o)
 .data          0x00000000        0x0 ../../lib/jpeg-6b\libjpeg-6b_lpc2106-cmucam3.a(jcsample.o)
 .bss           0x00000000        0x0 ../../lib/jpeg-6b\libjpeg-6b_lpc2106-cmucam3.a(jcsample.o)
 .text          0x00000000        0x0 ../../lib/jpeg-6b\libjpeg-6b_lpc2106-cmucam3.a(jdatadst.o)
 .data          0x00000000        0x0 ../../lib/jpeg-6b\libjpeg-6b_lpc2106-cmucam3.a(jdatadst.o)
 .bss           0x00000000        0x0 ../../lib/jpeg-6b\libjpeg-6b_lpc2106-cmucam3.a(jdatadst.o)
 .text          0x00000000        0x0 ../../lib/jpeg-6b\libjpeg-6b_lpc2106-cmucam3.a(jerror.o)
 .data          0x00000000        0x0 ../../lib/jpeg-6b\libjpeg-6b_lpc2106-cmucam3.a(jerror.o)
 .bss           0x00000000        0x0 ../../lib/jpeg-6b\libjpeg-6b_lpc2106-cmucam3.a(jerror.o)
 .text          0x00000000        0x0 ../../lib/jpeg-6b\libjpeg-6b_lpc2106-cmucam3.a(jutils.o)
 .data          0x00000000        0x0 ../../lib/jpeg-6b\libjpeg-6b_lpc2106-cmucam3.a(jutils.o)
 .bss           0x00000000        0x0 ../../lib/jpeg-6b\libjpeg-6b_lpc2106-cmucam3.a(jutils.o)
 .text.jround_up
                0x00000000       0x20 ../../lib/jpeg-6b\libjpeg-6b_lpc2106-cmucam3.a(jutils.o)
 .text.jcopy_block_row
                0x00000000       0x20 ../../lib/jpeg-6b\libjpeg-6b_lpc2106-cmucam3.a(jutils.o)
 .text          0x00000000        0x0 ../../lib/jpeg-6b\libjpeg-6b_lpc2106-cmucam3.a(jmemmgr.o)
 .data          0x00000000        0x0 ../../lib/jpeg-6b\libjpeg-6b_lpc2106-cmucam3.a(jmemmgr.o)
 .bss           0x00000000        0x0 ../../lib/jpeg-6b\libjpeg-6b_lpc2106-cmucam3.a(jmemmgr.o)
 .text          0x00000000        0x0 ../../lib/jpeg-6b\libjpeg-6b_lpc2106-cmucam3.a(jmemnobs.o)
 .data          0x00000000        0x0 ../../lib/jpeg-6b\libjpeg-6b_lpc2106-cmucam3.a(jmemnobs.o)
 .bss           0x00000000        0x0 ../../lib/jpeg-6b\libjpeg-6b_lpc2106-cmucam3.a(jmemnobs.o)
 .text          0x00000000        0x0 ../../lib/jpeg-6b\libjpeg-6b_lpc2106-cmucam3.a(jccoefct.o)
 .data          0x00000000        0x0 ../../lib/jpeg-6b\libjpeg-6b_lpc2106-cmucam3.a(jccoefct.o)
 .bss           0x00000000        0x0 ../../lib/jpeg-6b\libjpeg-6b_lpc2106-cmucam3.a(jccoefct.o)
 .text          0x00000000        0x0 ../../lib/jpeg-6b\libjpeg-6b_lpc2106-cmucam3.a(jccolor.o)
 .data          0x00000000        0x0 ../../lib/jpeg-6b\libjpeg-6b_lpc2106-cmucam3.a(jccolor.o)
 .bss           0x00000000        0x0 ../../lib/jpeg-6b\libjpeg-6b_lpc2106-cmucam3.a(jccolor.o)
 .text          0x00000000        0x0 ../../lib/jpeg-6b\libjpeg-6b_lpc2106-cmucam3.a(jcdctmgr.o)
 .data          0x00000000        0x0 ../../lib/jpeg-6b\libjpeg-6b_lpc2106-cmucam3.a(jcdctmgr.o)
 .bss           0x00000000        0x0 ../../lib/jpeg-6b\libjpeg-6b_lpc2106-cmucam3.a(jcdctmgr.o)
 .text          0x00000000        0x0 ../../lib/jpeg-6b\libjpeg-6b_lpc2106-cmucam3.a(jchuff.o)
 .data          0x00000000        0x0 ../../lib/jpeg-6b\libjpeg-6b_lpc2106-cmucam3.a(jchuff.o)
 .bss           0x00000000        0x0 ../../lib/jpeg-6b\libjpeg-6b_lpc2106-cmucam3.a(jchuff.o)
 .text          0x00000000        0x0 ../../lib/jpeg-6b\libjpeg-6b_lpc2106-cmucam3.a(jfdctint.o)
 .data          0x00000000        0x0 ../../lib/jpeg-6b\libjpeg-6b_lpc2106-cmucam3.a(jfdctint.o)
 .bss           0x00000000        0x0 ../../lib/jpeg-6b\libjpeg-6b_lpc2106-cmucam3.a(jfdctint.o)
 .text          0x00000000        0x0 ../../hal/lpc2106-cmucam3\libhal-lpc2106-cmucam3.a(interrupt.o)
 .data          0x00000000        0x0 ../../hal/lpc2106-cmucam3\libhal-lpc2106-cmucam3.a(interrupt.o)
 .bss           0x00000000        0x0 ../../hal/lpc2106-cmucam3\libhal-lpc2106-cmucam3.a(interrupt.o)
 .text.disable_ext_interrupt
                0x00000000       0x2c ../../hal/lpc2106-cmucam3\libhal-lpc2106-cmucam3.a(interrupt.o)
 .text.enable_servo_interrupt
                0x00000000       0x10 ../../hal/lpc2106-cmucam3\libhal-lpc2106-cmucam3.a(interrupt.o)
 .text.disable_servo_interrupt
                0x00000000       0x10 ../../hal/lpc2106-cmucam3\libhal-lpc2106-cmucam3.a(interrupt.o)
 .text          0x00000000        0x0 ../../hal/lpc2106-cmucam3\libhal-lpc2106-cmucam3.a(cc3.o)
 .data          0x00000000        0x0 ../../hal/lpc2106-cmucam3\libhal-lpc2106-cmucam3.a(cc3.o)
 .bss           0x00000000        0x0 ../../hal/lpc2106-cmucam3\libhal-lpc2106-cmucam3.a(cc3.o)
 .text.cc3_led_set_state
                0x00000000       0x8c ../../hal/lpc2106-cmucam3\libhal-lpc2106-cmucam3.a(cc3.o)
 .text.cc3_pixbuf_frame_set_roi
                0x00000000       0xe0 ../../hal/lpc2106-cmucam3\libhal-lpc2106-cmucam3.a(cc3.o)
 .text.cc3_pixbuf_frame_set_subsample
                0x00000000       0x94 ../../hal/lpc2106-cmucam3\libhal-lpc2106-cmucam3.a(cc3.o)
 .text.cc3_pixbuf_frame_set_coi
                0x00000000       0x34 ../../hal/lpc2106-cmucam3\libhal-lpc2106-cmucam3.a(cc3.o)
 .text.cc3_camera_set_power_state
                0x00000000       0x1c ../../hal/lpc2106-cmucam3\libhal-lpc2106-cmucam3.a(cc3.o)
 .text.cc3_camera_set_colorspace
                0x00000000       0x10 ../../hal/lpc2106-cmucam3\libhal-lpc2106-cmucam3.a(cc3.o)
 .text.cc3_camera_set_framerate_divider
                0x00000000       0x10 ../../hal/lpc2106-cmucam3\libhal-lpc2106-cmucam3.a(cc3.o)
 .text.cc3_camera_set_auto_exposure
                0x00000000       0x10 ../../hal/lpc2106-cmucam3\libhal-lpc2106-cmucam3.a(cc3.o)
 .text.cc3_camera_set_auto_white_balance
                0x00000000       0x10 ../../hal/lpc2106-cmucam3\libhal-lpc2106-cmucam3.a(cc3.o)
 .text.cc3_camera_set_brightness
                0x00000000       0x10 ../../hal/lpc2106-cmucam3\libhal-lpc2106-cmucam3.a(cc3.o)
 .text.cc3_camera_set_contrast
                0x00000000       0x10 ../../hal/lpc2106-cmucam3\libhal-lpc2106-cmucam3.a(cc3.o)
 .text.cc3_button_get_state
                0x00000000       0x30 ../../hal/lpc2106-cmucam3\libhal-lpc2106-cmucam3.a(cc3.o)
 .text.cc3_button_get_and_reset_trigger
                0x00000000       0x2c ../../hal/lpc2106-cmucam3\libhal-lpc2106-cmucam3.a(cc3.o)
 .bss.cc3_g_current_pixel
                0x00000000        0x4 ../../hal/lpc2106-cmucam3\libhal-lpc2106-cmucam3.a(cc3.o)
 .text          0x00000000        0x0 ../../hal/lpc2106-cmucam3\libhal-lpc2106-cmucam3.a(cc3_hal.o)
 .data          0x00000000        0x0 ../../hal/lpc2106-cmucam3\libhal-lpc2106-cmucam3.a(cc3_hal.o)
 .bss           0x00000000        0x0 ../../hal/lpc2106-cmucam3\libhal-lpc2106-cmucam3.a(cc3_hal.o)
 .text          0x00000000        0x0 ../../hal/lpc2106-cmucam3\libhal-lpc2106-cmucam3.a(syscalls.o)
 .data          0x00000000        0x0 ../../hal/lpc2106-cmucam3\libhal-lpc2106-cmucam3.a(syscalls.o)
 .bss           0x00000000        0x0 ../../hal/lpc2106-cmucam3\libhal-lpc2106-cmucam3.a(syscalls.o)
 .text.kill     0x00000000       0x18 ../../hal/lpc2106-cmucam3\libhal-lpc2106-cmucam3.a(syscalls.o)
 .text.abort    0x00000000        0x4 ../../hal/lpc2106-cmucam3\libhal-lpc2106-cmucam3.a(syscalls.o)
 .text._system  0x00000000       0x1c ../../hal/lpc2106-cmucam3\libhal-lpc2106-cmucam3.a(syscalls.o)
 .text._link    0x00000000       0x18 ../../hal/lpc2106-cmucam3\libhal-lpc2106-cmucam3.a(syscalls.o)
 .text._rename  0x00000000       0xcc ../../hal/lpc2106-cmucam3\libhal-lpc2106-cmucam3.a(syscalls.o)
 .text._kill    0x00000000       0x18 ../../hal/lpc2106-cmucam3\libhal-lpc2106-cmucam3.a(syscalls.o)
 .text._getpid  0x00000000        0x8 ../../hal/lpc2106-cmucam3\libhal-lpc2106-cmucam3.a(syscalls.o)
 .text._times   0x00000000       0x34 ../../hal/lpc2106-cmucam3\libhal-lpc2106-cmucam3.a(syscalls.o)
 .text._unlink  0x00000000       0x6c ../../hal/lpc2106-cmucam3\libhal-lpc2106-cmucam3.a(syscalls.o)
 .text._raise   0x00000000        0x8 ../../hal/lpc2106-cmucam3\libhal-lpc2106-cmucam3.a(syscalls.o)
 .text          0x00000000        0x0 ../../hal/lpc2106-cmucam3\libhal-lpc2106-cmucam3.a(serial.o)
 .data          0x00000000        0x0 ../../hal/lpc2106-cmucam3\libhal-lpc2106-cmucam3.a(serial.o)
 .bss           0x00000000        0x0 ../../hal/lpc2106-cmucam3\libhal-lpc2106-cmucam3.a(serial.o)
 .text.cc3_uart_fopen
                0x00000000       0x3c ../../hal/lpc2106-cmucam3\libhal-lpc2106-cmucam3.a(serial.o)
 .text.cc3_uart_has_data
                0x00000000       0x50 ../../hal/lpc2106-cmucam3\libhal-lpc2106-cmucam3.a(serial.o)
 .text.uart0_getc_nb
                0x00000000       0x1c ../../hal/lpc2106-cmucam3\libhal-lpc2106-cmucam3.a(serial.o)
 .text.uart1_getc_nb
                0x00000000       0x1c ../../hal/lpc2106-cmucam3\libhal-lpc2106-cmucam3.a(serial.o)
 .text          0x00000000        0x0 ../../hal/lpc2106-cmucam3\libhal-lpc2106-cmucam3.a(servo.o)
 .data          0x00000000        0x0 ../../hal/lpc2106-cmucam3\libhal-lpc2106-cmucam3.a(servo.o)
 .bss           0x00000000        0x0 ../../hal/lpc2106-cmucam3\libhal-lpc2106-cmucam3.a(servo.o)
 .text.cc3_gpio_set_servo_position
                0x00000000       0x20 ../../hal/lpc2106-cmucam3\libhal-lpc2106-cmucam3.a(servo.o)
 .text.cc3_gpio_get_servo_position
                0x00000000       0x18 ../../hal/lpc2106-cmucam3\libhal-lpc2106-cmucam3.a(servo.o)
 .text._cc3_servo_enable
                0x00000000       0xc8 ../../hal/lpc2106-cmucam3\libhal-lpc2106-cmucam3.a(servo.o)
 .rodata._cc3_servo_map
                0x00000000       0x10 ../../hal/lpc2106-cmucam3\libhal-lpc2106-cmucam3.a(servo.o)
 .text          0x00000000        0x0 ../../hal/lpc2106-cmucam3\libhal-lpc2106-cmucam3.a(rdcf2.o)
 .data          0x00000000        0x0 ../../hal/lpc2106-cmucam3\libhal-lpc2106-cmucam3.a(rdcf2.o)
 .bss           0x00000000        0x0 ../../hal/lpc2106-cmucam3\libhal-lpc2106-cmucam3.a(rdcf2.o)
 .text.rdcf_flush_directory
                0x00000000       0x78 ../../hal/lpc2106-cmucam3\libhal-lpc2106-cmucam3.a(rdcf2.o)
 .text          0x00000000        0x0 ../../hal/lpc2106-cmucam3\libhal-lpc2106-cmucam3.a(mmc_hardware.o)
 .data          0x00000000        0x0 ../../hal/lpc2106-cmucam3\libhal-lpc2106-cmucam3.a(mmc_hardware.o)
 .bss           0x00000000        0x0 ../../hal/lpc2106-cmucam3\libhal-lpc2106-cmucam3.a(mmc_hardware.o)
 .text          0x00000000        0x0 ../../hal/lpc2106-cmucam3\libhal-lpc2106-cmucam3.a(mmc_driver.o)
 .data          0x00000000        0x0 ../../hal/lpc2106-cmucam3\libhal-lpc2106-cmucam3.a(mmc_driver.o)
 .bss           0x00000000        0x0 ../../hal/lpc2106-cmucam3\libhal-lpc2106-cmucam3.a(mmc_driver.o)
 .text          0x00000000        0x0 ../../hal/lpc2106-cmucam3\libhal-lpc2106-cmucam3.a(gpio.o)
 .data          0x00000000        0x0 ../../hal/lpc2106-cmucam3\libhal-lpc2106-cmucam3.a(gpio.o)
 .bss           0x00000000        0x0 ../../hal/lpc2106-cmucam3\libhal-lpc2106-cmucam3.a(gpio.o)
 .text.cc3_gpio_set_mode
                0x00000000       0x74 ../../hal/lpc2106-cmucam3\libhal-lpc2106-cmucam3.a(gpio.o)
 .text.cc3_gpio_set_value
                0x00000000       0x2c ../../hal/lpc2106-cmucam3\libhal-lpc2106-cmucam3.a(gpio.o)
 .text.cc3_gpio_get_value
                0x00000000       0x38 ../../hal/lpc2106-cmucam3\libhal-lpc2106-cmucam3.a(gpio.o)
 .text.cc3_gpio_get_count
                0x00000000        0x8 ../../hal/lpc2106-cmucam3\libhal-lpc2106-cmucam3.a(gpio.o)
 .text          0x00000000        0x0 ../../hal/lpc2106-cmucam3\libhal-lpc2106-cmucam3.a(devices.o)
 .data          0x00000000        0x0 ../../hal/lpc2106-cmucam3\libhal-lpc2106-cmucam3.a(devices.o)
 .bss           0x00000000        0x0 ../../hal/lpc2106-cmucam3\libhal-lpc2106-cmucam3.a(devices.o)
 .text          0x00000000        0x0 ../../hal/lpc2106-cmucam3\libhal-lpc2106-cmucam3.a(uart_driver.o)
 .data          0x00000000        0x0 ../../hal/lpc2106-cmucam3\libhal-lpc2106-cmucam3.a(uart_driver.o)
 .bss           0x00000000        0x0 ../../hal/lpc2106-cmucam3\libhal-lpc2106-cmucam3.a(uart_driver.o)
 .text          0x00000000        0x0 ../../hal/lpc2106-cmucam3\libhal-lpc2106-cmucam3.a(startup.o)
 .data          0x00000000        0x0 ../../hal/lpc2106-cmucam3\libhal-lpc2106-cmucam3.a(startup.o)
 .bss           0x00000000        0x0 ../../hal/lpc2106-cmucam3\libhal-lpc2106-cmucam3.a(startup.o)
 .data          0x00000000        0x0 c:/program files/codesourcery/sourcery g++ lite/bin/../lib/gcc/arm-none-eabi/4.5.1\libgcc.a(_udivsi3.o)
 .bss           0x00000000        0x0 c:/program files/codesourcery/sourcery g++ lite/bin/../lib/gcc/arm-none-eabi/4.5.1\libgcc.a(_udivsi3.o)
 .data          0x00000000        0x0 c:/program files/codesourcery/sourcery g++ lite/bin/../lib/gcc/arm-none-eabi/4.5.1\libgcc.a(_divsi3.o)
 .bss           0x00000000        0x0 c:/program files/codesourcery/sourcery g++ lite/bin/../lib/gcc/arm-none-eabi/4.5.1\libgcc.a(_divsi3.o)
 .data          0x00000000        0x0 c:/program files/codesourcery/sourcery g++ lite/bin/../lib/gcc/arm-none-eabi/4.5.1\libgcc.a(_dvmd_tls.o)
 .bss           0x00000000        0x0 c:/program files/codesourcery/sourcery g++ lite/bin/../lib/gcc/arm-none-eabi/4.5.1\libgcc.a(_dvmd_tls.o)
 .data          0x00000000        0x0 c:/program files/codesourcery/sourcery g++ lite/bin/../lib/gcc/arm-none-eabi/4.5.1/../../../../arm-none-eabi/lib\libc.a(lib_a-calloc.o)
 .bss           0x00000000        0x0 c:/program files/codesourcery/sourcery g++ lite/bin/../lib/gcc/arm-none-eabi/4.5.1/../../../../arm-none-eabi/lib\libc.a(lib_a-calloc.o)
 .data          0x00000000        0x0 c:/program files/codesourcery/sourcery g++ lite/bin/../lib/gcc/arm-none-eabi/4.5.1/../../../../arm-none-eabi/lib\libc.a(lib_a-callocr.o)
 .bss           0x00000000        0x0 c:/program files/codesourcery/sourcery g++ lite/bin/../lib/gcc/arm-none-eabi/4.5.1/../../../../arm-none-eabi/lib\libc.a(lib_a-callocr.o)
 .text          0x00000000        0x0 c:/program files/codesourcery/sourcery g++ lite/bin/../lib/gcc/arm-none-eabi/4.5.1/../../../../arm-none-eabi/lib\libc.a(lib_a-ctype_.o)
 .bss           0x00000000        0x0 c:/program files/codesourcery/sourcery g++ lite/bin/../lib/gcc/arm-none-eabi/4.5.1/../../../../arm-none-eabi/lib\libc.a(lib_a-ctype_.o)
 .data          0x00000000        0x0 c:/program files/codesourcery/sourcery g++ lite/bin/../lib/gcc/arm-none-eabi/4.5.1/../../../../arm-none-eabi/lib\libc.a(lib_a-exit.o)
 .bss           0x00000000        0x0 c:/program files/codesourcery/sourcery g++ lite/bin/../lib/gcc/arm-none-eabi/4.5.1/../../../../arm-none-eabi/lib\libc.a(lib_a-exit.o)
 .data          0x00000000        0x0 c:/program files/codesourcery/sourcery g++ lite/bin/../lib/gcc/arm-none-eabi/4.5.1/../../../../arm-none-eabi/lib\libc.a(lib_a-fclose.o)
 .bss           0x00000000        0x0 c:/program files/codesourcery/sourcery g++ lite/bin/../lib/gcc/arm-none-eabi/4.5.1/../../../../arm-none-eabi/lib\libc.a(lib_a-fclose.o)
 .data          0x00000000        0x0 c:/program files/codesourcery/sourcery g++ lite/bin/../lib/gcc/arm-none-eabi/4.5.1/../../../../arm-none-eabi/lib\libc.a(lib_a-fflush.o)
 .bss           0x00000000        0x0 c:/program files/codesourcery/sourcery g++ lite/bin/../lib/gcc/arm-none-eabi/4.5.1/../../../../arm-none-eabi/lib\libc.a(lib_a-fflush.o)
 .data          0x00000000        0x0 c:/program files/codesourcery/sourcery g++ lite/bin/../lib/gcc/arm-none-eabi/4.5.1/../../../../arm-none-eabi/lib\libc.a(lib_a-findfp.o)
 .bss           0x00000000        0x0 c:/program files/codesourcery/sourcery g++ lite/bin/../lib/gcc/arm-none-eabi/4.5.1/../../../../arm-none-eabi/lib\libc.a(lib_a-findfp.o)
 .data          0x00000000        0x0 c:/program files/codesourcery/sourcery g++ lite/bin/../lib/gcc/arm-none-eabi/4.5.1/../../../../arm-none-eabi/lib\libc.a(lib_a-fiprintf.o)
 .bss           0x00000000        0x0 c:/program files/codesourcery/sourcery g++ lite/bin/../lib/gcc/arm-none-eabi/4.5.1/../../../../arm-none-eabi/lib\libc.a(lib_a-fiprintf.o)
 .data          0x00000000        0x0 c:/program files/codesourcery/sourcery g++ lite/bin/../lib/gcc/arm-none-eabi/4.5.1/../../../../arm-none-eabi/lib\libc.a(lib_a-fopen.o)
 .bss           0x00000000        0x0 c:/program files/codesourcery/sourcery g++ lite/bin/../lib/gcc/arm-none-eabi/4.5.1/../../../../arm-none-eabi/lib\libc.a(lib_a-fopen.o)
 .data          0x00000000        0x0 c:/program files/codesourcery/sourcery g++ lite/bin/../lib/gcc/arm-none-eabi/4.5.1/../../../../arm-none-eabi/lib\libc.a(lib_a-freer.o)
 .bss           0x00000000        0x0 c:/program files/codesourcery/sourcery g++ lite/bin/../lib/gcc/arm-none-eabi/4.5.1/../../../../arm-none-eabi/lib\libc.a(lib_a-freer.o)
 .data          0x00000000        0x0 c:/program files/codesourcery/sourcery g++ lite/bin/../lib/gcc/arm-none-eabi/4.5.1/../../../../arm-none-eabi/lib\libc.a(lib_a-fseek.o)
 .bss           0x00000000        0x0 c:/program files/codesourcery/sourcery g++ lite/bin/../lib/gcc/arm-none-eabi/4.5.1/../../../../arm-none-eabi/lib\libc.a(lib_a-fseek.o)
 .data          0x00000000        0x0 c:/program files/codesourcery/sourcery g++ lite/bin/../lib/gcc/arm-none-eabi/4.5.1/../../../../arm-none-eabi/lib\libc.a(lib_a-fstatr.o)
 .bss           0x00000000        0x0 c:/program files/codesourcery/sourcery g++ lite/bin/../lib/gcc/arm-none-eabi/4.5.1/../../../../arm-none-eabi/lib\libc.a(lib_a-fstatr.o)
 .data          0x00000000        0x0 c:/program files/codesourcery/sourcery g++ lite/bin/../lib/gcc/arm-none-eabi/4.5.1/../../../../arm-none-eabi/lib\libc.a(lib_a-fwalk.o)
 .bss           0x00000000        0x0 c:/program files/codesourcery/sourcery g++ lite/bin/../lib/gcc/arm-none-eabi/4.5.1/../../../../arm-none-eabi/lib\libc.a(lib_a-fwalk.o)
 .data          0x00000000        0x0 c:/program files/codesourcery/sourcery g++ lite/bin/../lib/gcc/arm-none-eabi/4.5.1/../../../../arm-none-eabi/lib\libc.a(lib_a-fwrite.o)
 .bss           0x00000000        0x0 c:/program files/codesourcery/sourcery g++ lite/bin/../lib/gcc/arm-none-eabi/4.5.1/../../../../arm-none-eabi/lib\libc.a(lib_a-fwrite.o)
 .text          0x00000000        0x0 c:/program files/codesourcery/sourcery g++ lite/bin/../lib/gcc/arm-none-eabi/4.5.1/../../../../arm-none-eabi/lib\libc.a(lib_a-impure.o)
 .bss           0x00000000        0x0 c:/program files/codesourcery/sourcery g++ lite/bin/../lib/gcc/arm-none-eabi/4.5.1/../../../../arm-none-eabi/lib\libc.a(lib_a-impure.o)
 .data          0x00000000        0x0 c:/program files/codesourcery/sourcery g++ lite/bin/../lib/gcc/arm-none-eabi/4.5.1/../../../../arm-none-eabi/lib\libc.a(lib_a-iprintf.o)
 .bss           0x00000000        0x0 c:/program files/codesourcery/sourcery g++ lite/bin/../lib/gcc/arm-none-eabi/4.5.1/../../../../arm-none-eabi/lib\libc.a(lib_a-iprintf.o)
 .data          0x00000000        0x0 c:/program files/codesourcery/sourcery g++ lite/bin/../lib/gcc/arm-none-eabi/4.5.1/../../../../arm-none-eabi/lib\libc.a(lib_a-lcltime_r.o)
 .bss           0x00000000        0x0 c:/program files/codesourcery/sourcery g++ lite/bin/../lib/gcc/arm-none-eabi/4.5.1/../../../../arm-none-eabi/lib\libc.a(lib_a-lcltime_r.o)
 .data          0x00000000        0x0 c:/program files/codesourcery/sourcery g++ lite/bin/../lib/gcc/arm-none-eabi/4.5.1/../../../../arm-none-eabi/lib\libc.a(lib_a-makebuf.o)
 .bss           0x00000000        0x0 c:/program files/codesourcery/sourcery g++ lite/bin/../lib/gcc/arm-none-eabi/4.5.1/../../../../arm-none-eabi/lib\libc.a(lib_a-makebuf.o)
 .data          0x00000000        0x0 c:/program files/codesourcery/sourcery g++ lite/bin/../lib/gcc/arm-none-eabi/4.5.1/../../../../arm-none-eabi/lib\libc.a(lib_a-malloc.o)
 .bss           0x00000000        0x0 c:/program files/codesourcery/sourcery g++ lite/bin/../lib/gcc/arm-none-eabi/4.5.1/../../../../arm-none-eabi/lib\libc.a(lib_a-malloc.o)
 .data          0x00000000        0x0 c:/program files/codesourcery/sourcery g++ lite/bin/../lib/gcc/arm-none-eabi/4.5.1/../../../../arm-none-eabi/lib\libc.a(lib_a-memcmp.o)
 .bss           0x00000000        0x0 c:/program files/codesourcery/sourcery g++ lite/bin/../lib/gcc/arm-none-eabi/4.5.1/../../../../arm-none-eabi/lib\libc.a(lib_a-memcmp.o)
 .data          0x00000000        0x0 c:/program files/codesourcery/sourcery g++ lite/bin/../lib/gcc/arm-none-eabi/4.5.1/../../../../arm-none-eabi/lib\libc.a(lib_a-memcpy.o)
 .bss           0x00000000        0x0 c:/program files/codesourcery/sourcery g++ lite/bin/../lib/gcc/arm-none-eabi/4.5.1/../../../../arm-none-eabi/lib\libc.a(lib_a-memcpy.o)
 .data          0x00000000        0x0 c:/program files/codesourcery/sourcery g++ lite/bin/../lib/gcc/arm-none-eabi/4.5.1/../../../../arm-none-eabi/lib\libc.a(lib_a-memset.o)
 .bss           0x00000000        0x0 c:/program files/codesourcery/sourcery g++ lite/bin/../lib/gcc/arm-none-eabi/4.5.1/../../../../arm-none-eabi/lib\libc.a(lib_a-memset.o)
 .data          0x00000000        0x0 c:/program files/codesourcery/sourcery g++ lite/bin/../lib/gcc/arm-none-eabi/4.5.1/../../../../arm-none-eabi/lib\libc.a(lib_a-mktm_r.o)
 .bss           0x00000000        0x0 c:/program files/codesourcery/sourcery g++ lite/bin/../lib/gcc/arm-none-eabi/4.5.1/../../../../arm-none-eabi/lib\libc.a(lib_a-mktm_r.o)
 .data          0x00000000        0x0 c:/program files/codesourcery/sourcery g++ lite/bin/../lib/gcc/arm-none-eabi/4.5.1/../../../../arm-none-eabi/lib\libc.a(lib_a-mlock.o)
 .bss           0x00000000        0x0 c:/program files/codesourcery/sourcery g++ lite/bin/../lib/gcc/arm-none-eabi/4.5.1/../../../../arm-none-eabi/lib\libc.a(lib_a-mlock.o)
 .data          0x00000000        0x0 c:/program files/codesourcery/sourcery g++ lite/bin/../lib/gcc/arm-none-eabi/4.5.1/../../../../arm-none-eabi/lib\libc.a(lib_a-openr.o)
 .bss           0x00000000        0x0 c:/program files/codesourcery/sourcery g++ lite/bin/../lib/gcc/arm-none-eabi/4.5.1/../../../../arm-none-eabi/lib\libc.a(lib_a-openr.o)
 .text          0x00000000      0x1a4 c:/program files/codesourcery/sourcery g++ lite/bin/../lib/gcc/arm-none-eabi/4.5.1/../../../../arm-none-eabi/lib\libc.a(lib_a-reent.o)
 .data          0x00000000        0x0 c:/program files/codesourcery/sourcery g++ lite/bin/../lib/gcc/arm-none-eabi/4.5.1/../../../../arm-none-eabi/lib\libc.a(lib_a-reent.o)
 .bss           0x00000000        0x0 c:/program files/codesourcery/sourcery g++ lite/bin/../lib/gcc/arm-none-eabi/4.5.1/../../../../arm-none-eabi/lib\libc.a(lib_a-reent.o)
 .data          0x00000000        0x0 c:/program files/codesourcery/sourcery g++ lite/bin/../lib/gcc/arm-none-eabi/4.5.1/../../../../arm-none-eabi/lib\libc.a(lib_a-refill.o)
 .bss           0x00000000        0x0 c:/program files/codesourcery/sourcery g++ lite/bin/../lib/gcc/arm-none-eabi/4.5.1/../../../../arm-none-eabi/lib\libc.a(lib_a-refill.o)
 .data          0x00000000        0x0 c:/program files/codesourcery/sourcery g++ lite/bin/../lib/gcc/arm-none-eabi/4.5.1/../../../../arm-none-eabi/lib\libc.a(lib_a-sbrkr.o)
 .bss           0x00000000        0x0 c:/program files/codesourcery/sourcery g++ lite/bin/../lib/gcc/arm-none-eabi/4.5.1/../../../../arm-none-eabi/lib\libc.a(lib_a-sbrkr.o)
 .data          0x00000000        0x0 c:/program files/codesourcery/sourcery g++ lite/bin/../lib/gcc/arm-none-eabi/4.5.1/../../../../arm-none-eabi/lib\libc.a(lib_a-setbuf.o)
 .bss           0x00000000        0x0 c:/program files/codesourcery/sourcery g++ lite/bin/../lib/gcc/arm-none-eabi/4.5.1/../../../../arm-none-eabi/lib\libc.a(lib_a-setbuf.o)
 .data          0x00000000        0x0 c:/program files/codesourcery/sourcery g++ lite/bin/../lib/gcc/arm-none-eabi/4.5.1/../../../../arm-none-eabi/lib\libc.a(lib_a-setjmp.o)
 .bss           0x00000000        0x0 c:/program files/codesourcery/sourcery g++ lite/bin/../lib/gcc/arm-none-eabi/4.5.1/../../../../arm-none-eabi/lib\libc.a(lib_a-setjmp.o)
 .data          0x00000000        0x0 c:/program files/codesourcery/sourcery g++ lite/bin/../lib/gcc/arm-none-eabi/4.5.1/../../../../arm-none-eabi/lib\libc.a(lib_a-setvbuf.o)
 .bss           0x00000000        0x0 c:/program files/codesourcery/sourcery g++ lite/bin/../lib/gcc/arm-none-eabi/4.5.1/../../../../arm-none-eabi/lib\libc.a(lib_a-setvbuf.o)
 .data          0x00000000        0x0 c:/program files/codesourcery/sourcery g++ lite/bin/../lib/gcc/arm-none-eabi/4.5.1/../../../../arm-none-eabi/lib\libc.a(lib_a-siprintf.o)
 .bss           0x00000000        0x0 c:/program files/codesourcery/sourcery g++ lite/bin/../lib/gcc/arm-none-eabi/4.5.1/../../../../arm-none-eabi/lib\libc.a(lib_a-siprintf.o)
 .data          0x00000000        0x0 c:/program files/codesourcery/sourcery g++ lite/bin/../lib/gcc/arm-none-eabi/4.5.1/../../../../arm-none-eabi/lib\libc.a(lib_a-sniprintf.o)
 .bss           0x00000000        0x0 c:/program files/codesourcery/sourcery g++ lite/bin/../lib/gcc/arm-none-eabi/4.5.1/../../../../arm-none-eabi/lib\libc.a(lib_a-sniprintf.o)
 .data          0x00000000        0x0 c:/program files/codesourcery/sourcery g++ lite/bin/../lib/gcc/arm-none-eabi/4.5.1/../../../../arm-none-eabi/lib\libc.a(lib_a-stdio.o)
 .bss           0x00000000        0x0 c:/program files/codesourcery/sourcery g++ lite/bin/../lib/gcc/arm-none-eabi/4.5.1/../../../../arm-none-eabi/lib\libc.a(lib_a-stdio.o)
 .data          0x00000000        0x0 c:/program files/codesourcery/sourcery g++ lite/bin/../lib/gcc/arm-none-eabi/4.5.1/../../../../arm-none-eabi/lib\libc.a(lib_a-strdup.o)
 .bss           0x00000000        0x0 c:/program files/codesourcery/sourcery g++ lite/bin/../lib/gcc/arm-none-eabi/4.5.1/../../../../arm-none-eabi/lib\libc.a(lib_a-strdup.o)
 .data          0x00000000        0x0 c:/program files/codesourcery/sourcery g++ lite/bin/../lib/gcc/arm-none-eabi/4.5.1/../../../../arm-none-eabi/lib\libc.a(lib_a-strdup_r.o)
 .bss           0x00000000        0x0 c:/program files/codesourcery/sourcery g++ lite/bin/../lib/gcc/arm-none-eabi/4.5.1/../../../../arm-none-eabi/lib\libc.a(lib_a-strdup_r.o)
 .data          0x00000000        0x0 c:/program files/codesourcery/sourcery g++ lite/bin/../lib/gcc/arm-none-eabi/4.5.1/../../../../arm-none-eabi/lib\libc.a(lib_a-strlen.o)
 .bss           0x00000000        0x0 c:/program files/codesourcery/sourcery g++ lite/bin/../lib/gcc/arm-none-eabi/4.5.1/../../../../arm-none-eabi/lib\libc.a(lib_a-strlen.o)
 .data          0x00000000        0x0 c:/program files/codesourcery/sourcery g++ lite/bin/../lib/gcc/arm-none-eabi/4.5.1/../../../../arm-none-eabi/lib\libc.a(lib_a-strtol.o)
 .bss           0x00000000        0x0 c:/program files/codesourcery/sourcery g++ lite/bin/../lib/gcc/arm-none-eabi/4.5.1/../../../../arm-none-eabi/lib\libc.a(lib_a-strtol.o)
 .data          0x00000000        0x0 c:/program files/codesourcery/sourcery g++ lite/bin/../lib/gcc/arm-none-eabi/4.5.1/../../../../arm-none-eabi/lib\libc.a(lib_a-svfiprintf.o)
 .bss           0x00000000        0x0 c:/program files/codesourcery/sourcery g++ lite/bin/../lib/gcc/arm-none-eabi/4.5.1/../../../../arm-none-eabi/lib\libc.a(lib_a-svfiprintf.o)
 .data          0x00000000        0x0 c:/program files/codesourcery/sourcery g++ lite/bin/../lib/gcc/arm-none-eabi/4.5.1/../../../../arm-none-eabi/lib\libc.a(lib_a-sysgettod.o)
 .bss           0x00000000        0x0 c:/program files/codesourcery/sourcery g++ lite/bin/../lib/gcc/arm-none-eabi/4.5.1/../../../../arm-none-eabi/lib\libc.a(lib_a-sysgettod.o)
 .data          0x00000000        0x0 c:/program files/codesourcery/sourcery g++ lite/bin/../lib/gcc/arm-none-eabi/4.5.1/../../../../arm-none-eabi/lib\libc.a(lib_a-tzlock.o)
 .bss           0x00000000        0x0 c:/program files/codesourcery/sourcery g++ lite/bin/../lib/gcc/arm-none-eabi/4.5.1/../../../../arm-none-eabi/lib\libc.a(lib_a-tzlock.o)
 .text          0x00000000        0x0 c:/program files/codesourcery/sourcery g++ lite/bin/../lib/gcc/arm-none-eabi/4.5.1/../../../../arm-none-eabi/lib\libc.a(lib_a-tzvars.o)
 .data          0x00000000        0x8 c:/program files/codesourcery/sourcery g++ lite/bin/../lib/gcc/arm-none-eabi/4.5.1/../../../../arm-none-eabi/lib\libc.a(lib_a-tzvars.o)
 .rodata.str1.4
                0x00000000        0x4 c:/program files/codesourcery/sourcery g++ lite/bin/../lib/gcc/arm-none-eabi/4.5.1/../../../../arm-none-eabi/lib\libc.a(lib_a-tzvars.o)
 .data          0x00000000        0x0 c:/program files/codesourcery/sourcery g++ lite/bin/../lib/gcc/arm-none-eabi/4.5.1/../../../../arm-none-eabi/lib\libc.a(lib_a-vfiprintf.o)
 .bss           0x00000000        0x0 c:/program files/codesourcery/sourcery g++ lite/bin/../lib/gcc/arm-none-eabi/4.5.1/../../../../arm-none-eabi/lib\libc.a(lib_a-vfiprintf.o)
 .data          0x00000000        0x0 c:/program files/codesourcery/sourcery g++ lite/bin/../lib/gcc/arm-none-eabi/4.5.1/../../../../arm-none-eabi/lib\libc.a(lib_a-writer.o)
 .bss           0x00000000        0x0 c:/program files/codesourcery/sourcery g++ lite/bin/../lib/gcc/arm-none-eabi/4.5.1/../../../../arm-none-eabi/lib\libc.a(lib_a-writer.o)
 .data          0x00000000        0x0 c:/program files/codesourcery/sourcery g++ lite/bin/../lib/gcc/arm-none-eabi/4.5.1/../../../../arm-none-eabi/lib\libc.a(lib_a-wsetup.o)
 .bss           0x00000000        0x0 c:/program files/codesourcery/sourcery g++ lite/bin/../lib/gcc/arm-none-eabi/4.5.1/../../../../arm-none-eabi/lib\libc.a(lib_a-wsetup.o)
 .data          0x00000000        0x0 c:/program files/codesourcery/sourcery g++ lite/bin/../lib/gcc/arm-none-eabi/4.5.1/../../../../arm-none-eabi/lib\libc.a(lib_a-__call_atexit.o)
 .bss           0x00000000        0x0 c:/program files/codesourcery/sourcery g++ lite/bin/../lib/gcc/arm-none-eabi/4.5.1/../../../../arm-none-eabi/lib\libc.a(lib_a-__call_atexit.o)
 .data          0x00000000        0x0 c:/program files/codesourcery/sourcery g++ lite/bin/../lib/gcc/arm-none-eabi/4.5.1/../../../../arm-none-eabi/lib\libc.a(lib_a-atexit.o)
 .bss           0x00000000        0x0 c:/program files/codesourcery/sourcery g++ lite/bin/../lib/gcc/arm-none-eabi/4.5.1/../../../../arm-none-eabi/lib\libc.a(lib_a-atexit.o)
 .data          0x00000000        0x0 c:/program files/codesourcery/sourcery g++ lite/bin/../lib/gcc/arm-none-eabi/4.5.1/../../../../arm-none-eabi/lib\libc.a(lib_a-closer.o)
 .bss           0x00000000        0x0 c:/program files/codesourcery/sourcery g++ lite/bin/../lib/gcc/arm-none-eabi/4.5.1/../../../../arm-none-eabi/lib\libc.a(lib_a-closer.o)
 .data          0x00000000        0x0 c:/program files/codesourcery/sourcery g++ lite/bin/../lib/gcc/arm-none-eabi/4.5.1/../../../../arm-none-eabi/lib\libc.a(lib_a-fini.o)
 .bss           0x00000000        0x0 c:/program files/codesourcery/sourcery g++ lite/bin/../lib/gcc/arm-none-eabi/4.5.1/../../../../arm-none-eabi/lib\libc.a(lib_a-fini.o)
 .data          0x00000000        0x0 c:/program files/codesourcery/sourcery g++ lite/bin/../lib/gcc/arm-none-eabi/4.5.1/../../../../arm-none-eabi/lib\libc.a(lib_a-flags.o)
 .bss           0x00000000        0x0 c:/program files/codesourcery/sourcery g++ lite/bin/../lib/gcc/arm-none-eabi/4.5.1/../../../../arm-none-eabi/lib\libc.a(lib_a-flags.o)
 .data          0x00000000        0x0 c:/program files/codesourcery/sourcery g++ lite/bin/../lib/gcc/arm-none-eabi/4.5.1/../../../../arm-none-eabi/lib\libc.a(lib_a-fputwc.o)
 .bss           0x00000000        0x0 c:/program files/codesourcery/sourcery g++ lite/bin/../lib/gcc/arm-none-eabi/4.5.1/../../../../arm-none-eabi/lib\libc.a(lib_a-fputwc.o)
 .data          0x00000000        0x0 c:/program files/codesourcery/sourcery g++ lite/bin/../lib/gcc/arm-none-eabi/4.5.1/../../../../arm-none-eabi/lib\libc.a(lib_a-fvwrite.o)
 .bss           0x00000000        0x0 c:/program files/codesourcery/sourcery g++ lite/bin/../lib/gcc/arm-none-eabi/4.5.1/../../../../arm-none-eabi/lib\libc.a(lib_a-fvwrite.o)
 .data          0x00000000        0x0 c:/program files/codesourcery/sourcery g++ lite/bin/../lib/gcc/arm-none-eabi/4.5.1/../../../../arm-none-eabi/lib\libc.a(lib_a-gettimeofdayr.o)
 .bss           0x00000000        0x0 c:/program files/codesourcery/sourcery g++ lite/bin/../lib/gcc/arm-none-eabi/4.5.1/../../../../arm-none-eabi/lib\libc.a(lib_a-gettimeofdayr.o)
 .bss           0x00000000        0x0 c:/program files/codesourcery/sourcery g++ lite/bin/../lib/gcc/arm-none-eabi/4.5.1/../../../../arm-none-eabi/lib\libc.a(lib_a-gettzinfo.o)
 .data          0x00000000        0x0 c:/program files/codesourcery/sourcery g++ lite/bin/../lib/gcc/arm-none-eabi/4.5.1/../../../../arm-none-eabi/lib\libc.a(lib_a-isattyr.o)
 .bss           0x00000000        0x0 c:/program files/codesourcery/sourcery g++ lite/bin/../lib/gcc/arm-none-eabi/4.5.1/../../../../arm-none-eabi/lib\libc.a(lib_a-isattyr.o)
 .bss           0x00000000        0xc c:/program files/codesourcery/sourcery g++ lite/bin/../lib/gcc/arm-none-eabi/4.5.1/../../../../arm-none-eabi/lib\libc.a(lib_a-locale.o)
 .data          0x00000000        0x0 c:/program files/codesourcery/sourcery g++ lite/bin/../lib/gcc/arm-none-eabi/4.5.1/../../../../arm-none-eabi/lib\libc.a(lib_a-lseekr.o)
 .bss           0x00000000        0x0 c:/program files/codesourcery/sourcery g++ lite/bin/../lib/gcc/arm-none-eabi/4.5.1/../../../../arm-none-eabi/lib\libc.a(lib_a-lseekr.o)
 .data          0x00000000        0x0 c:/program files/codesourcery/sourcery g++ lite/bin/../lib/gcc/arm-none-eabi/4.5.1/../../../../arm-none-eabi/lib\libc.a(lib_a-memchr.o)
 .bss           0x00000000        0x0 c:/program files/codesourcery/sourcery g++ lite/bin/../lib/gcc/arm-none-eabi/4.5.1/../../../../arm-none-eabi/lib\libc.a(lib_a-memchr.o)
 .data          0x00000000        0x0 c:/program files/codesourcery/sourcery g++ lite/bin/../lib/gcc/arm-none-eabi/4.5.1/../../../../arm-none-eabi/lib\libc.a(lib_a-memmove.o)
 .bss           0x00000000        0x0 c:/program files/codesourcery/sourcery g++ lite/bin/../lib/gcc/arm-none-eabi/4.5.1/../../../../arm-none-eabi/lib\libc.a(lib_a-memmove.o)
 .data          0x00000000        0x0 c:/program files/codesourcery/sourcery g++ lite/bin/../lib/gcc/arm-none-eabi/4.5.1/../../../../arm-none-eabi/lib\libc.a(lib_a-readr.o)
 .bss           0x00000000        0x0 c:/program files/codesourcery/sourcery g++ lite/bin/../lib/gcc/arm-none-eabi/4.5.1/../../../../arm-none-eabi/lib\libc.a(lib_a-readr.o)
 .data          0x00000000        0x0 c:/program files/codesourcery/sourcery g++ lite/bin/../lib/gcc/arm-none-eabi/4.5.1/../../../../arm-none-eabi/lib\libc.a(lib_a-reallocr.o)
 .bss           0x00000000        0x0 c:/program files/codesourcery/sourcery g++ lite/bin/../lib/gcc/arm-none-eabi/4.5.1/../../../../arm-none-eabi/lib\libc.a(lib_a-reallocr.o)
 .data          0x00000000        0x0 c:/program files/codesourcery/sourcery g++ lite/bin/../lib/gcc/arm-none-eabi/4.5.1/../../../../arm-none-eabi/lib\libc.a(lib_a-strcmp.o)
 .bss           0x00000000        0x0 c:/program files/codesourcery/sourcery g++ lite/bin/../lib/gcc/arm-none-eabi/4.5.1/../../../../arm-none-eabi/lib\libc.a(lib_a-strcmp.o)
 .data          0x00000000        0x0 c:/program files/codesourcery/sourcery g++ lite/bin/../lib/gcc/arm-none-eabi/4.5.1/../../../../arm-none-eabi/lib\libc.a(lib_a-wbuf.o)
 .bss           0x00000000        0x0 c:/program files/codesourcery/sourcery g++ lite/bin/../lib/gcc/arm-none-eabi/4.5.1/../../../../arm-none-eabi/lib\libc.a(lib_a-wbuf.o)
 .data          0x00000000        0x0 c:/program files/codesourcery/sourcery g++ lite/bin/../lib/gcc/arm-none-eabi/4.5.1/../../../../arm-none-eabi/lib\libc.a(lib_a-wcrtomb.o)
 .bss           0x00000000        0x0 c:/program files/codesourcery/sourcery g++ lite/bin/../lib/gcc/arm-none-eabi/4.5.1/../../../../arm-none-eabi/lib\libc.a(lib_a-wcrtomb.o)
 .bss           0x00000000        0x0 c:/program files/codesourcery/sourcery g++ lite/bin/../lib/gcc/arm-none-eabi/4.5.1/../../../../arm-none-eabi/lib\libc.a(lib_a-wctomb_r.o)
 .data          0x00000000        0x0 c:/program files/codesourcery/sourcery g++ lite/bin/../lib/gcc/arm-none-eabi/4.5.1/../../../../arm-none-eabi/lib\libc.a(lib_a-__atexit.o)
 .bss           0x00000000        0x0 c:/program files/codesourcery/sourcery g++ lite/bin/../lib/gcc/arm-none-eabi/4.5.1/../../../../arm-none-eabi/lib\libc.a(lib_a-__atexit.o)
 .data          0x00000000        0x0 c:/program files/codesourcery/sourcery g++ lite/bin/../lib/gcc/arm-none-eabi/4.5.1\libgcc.a(_aeabi_uldivmod.o)
 .bss           0x00000000        0x0 c:/program files/codesourcery/sourcery g++ lite/bin/../lib/gcc/arm-none-eabi/4.5.1\libgcc.a(_aeabi_uldivmod.o)
 .data          0x00000000        0x0 c:/program files/codesourcery/sourcery g++ lite/bin/../lib/gcc/arm-none-eabi/4.5.1\libgcc.a(bpabi.o)
 .bss           0x00000000        0x0 c:/program files/codesourcery/sourcery g++ lite/bin/../lib/gcc/arm-none-eabi/4.5.1\libgcc.a(bpabi.o)
 .data          0x00000000        0x0 c:/program files/codesourcery/sourcery g++ lite/bin/../lib/gcc/arm-none-eabi/4.5.1\libgcc.a(_divdi3.o)
 .bss           0x00000000        0x0 c:/program files/codesourcery/sourcery g++ lite/bin/../lib/gcc/arm-none-eabi/4.5.1\libgcc.a(_divdi3.o)
 .ARM.extab     0x00000000        0x0 c:/program files/codesourcery/sourcery g++ lite/bin/../lib/gcc/arm-none-eabi/4.5.1\libgcc.a(_divdi3.o)
 .data          0x00000000        0x0 c:/program files/codesourcery/sourcery g++ lite/bin/../lib/gcc/arm-none-eabi/4.5.1\libgcc.a(_udivdi3.o)
 .bss           0x00000000        0x0 c:/program files/codesourcery/sourcery g++ lite/bin/../lib/gcc/arm-none-eabi/4.5.1\libgcc.a(_udivdi3.o)
 .ARM.extab     0x00000000        0x0 c:/program files/codesourcery/sourcery g++ lite/bin/../lib/gcc/arm-none-eabi/4.5.1\libgcc.a(_udivdi3.o)
 .data          0x00000000        0x0 c:/program files/codesourcery/sourcery g++ lite/bin/../lib/gcc/arm-none-eabi/4.5.1\libgcc.a(_clzsi2.o)
 .bss           0x00000000        0x0 c:/program files/codesourcery/sourcery g++ lite/bin/../lib/gcc/arm-none-eabi/4.5.1\libgcc.a(_clzsi2.o)
 .text          0x00000000        0x0 c:/program files/codesourcery/sourcery g++ lite/bin/../lib/gcc/arm-none-eabi/4.5.1/crtend.o
 .data          0x00000000        0x0 c:/program files/codesourcery/sourcery g++ lite/bin/../lib/gcc/arm-none-eabi/4.5.1/crtend.o
 .bss           0x00000000        0x0 c:/program files/codesourcery/sourcery g++ lite/bin/../lib/gcc/arm-none-eabi/4.5.1/crtend.o
 .text          0x00000000        0x0 c:/program files/codesourcery/sourcery g++ lite/bin/../lib/gcc/arm-none-eabi/4.5.1/crtn.o
 .data          0x00000000        0x0 c:/program files/codesourcery/sourcery g++ lite/bin/../lib/gcc/arm-none-eabi/4.5.1/crtn.o
 .bss           0x00000000        0x0 c:/program files/codesourcery/sourcery g++ lite/bin/../lib/gcc/arm-none-eabi/4.5.1/crtn.o

Memory Configuration

Name             Origin             Length             Attributes
ROM              0x00000000         0x0001e000         xr
RAM              0x40000000         0x00010000         rw
*default*        0x00000000         0xffffffff

Linker script and memory map

LOAD c:/program files/codesourcery/sourcery g++ lite/bin/../lib/gcc/arm-none-eabi/4.5.1/crti.o
LOAD c:/program files/codesourcery/sourcery g++ lite/bin/../lib/gcc/arm-none-eabi/4.5.1/crtbegin.o
LOAD lpc2106-cmucam3_buildfiles/main.o
LOAD ../../lib/cc3-ilp\libcc3-ilp_lpc2106-cmucam3.a
LOAD ../../lib/jpeg-6b\libjpeg-6b_lpc2106-cmucam3.a
LOAD ../../hal/lpc2106-cmucam3\libhal-lpc2106-cmucam3.a
LOAD c:/program files/codesourcery/sourcery g++ lite/bin/../lib/gcc/arm-none-eabi/4.5.1/../../../../arm-none-eabi/lib\libm.a
START GROUP
LOAD c:/program files/codesourcery/sourcery g++ lite/bin/../lib/gcc/arm-none-eabi/4.5.1\libgcc.a
LOAD c:/program files/codesourcery/sourcery g++ lite/bin/../lib/gcc/arm-none-eabi/4.5.1/../../../../arm-none-eabi/lib\libc.a
END GROUP
LOAD c:/program files/codesourcery/sourcery g++ lite/bin/../lib/gcc/arm-none-eabi/4.5.1/crtend.o
LOAD c:/program files/codesourcery/sourcery g++ lite/bin/../lib/gcc/arm-none-eabi/4.5.1/crtn.o
                0x00002400                STACK_SIZE = 0x2400

.text           0x00000000    0x16cb8
 *(.boot)
 .boot          0x00000000      0x140 ../../hal/lpc2106-cmucam3\libhal-lpc2106-cmucam3.a(startup.o)
                0x00000000                _boot
                0x0000006c                _start
                0x0000006c                start
                0x0000006c                _mainCRTStartup
 *(.text .text.* .gnu.linkonce.t.*)
 .text          0x00000140       0x50 c:/program files/codesourcery/sourcery g++ lite/bin/../lib/gcc/arm-none-eabi/4.5.1/crtbegin.o
 .text.main     0x00000190      0x204 lpc2106-cmucam3_buildfiles/main.o
                0x00000190                main
 .text.jpeg_CreateCompress
                0x00000394      0x114 ../../lib/jpeg-6b\libjpeg-6b_lpc2106-cmucam3.a(jcapimin.o)
                0x00000394                jpeg_CreateCompress
 .text.jpeg_suppress_tables
                0x000004a8       0x94 ../../lib/jpeg-6b\libjpeg-6b_lpc2106-cmucam3.a(jcapimin.o)
                0x000004a8                jpeg_suppress_tables
 .text.jpeg_finish_compress
                0x0000053c      0x18c ../../lib/jpeg-6b\libjpeg-6b_lpc2106-cmucam3.a(jcapimin.o)
                0x0000053c                jpeg_finish_compress
 .text.jpeg_start_compress
                0x000006c8       0xb8 ../../lib/jpeg-6b\libjpeg-6b_lpc2106-cmucam3.a(jcapistd.o)
                0x000006c8                jpeg_start_compress
 .text.jpeg_write_scanlines
                0x00000780      0x114 ../../lib/jpeg-6b\libjpeg-6b_lpc2106-cmucam3.a(jcapistd.o)
                0x00000780                jpeg_write_scanlines
 .text.jinit_compress_master
                0x00000894      0x10c ../../lib/jpeg-6b\libjpeg-6b_lpc2106-cmucam3.a(jcinit.o)
                0x00000894                jinit_compress_master
 .text.start_pass_main
                0x000009a0       0x5c ../../lib/jpeg-6b\libjpeg-6b_lpc2106-cmucam3.a(jcmainct.o)
 .text.process_data_simple_main
                0x000009fc      0x114 ../../lib/jpeg-6b\libjpeg-6b_lpc2106-cmucam3.a(jcmainct.o)
 .text.jinit_c_main_controller
                0x00000b10       0xc4 ../../lib/jpeg-6b\libjpeg-6b_lpc2106-cmucam3.a(jcmainct.o)
                0x00000b10                jinit_c_main_controller
 .text.emit_byte
                0x00000bd4       0x68 ../../lib/jpeg-6b\libjpeg-6b_lpc2106-cmucam3.a(jcmarker.o)
 .text.emit_marker
                0x00000c3c       0x24 ../../lib/jpeg-6b\libjpeg-6b_lpc2106-cmucam3.a(jcmarker.o)
 .text.emit_2bytes
                0x00000c60       0x28 ../../lib/jpeg-6b\libjpeg-6b_lpc2106-cmucam3.a(jcmarker.o)
 .text.emit_dqt
                0x00000c88      0x164 ../../lib/jpeg-6b\libjpeg-6b_lpc2106-cmucam3.a(jcmarker.o)
 .text.emit_dht
                0x00000dec      0x24c ../../lib/jpeg-6b\libjpeg-6b_lpc2106-cmucam3.a(jcmarker.o)
 .text.emit_sof
                0x00001038       0xf8 ../../lib/jpeg-6b\libjpeg-6b_lpc2106-cmucam3.a(jcmarker.o)
 .text.write_marker_header
                0x00001130       0x54 ../../lib/jpeg-6b\libjpeg-6b_lpc2106-cmucam3.a(jcmarker.o)
 .text.write_marker_byte
                0x00001184        0x4 ../../lib/jpeg-6b\libjpeg-6b_lpc2106-cmucam3.a(jcmarker.o)
 .text.write_file_header
                0x00001188      0x1a4 ../../lib/jpeg-6b\libjpeg-6b_lpc2106-cmucam3.a(jcmarker.o)
 .text.write_frame_header
                0x0000132c      0x1a4 ../../lib/jpeg-6b\libjpeg-6b_lpc2106-cmucam3.a(jcmarker.o)
 .text.write_scan_header
                0x000014d0      0x1c4 ../../lib/jpeg-6b\libjpeg-6b_lpc2106-cmucam3.a(jcmarker.o)
 .text.write_file_trailer
                0x00001694        0x8 ../../lib/jpeg-6b\libjpeg-6b_lpc2106-cmucam3.a(jcmarker.o)
 .text.write_tables_only
                0x0000169c      0x138 ../../lib/jpeg-6b\libjpeg-6b_lpc2106-cmucam3.a(jcmarker.o)
 .text.jinit_marker_writer
                0x000017d4       0x88 ../../lib/jpeg-6b\libjpeg-6b_lpc2106-cmucam3.a(jcmarker.o)
                0x000017d4                jinit_marker_writer
 .text.pass_startup
                0x0000185c       0x40 ../../lib/jpeg-6b\libjpeg-6b_lpc2106-cmucam3.a(jcmaster.o)
 .text.finish_pass_master
                0x0000189c       0x8c ../../lib/jpeg-6b\libjpeg-6b_lpc2106-cmucam3.a(jcmaster.o)
 .text.per_scan_setup
                0x00001928      0x210 ../../lib/jpeg-6b\libjpeg-6b_lpc2106-cmucam3.a(jcmaster.o)
 .text.prepare_for_pass
                0x00001b38      0x364 ../../lib/jpeg-6b\libjpeg-6b_lpc2106-cmucam3.a(jcmaster.o)
 .text.jinit_c_master_control
                0x00001e9c      0x350 ../../lib/jpeg-6b\libjpeg-6b_lpc2106-cmucam3.a(jcmaster.o)
                0x00001e9c                jinit_c_master_control
 .text.jpeg_abort
                0x000021ec       0x4c ../../lib/jpeg-6b\libjpeg-6b_lpc2106-cmucam3.a(jcomapi.o)
                0x000021ec                jpeg_abort
 .text.jpeg_destroy
                0x00002238       0x30 ../../lib/jpeg-6b\libjpeg-6b_lpc2106-cmucam3.a(jcomapi.o)
                0x00002238                jpeg_destroy
 .text.jpeg_alloc_quant_table
                0x00002268       0x2c ../../lib/jpeg-6b\libjpeg-6b_lpc2106-cmucam3.a(jcomapi.o)
                0x00002268                jpeg_alloc_quant_table
 .text.jpeg_alloc_huff_table
                0x00002294       0x2c ../../lib/jpeg-6b\libjpeg-6b_lpc2106-cmucam3.a(jcomapi.o)
                0x00002294                jpeg_alloc_huff_table
 .text.add_huff_table
                0x000022c0      0x10c ../../lib/jpeg-6b\libjpeg-6b_lpc2106-cmucam3.a(jcparam.o)
 .text.jpeg_add_quant_table
                0x000023cc      0x19c ../../lib/jpeg-6b\libjpeg-6b_lpc2106-cmucam3.a(jcparam.o)
                0x000023cc                jpeg_add_quant_table
 .text.jpeg_set_linear_quality
                0x00002568       0x54 ../../lib/jpeg-6b\libjpeg-6b_lpc2106-cmucam3.a(jcparam.o)
                0x00002568                jpeg_set_linear_quality
 .text.jpeg_set_quality
                0x000025bc       0x60 ../../lib/jpeg-6b\libjpeg-6b_lpc2106-cmucam3.a(jcparam.o)
                0x000025bc                jpeg_set_quality
 .text.jpeg_set_colorspace
                0x0000261c      0x3bc ../../lib/jpeg-6b\libjpeg-6b_lpc2106-cmucam3.a(jcparam.o)
                0x0000261c                jpeg_set_colorspace
 .text.jpeg_default_colorspace
                0x000029d8       0x88 ../../lib/jpeg-6b\libjpeg-6b_lpc2106-cmucam3.a(jcparam.o)
                0x000029d8                jpeg_default_colorspace
 .text.jpeg_set_defaults
                0x00002a60      0x210 ../../lib/jpeg-6b\libjpeg-6b_lpc2106-cmucam3.a(jcparam.o)
                0x00002a60                jpeg_set_defaults
 .text.start_pass_prep
                0x00002c70       0x40 ../../lib/jpeg-6b\libjpeg-6b_lpc2106-cmucam3.a(jcprepct.o)
 .text.expand_bottom_edge
                0x00002cb0       0xcc ../../lib/jpeg-6b\libjpeg-6b_lpc2106-cmucam3.a(jcprepct.o)
 .text.pre_process_data
                0x00002d7c      0x1e0 ../../lib/jpeg-6b\libjpeg-6b_lpc2106-cmucam3.a(jcprepct.o)
 .text.jinit_c_prep_controller
                0x00002f5c      0x100 ../../lib/jpeg-6b\libjpeg-6b_lpc2106-cmucam3.a(jcprepct.o)
                0x00002f5c                jinit_c_prep_controller
 .text.start_pass_downsample
                0x0000305c        0x4 ../../lib/jpeg-6b\libjpeg-6b_lpc2106-cmucam3.a(jcsample.o)
 .text.expand_right_edge
                0x00003060       0x8c ../../lib/jpeg-6b\libjpeg-6b_lpc2106-cmucam3.a(jcsample.o)
 .text.sep_downsample
                0x000030ec       0x7c ../../lib/jpeg-6b\libjpeg-6b_lpc2106-cmucam3.a(jcsample.o)
 .text.int_downsample
                0x00003168      0x1a8 ../../lib/jpeg-6b\libjpeg-6b_lpc2106-cmucam3.a(jcsample.o)
 .text.h2v1_downsample
                0x00003310      0x11c ../../lib/jpeg-6b\libjpeg-6b_lpc2106-cmucam3.a(jcsample.o)
 .text.h2v2_downsample
                0x0000342c      0x194 ../../lib/jpeg-6b\libjpeg-6b_lpc2106-cmucam3.a(jcsample.o)
 .text.fullsize_downsample
                0x000035c0       0x58 ../../lib/jpeg-6b\libjpeg-6b_lpc2106-cmucam3.a(jcsample.o)
 .text.jinit_downsampler
                0x00003618      0x174 ../../lib/jpeg-6b\libjpeg-6b_lpc2106-cmucam3.a(jcsample.o)
                0x00003618                jinit_downsampler
 .text.init_destination
                0x0000378c       0x34 ../../lib/jpeg-6b\libjpeg-6b_lpc2106-cmucam3.a(jdatadst.o)
 .text.empty_output_buffer
                0x000037c0       0x60 ../../lib/jpeg-6b\libjpeg-6b_lpc2106-cmucam3.a(jdatadst.o)
 .text.term_destination
                0x00003820       0x90 ../../lib/jpeg-6b\libjpeg-6b_lpc2106-cmucam3.a(jdatadst.o)
 .text.jpeg_stdio_dest
                0x000038b0       0x6c ../../lib/jpeg-6b\libjpeg-6b_lpc2106-cmucam3.a(jdatadst.o)
                0x000038b0                jpeg_stdio_dest
 .text.emit_message
                0x0000391c       0x70 ../../lib/jpeg-6b\libjpeg-6b_lpc2106-cmucam3.a(jerror.o)
 .text.reset_error_mgr
                0x0000398c       0x14 ../../lib/jpeg-6b\libjpeg-6b_lpc2106-cmucam3.a(jerror.o)
 .text.format_message
                0x000039a0       0xec ../../lib/jpeg-6b\libjpeg-6b_lpc2106-cmucam3.a(jerror.o)
 .text.output_message
                0x00003a8c       0x48 ../../lib/jpeg-6b\libjpeg-6b_lpc2106-cmucam3.a(jerror.o)
 .text.error_exit
                0x00003ad4       0x28 ../../lib/jpeg-6b\libjpeg-6b_lpc2106-cmucam3.a(jerror.o)
 .text.jpeg_std_error
                0x00003afc       0x70 ../../lib/jpeg-6b\libjpeg-6b_lpc2106-cmucam3.a(jerror.o)
                0x00003afc                jpeg_std_error
 .text.jdiv_round_up
                0x00003b6c       0x18 ../../lib/jpeg-6b\libjpeg-6b_lpc2106-cmucam3.a(jutils.o)
                0x00003b6c                jdiv_round_up
 .text.jcopy_sample_rows
                0x00003b84       0xa4 ../../lib/jpeg-6b\libjpeg-6b_lpc2106-cmucam3.a(jutils.o)
                0x00003b84                jcopy_sample_rows
 .text.jzero_far
                0x00003c28       0x18 ../../lib/jpeg-6b\libjpeg-6b_lpc2106-cmucam3.a(jutils.o)
                0x00003c28                jzero_far
 .text.do_sarray_io
                0x00003c40      0x140 ../../lib/jpeg-6b\libjpeg-6b_lpc2106-cmucam3.a(jmemmgr.o)
 .text.do_barray_io
                0x00003d80      0x144 ../../lib/jpeg-6b\libjpeg-6b_lpc2106-cmucam3.a(jmemmgr.o)
 .text.alloc_small
                0x00003ec4      0x1c4 ../../lib/jpeg-6b\libjpeg-6b_lpc2106-cmucam3.a(jmemmgr.o)
 .text.request_virt_barray
                0x00004088       0x88 ../../lib/jpeg-6b\libjpeg-6b_lpc2106-cmucam3.a(jmemmgr.o)
 .text.request_virt_sarray
                0x00004110       0x88 ../../lib/jpeg-6b\libjpeg-6b_lpc2106-cmucam3.a(jmemmgr.o)
 .text.free_pool
                0x00004198      0x1a4 ../../lib/jpeg-6b\libjpeg-6b_lpc2106-cmucam3.a(jmemmgr.o)
 .text.self_destruct
                0x0000433c       0x44 ../../lib/jpeg-6b\libjpeg-6b_lpc2106-cmucam3.a(jmemmgr.o)
 .text.access_virt_barray
                0x00004380      0x270 ../../lib/jpeg-6b\libjpeg-6b_lpc2106-cmucam3.a(jmemmgr.o)
 .text.access_virt_sarray
                0x000045f0      0x26c ../../lib/jpeg-6b\libjpeg-6b_lpc2106-cmucam3.a(jmemmgr.o)
 .text.alloc_large
                0x0000485c       0xf8 ../../lib/jpeg-6b\libjpeg-6b_lpc2106-cmucam3.a(jmemmgr.o)
 .text.alloc_barray
                0x00004954      0x128 ../../lib/jpeg-6b\libjpeg-6b_lpc2106-cmucam3.a(jmemmgr.o)
 .text.alloc_sarray
                0x00004a7c      0x128 ../../lib/jpeg-6b\libjpeg-6b_lpc2106-cmucam3.a(jmemmgr.o)
 .text.realize_virt_arrays
                0x00004ba4      0x258 ../../lib/jpeg-6b\libjpeg-6b_lpc2106-cmucam3.a(jmemmgr.o)
 .text.jinit_memory_mgr
                0x00004dfc      0x11c ../../lib/jpeg-6b\libjpeg-6b_lpc2106-cmucam3.a(jmemmgr.o)
                0x00004dfc                jinit_memory_mgr
 .text.jpeg_get_small
                0x00004f18       0x14 ../../lib/jpeg-6b\libjpeg-6b_lpc2106-cmucam3.a(jmemnobs.o)
                0x00004f18                jpeg_get_small
 .text.jpeg_free_small
                0x00004f2c       0x14 ../../lib/jpeg-6b\libjpeg-6b_lpc2106-cmucam3.a(jmemnobs.o)
                0x00004f2c                jpeg_free_small
 .text.jpeg_get_large
                0x00004f40       0x14 ../../lib/jpeg-6b\libjpeg-6b_lpc2106-cmucam3.a(jmemnobs.o)
                0x00004f40                jpeg_get_large
 .text.jpeg_free_large
                0x00004f54       0x14 ../../lib/jpeg-6b\libjpeg-6b_lpc2106-cmucam3.a(jmemnobs.o)
                0x00004f54                jpeg_free_large
 .text.jpeg_mem_available
                0x00004f68        0x8 ../../lib/jpeg-6b\libjpeg-6b_lpc2106-cmucam3.a(jmemnobs.o)
                0x00004f68                jpeg_mem_available
 .text.jpeg_open_backing_store
                0x00004f70       0x24 ../../lib/jpeg-6b\libjpeg-6b_lpc2106-cmucam3.a(jmemnobs.o)
                0x00004f70                jpeg_open_backing_store
 .text.jpeg_mem_init
                0x00004f94        0x8 ../../lib/jpeg-6b\libjpeg-6b_lpc2106-cmucam3.a(jmemnobs.o)
                0x00004f94                jpeg_mem_init
 .text.jpeg_mem_term
                0x00004f9c        0x4 ../../lib/jpeg-6b\libjpeg-6b_lpc2106-cmucam3.a(jmemnobs.o)
                0x00004f9c                jpeg_mem_term
 .text.start_pass_coef
                0x00004fa0       0xa4 ../../lib/jpeg-6b\libjpeg-6b_lpc2106-cmucam3.a(jccoefct.o)
 .text.compress_data
                0x00005044      0x380 ../../lib/jpeg-6b\libjpeg-6b_lpc2106-cmucam3.a(jccoefct.o)
 .text.jinit_c_coef_controller
                0x000053c4       0xd4 ../../lib/jpeg-6b\libjpeg-6b_lpc2106-cmucam3.a(jccoefct.o)
                0x000053c4                jinit_c_coef_controller
 .text.rgb_ycc_start
                0x00005498      0x21c ../../lib/jpeg-6b\libjpeg-6b_lpc2106-cmucam3.a(jccolor.o)
 .text.rgb_ycc_convert
                0x000056b4      0x2d0 ../../lib/jpeg-6b\libjpeg-6b_lpc2106-cmucam3.a(jccolor.o)
 .text.rgb_gray_convert
                0x00005984      0x150 ../../lib/jpeg-6b\libjpeg-6b_lpc2106-cmucam3.a(jccolor.o)
 .text.cmyk_ycck_convert
                0x00005ad4      0x148 ../../lib/jpeg-6b\libjpeg-6b_lpc2106-cmucam3.a(jccolor.o)
 .text.grayscale_convert
                0x00005c1c       0xac ../../lib/jpeg-6b\libjpeg-6b_lpc2106-cmucam3.a(jccolor.o)
 .text.null_convert
                0x00005cc8       0xe4 ../../lib/jpeg-6b\libjpeg-6b_lpc2106-cmucam3.a(jccolor.o)
 .text.null_method
                0x00005dac        0x4 ../../lib/jpeg-6b\libjpeg-6b_lpc2106-cmucam3.a(jccolor.o)
 .text.jinit_color_converter
                0x00005db0      0x308 ../../lib/jpeg-6b\libjpeg-6b_lpc2106-cmucam3.a(jccolor.o)
                0x00005db0                jinit_color_converter
 .text.start_pass_fdctmgr
                0x000060b8      0x144 ../../lib/jpeg-6b\libjpeg-6b_lpc2106-cmucam3.a(jcdctmgr.o)
 .text.forward_DCT
                0x000061fc      0x4c0 ../../lib/jpeg-6b\libjpeg-6b_lpc2106-cmucam3.a(jcdctmgr.o)
 .text.jinit_forward_dct
                0x000066bc       0x94 ../../lib/jpeg-6b\libjpeg-6b_lpc2106-cmucam3.a(jcdctmgr.o)
                0x000066bc                jinit_forward_dct
 .text.finish_pass_huff
                0x00006750      0x28c ../../lib/jpeg-6b\libjpeg-6b_lpc2106-cmucam3.a(jchuff.o)
 .text.encode_mcu_huff
                0x000069dc     0x1288 ../../lib/jpeg-6b\libjpeg-6b_lpc2106-cmucam3.a(jchuff.o)
 .text.jpeg_make_c_derived_tbl
                0x00007c64      0x430 ../../lib/jpeg-6b\libjpeg-6b_lpc2106-cmucam3.a(jchuff.o)
                0x00007c64                jpeg_make_c_derived_tbl
 .text.start_pass_huff
                0x00008094       0xdc ../../lib/jpeg-6b\libjpeg-6b_lpc2106-cmucam3.a(jchuff.o)
 .text.jinit_huff_encoder
                0x00008170       0x5c ../../lib/jpeg-6b\libjpeg-6b_lpc2106-cmucam3.a(jchuff.o)
                0x00008170                jinit_huff_encoder
 .text.jpeg_fdct_islow
                0x000081cc      0x6cc ../../lib/jpeg-6b\libjpeg-6b_lpc2106-cmucam3.a(jfdctint.o)
                0x000081cc                jpeg_fdct_islow
 .text.panic_blink
                0x00008898       0x6c ../../hal/lpc2106-cmucam3\libhal-lpc2106-cmucam3.a(interrupt.o)
 .text.enable_ext_interrupt
                0x00008904       0x20 ../../hal/lpc2106-cmucam3\libhal-lpc2106-cmucam3.a(interrupt.o)
                0x00008904                enable_ext_interrupt
 .text.enable_button_interrupt
                0x00008924       0x28 ../../hal/lpc2106-cmucam3\libhal-lpc2106-cmucam3.a(interrupt.o)
                0x00008924                enable_button_interrupt
 .text.disable_button_interrupt
                0x0000894c       0x30 ../../hal/lpc2106-cmucam3\libhal-lpc2106-cmucam3.a(interrupt.o)
                0x0000894c                disable_button_interrupt
 .text.interrupt
                0x0000897c       0xc0 ../../hal/lpc2106-cmucam3\libhal-lpc2106-cmucam3.a(interrupt.o)
                0x0000897c                interrupt
 .text.swi      0x00008a3c       0x18 ../../hal/lpc2106-cmucam3\libhal-lpc2106-cmucam3.a(interrupt.o)
                0x00008a3c                swi
 .text.undefined
                0x00008a54        0x8 ../../hal/lpc2106-cmucam3\libhal-lpc2106-cmucam3.a(interrupt.o)
                0x00008a54                undefined
 .text.prefetch_abort
                0x00008a5c       0x28 ../../hal/lpc2106-cmucam3\libhal-lpc2106-cmucam3.a(interrupt.o)
                0x00008a5c                prefetch_abort
 .text.data_abort
                0x00008a84       0x28 ../../hal/lpc2106-cmucam3\libhal-lpc2106-cmucam3.a(interrupt.o)
                0x00008a84                data_abort
 .text._cc3_set_cam_ddr_sccb_write
                0x00008aac       0x24 ../../hal/lpc2106-cmucam3\libhal-lpc2106-cmucam3.a(cc3.o)
 .text._cc3_set_cam_ddr_sccb_idle
                0x00008ad0       0x24 ../../hal/lpc2106-cmucam3\libhal-lpc2106-cmucam3.a(cc3.o)
 .text.cc3_pixbuf_rewind
                0x00008af4       0xec ../../hal/lpc2106-cmucam3\libhal-lpc2106-cmucam3.a(cc3.o)
                0x00008af4                cc3_pixbuf_rewind
 .text.cc3_pixbuf_load
                0x00008be0       0x9c ../../hal/lpc2106-cmucam3\libhal-lpc2106-cmucam3.a(cc3.o)
                0x00008be0                cc3_pixbuf_load
 .text.cc3_malloc_rows
                0x00008c7c       0x28 ../../hal/lpc2106-cmucam3\libhal-lpc2106-cmucam3.a(cc3.o)
                0x00008c7c                cc3_malloc_rows
 .text.cc3_pixbuf_read_rows
                0x00008ca4      0x970 ../../hal/lpc2106-cmucam3\libhal-lpc2106-cmucam3.a(cc3.o)
                0x00008ca4                cc3_pixbuf_read_rows
 .text.cc3_timer_wait_ms
                0x00009614       0x20 ../../hal/lpc2106-cmucam3\libhal-lpc2106-cmucam3.a(cc3.o)
                0x00009614                cc3_timer_wait_ms
 .text.cc3_timer_get_current_ms
                0x00009634       0x10 ../../hal/lpc2106-cmucam3\libhal-lpc2106-cmucam3.a(cc3.o)
                0x00009634                cc3_timer_get_current_ms
 .text.cc3_pixbuf_frame_reset
                0x00009644       0x5c ../../hal/lpc2106-cmucam3\libhal-lpc2106-cmucam3.a(cc3.o)
                0x00009644                cc3_pixbuf_frame_reset
 .text.cc3_camera_set_raw_register
                0x000096a0      0x164 ../../hal/lpc2106-cmucam3\libhal-lpc2106-cmucam3.a(cc3.o)
                0x000096a0                cc3_camera_set_raw_register
 .text._cc3_set_register_state
                0x00009804      0x140 ../../hal/lpc2106-cmucam3\libhal-lpc2106-cmucam3.a(cc3.o)
 .text.cc3_camera_init
                0x00009944       0x88 ../../hal/lpc2106-cmucam3\libhal-lpc2106-cmucam3.a(cc3.o)
                0x00009944                cc3_camera_init
 .text.cc3_camera_set_resolution
                0x000099cc       0x10 ../../hal/lpc2106-cmucam3\libhal-lpc2106-cmucam3.a(cc3.o)
                0x000099cc                cc3_camera_set_resolution
 .text._cc3_system_setup
                0x000099dc       0xa8 ../../hal/lpc2106-cmucam3\libhal-lpc2106-cmucam3.a(cc3_hal.o)
                0x000099dc                _cc3_system_setup
 .text._cc3_delay_us_4
                0x00009a84       0x60 ../../hal/lpc2106-cmucam3\libhal-lpc2106-cmucam3.a(cc3_hal.o)
                0x00009a84                _cc3_delay_us_4
 .text._cc3_fifo_reset
                0x00009ae4       0x60 ../../hal/lpc2106-cmucam3\libhal-lpc2106-cmucam3.a(cc3_hal.o)
                0x00009ae4                _cc3_fifo_reset
 .text._cc3_camera_reset
                0x00009b44       0x38 ../../hal/lpc2106-cmucam3\libhal-lpc2106-cmucam3.a(cc3_hal.o)
                0x00009b44                _cc3_camera_reset
 .text._cc3_delay_sccb
                0x00009b7c       0x38 ../../hal/lpc2106-cmucam3\libhal-lpc2106-cmucam3.a(cc3_hal.o)
                0x00009b7c                _cc3_delay_sccb
 .text._cc3_pixbuf_write_rewind
                0x00009bb4       0x30 ../../hal/lpc2106-cmucam3\libhal-lpc2106-cmucam3.a(cc3_hal.o)
                0x00009bb4                _cc3_pixbuf_write_rewind
 .text.normalize_filename
                0x00009be4       0x60 ../../hal/lpc2106-cmucam3\libhal-lpc2106-cmucam3.a(syscalls.o)
 .text._write   0x00009c44       0x58 ../../hal/lpc2106-cmucam3\libhal-lpc2106-cmucam3.a(syscalls.o)
                0x00009c44                _write
 .text._read    0x00009c9c       0x58 ../../hal/lpc2106-cmucam3\libhal-lpc2106-cmucam3.a(syscalls.o)
                0x00009c9c                _read
 .text._exit    0x00009cf4        0x4 ../../hal/lpc2106-cmucam3\libhal-lpc2106-cmucam3.a(syscalls.o)
                0x00009cf4                _exit
 .text._close   0x00009cf8       0x48 ../../hal/lpc2106-cmucam3\libhal-lpc2106-cmucam3.a(syscalls.o)
                0x00009cf8                _close
 .text._lseek   0x00009d40       0x58 ../../hal/lpc2106-cmucam3\libhal-lpc2106-cmucam3.a(syscalls.o)
                0x00009d40                _lseek
 .text._fstat   0x00009d98       0x50 ../../hal/lpc2106-cmucam3\libhal-lpc2106-cmucam3.a(syscalls.o)
                0x00009d98                _fstat
 .text._isatty  0x00009de8       0x2c ../../hal/lpc2106-cmucam3\libhal-lpc2106-cmucam3.a(syscalls.o)
                0x00009de8                _isatty
 .text._open    0x00009e14       0x8c ../../hal/lpc2106-cmucam3\libhal-lpc2106-cmucam3.a(syscalls.o)
                0x00009e14                _open
 .text._gettimeofday
                0x00009ea0        0x8 ../../hal/lpc2106-cmucam3\libhal-lpc2106-cmucam3.a(syscalls.o)
                0x00009ea0                _gettimeofday
 .text._sbrk    0x00009ea8       0x4c ../../hal/lpc2106-cmucam3\libhal-lpc2106-cmucam3.a(syscalls.o)
                0x00009ea8                _sbrk
 .text._cc3_uart0_setup
                0x00009ef4       0x60 ../../hal/lpc2106-cmucam3\libhal-lpc2106-cmucam3.a(serial.o)
                0x00009ef4                _cc3_uart0_setup
 .text._cc3_uart1_setup
                0x00009f54       0x60 ../../hal/lpc2106-cmucam3\libhal-lpc2106-cmucam3.a(serial.o)
                0x00009f54                _cc3_uart1_setup
 .text.cc3_uart_get_count
                0x00009fb4        0x8 ../../hal/lpc2106-cmucam3\libhal-lpc2106-cmucam3.a(serial.o)
                0x00009fb4                cc3_uart_get_count
 .text.cc3_uart_init
                0x00009fbc       0xe8 ../../hal/lpc2106-cmucam3\libhal-lpc2106-cmucam3.a(serial.o)
                0x00009fbc                cc3_uart_init
 .text.uart0_putc
                0x0000a0a4       0x20 ../../hal/lpc2106-cmucam3\libhal-lpc2106-cmucam3.a(serial.o)
                0x0000a0a4                uart0_putc
 .text.uart1_putc
                0x0000a0c4       0x20 ../../hal/lpc2106-cmucam3\libhal-lpc2106-cmucam3.a(serial.o)
                0x0000a0c4                uart1_putc
 .text.uart0_getc
                0x0000a0e4       0x20 ../../hal/lpc2106-cmucam3\libhal-lpc2106-cmucam3.a(serial.o)
                0x0000a0e4                uart0_getc
 .text.uart1_getc
                0x0000a104       0x20 ../../hal/lpc2106-cmucam3\libhal-lpc2106-cmucam3.a(serial.o)
                0x0000a104                uart1_getc
 .text.uart0_write
                0x0000a124       0x34 ../../hal/lpc2106-cmucam3\libhal-lpc2106-cmucam3.a(serial.o)
                0x0000a124                uart0_write
 .text.uart0_write_hex
                0x0000a158      0x158 ../../hal/lpc2106-cmucam3\libhal-lpc2106-cmucam3.a(serial.o)
                0x0000a158                uart0_write_hex
 .text._cc3_servo_int
                0x0000a2b0      0x1c8 ../../hal/lpc2106-cmucam3\libhal-lpc2106-cmucam3.a(servo.o)
                0x0000a2b0                _cc3_servo_int
 .text.name_extension_to_spec
                0x0000a478       0xd4 ../../hal/lpc2106-cmucam3\libhal-lpc2106-cmucam3.a(rdcf2.o)
 .text.rdcf_get_date_and_time
                0x0000a54c       0xa8 ../../hal/lpc2106-cmucam3\libhal-lpc2106-cmucam3.a(rdcf2.o)
 .text.check_cluster
                0x0000a5f4       0x30 ../../hal/lpc2106-cmucam3\libhal-lpc2106-cmucam3.a(rdcf2.o)
 .text.first_sector_in_cluster
                0x0000a624       0x28 ../../hal/lpc2106-cmucam3\libhal-lpc2106-cmucam3.a(rdcf2.o)
 .text.check_file_character
                0x0000a64c       0x34 ../../hal/lpc2106-cmucam3\libhal-lpc2106-cmucam3.a(rdcf2.o)
 .text.spec_to_name_extension
                0x0000a680      0x1b4 ../../hal/lpc2106-cmucam3\libhal-lpc2106-cmucam3.a(rdcf2.o)
 .text.write_sector
                0x0000a834       0x40 ../../hal/lpc2106-cmucam3\libhal-lpc2106-cmucam3.a(rdcf2.o)
 .text.flush_buffer
                0x0000a874       0x6c ../../hal/lpc2106-cmucam3\libhal-lpc2106-cmucam3.a(rdcf2.o)
 .text.read_buffer
                0x0000a8e0       0x70 ../../hal/lpc2106-cmucam3\libhal-lpc2106-cmucam3.a(rdcf2.o)
 .text.find_directory
                0x0000a950       0x50 ../../hal/lpc2106-cmucam3\libhal-lpc2106-cmucam3.a(rdcf2.o)
 .text.update_directory_entry
                0x0000a9a0       0xdc ../../hal/lpc2106-cmucam3\libhal-lpc2106-cmucam3.a(rdcf2.o)
 .text.set_FAT_entry
                0x0000aa7c       0xe8 ../../hal/lpc2106-cmucam3\libhal-lpc2106-cmucam3.a(rdcf2.o)
 .text.FAT_entry
                0x0000ab64       0x98 ../../hal/lpc2106-cmucam3\libhal-lpc2106-cmucam3.a(rdcf2.o)
 .text.add_new_cluster
                0x0000abfc       0xac ../../hal/lpc2106-cmucam3\libhal-lpc2106-cmucam3.a(rdcf2.o)
 .text.release_FAT_entries
                0x0000aca8       0x98 ../../hal/lpc2106-cmucam3\libhal-lpc2106-cmucam3.a(rdcf2.o)
 .text.check_write_access
                0x0000ad40       0x24 ../../hal/lpc2106-cmucam3\libhal-lpc2106-cmucam3.a(rdcf2.o)
 .text.find_file_in_directory_or_find_volume
                0x0000ad64      0x240 ../../hal/lpc2106-cmucam3\libhal-lpc2106-cmucam3.a(rdcf2.o)
 .text.find_file
                0x0000afa4       0x88 ../../hal/lpc2106-cmucam3\libhal-lpc2106-cmucam3.a(rdcf2.o)
 .text.rdcf_close
                0x0000b02c       0x9c ../../hal/lpc2106-cmucam3\libhal-lpc2106-cmucam3.a(rdcf2.o)
                0x0000b02c                rdcf_close
 .text.rdcf_delete
                0x0000b0c8      0x354 ../../hal/lpc2106-cmucam3\libhal-lpc2106-cmucam3.a(rdcf2.o)
                0x0000b0c8                rdcf_delete
 .text.rdcf_rename
                0x0000b41c      0x17c ../../hal/lpc2106-cmucam3\libhal-lpc2106-cmucam3.a(rdcf2.o)
                0x0000b41c                rdcf_rename
 .text.rdcf_read
                0x0000b598      0x234 ../../hal/lpc2106-cmucam3\libhal-lpc2106-cmucam3.a(rdcf2.o)
                0x0000b598                rdcf_read
 .text.rdcf_seek
                0x0000b7cc      0x140 ../../hal/lpc2106-cmucam3\libhal-lpc2106-cmucam3.a(rdcf2.o)
                0x0000b7cc                rdcf_seek
 .text.real_rdcf_write
                0x0000b90c      0x2cc ../../hal/lpc2106-cmucam3\libhal-lpc2106-cmucam3.a(rdcf2.o)
 .text.rdcf_open
                0x0000bbd8      0x364 ../../hal/lpc2106-cmucam3\libhal-lpc2106-cmucam3.a(rdcf2.o)
                0x0000bbd8                rdcf_open
 .text.rdcf_write
                0x0000bf3c       0x2c ../../hal/lpc2106-cmucam3\libhal-lpc2106-cmucam3.a(rdcf2.o)
                0x0000bf3c                rdcf_write
 .text.mmcStatus
                0x0000bf68       0x60 ../../hal/lpc2106-cmucam3\libhal-lpc2106-cmucam3.a(mmc_hardware.o)
 .text.selectMMC
                0x0000bfc8       0x2c ../../hal/lpc2106-cmucam3\libhal-lpc2106-cmucam3.a(mmc_hardware.o)
 .text.unselectMMC
                0x0000bff4       0x3c ../../hal/lpc2106-cmucam3\libhal-lpc2106-cmucam3.a(mmc_hardware.o)
 .text._cc3_mmc_block_read
                0x0000c030      0x178 ../../hal/lpc2106-cmucam3\libhal-lpc2106-cmucam3.a(mmc_hardware.o)
                0x0000c030                _cc3_mmc_block_read
 .text._cc3_mmc_block_write
                0x0000c1a8      0x1f8 ../../hal/lpc2106-cmucam3\libhal-lpc2106-cmucam3.a(mmc_hardware.o)
                0x0000c1a8                _cc3_mmc_block_write
 .text._cc3_mmc_init
                0x0000c3a0      0x35c ../../hal/lpc2106-cmucam3\libhal-lpc2106-cmucam3.a(mmc_hardware.o)
                0x0000c3a0                _cc3_mmc_init
 .text._cc3_mmc_idle
                0x0000c6fc       0x18 ../../hal/lpc2106-cmucam3\libhal-lpc2106-cmucam3.a(mmc_hardware.o)
                0x0000c6fc                _cc3_mmc_idle
 .text.mmc_recognize
                0x0000c714       0x38 ../../hal/lpc2106-cmucam3\libhal-lpc2106-cmucam3.a(mmc_driver.o)
 .text.mmc_fstat
                0x0000c74c       0x18 ../../hal/lpc2106-cmucam3\libhal-lpc2106-cmucam3.a(mmc_driver.o)
 .text.allocate_1_fcb
                0x0000c764       0x34 ../../hal/lpc2106-cmucam3\libhal-lpc2106-cmucam3.a(mmc_driver.o)
 .text.mmc_rename
                0x0000c798       0xa0 ../../hal/lpc2106-cmucam3\libhal-lpc2106-cmucam3.a(mmc_driver.o)
 .text.mmc_unlink
                0x0000c838       0x98 ../../hal/lpc2106-cmucam3\libhal-lpc2106-cmucam3.a(mmc_driver.o)
 .text.mmc_lseek
                0x0000c8d0       0xd0 ../../hal/lpc2106-cmucam3\libhal-lpc2106-cmucam3.a(mmc_driver.o)
 .text.mmc_write
                0x0000c9a0       0x8c ../../hal/lpc2106-cmucam3\libhal-lpc2106-cmucam3.a(mmc_driver.o)
 .text.mmc_read
                0x0000ca2c       0x8c ../../hal/lpc2106-cmucam3\libhal-lpc2106-cmucam3.a(mmc_driver.o)
 .text.mmc_close
                0x0000cab8       0xcc ../../hal/lpc2106-cmucam3\libhal-lpc2106-cmucam3.a(mmc_driver.o)
 .text.mmc_open
                0x0000cb84      0x120 ../../hal/lpc2106-cmucam3\libhal-lpc2106-cmucam3.a(mmc_driver.o)
 .text.cc3_filesystem_init
                0x0000cca4       0x18 ../../hal/lpc2106-cmucam3\libhal-lpc2106-cmucam3.a(devices.o)
                0x0000cca4                cc3_filesystem_init
 .text._cc3_get_driver_for_name
                0x0000ccbc       0x60 ../../hal/lpc2106-cmucam3\libhal-lpc2106-cmucam3.a(devices.o)
                0x0000ccbc                _cc3_get_driver_for_name
 .text._cc3_get_internal_file_number
                0x0000cd1c        0x8 ../../hal/lpc2106-cmucam3\libhal-lpc2106-cmucam3.a(devices.o)
                0x0000cd1c                _cc3_get_internal_file_number
 .text._cc3_get_driver_for_file_number
                0x0000cd24       0x20 ../../hal/lpc2106-cmucam3\libhal-lpc2106-cmucam3.a(devices.o)
                0x0000cd24                _cc3_get_driver_for_file_number
 .text._cc3_make_file_number
                0x0000cd44       0x14 ../../hal/lpc2106-cmucam3\libhal-lpc2106-cmucam3.a(devices.o)
                0x0000cd44                _cc3_make_file_number
 .text.uart_close
                0x0000cd58        0x8 ../../hal/lpc2106-cmucam3\libhal-lpc2106-cmucam3.a(uart_driver.o)
 .text.uart_read
                0x0000cd60      0x1ac ../../hal/lpc2106-cmucam3\libhal-lpc2106-cmucam3.a(uart_driver.o)
 .text.uart_write
                0x0000cf0c      0x1b4 ../../hal/lpc2106-cmucam3\libhal-lpc2106-cmucam3.a(uart_driver.o)
 .text.uart_lseek
                0x0000d0c0       0x18 ../../hal/lpc2106-cmucam3\libhal-lpc2106-cmucam3.a(uart_driver.o)
 .text.uart_fstat
                0x0000d0d8       0x10 ../../hal/lpc2106-cmucam3\libhal-lpc2106-cmucam3.a(uart_driver.o)
 .text.uart_unlink
                0x0000d0e8       0x18 ../../hal/lpc2106-cmucam3\libhal-lpc2106-cmucam3.a(uart_driver.o)
 .text.uart_rename
                0x0000d100       0x18 ../../hal/lpc2106-cmucam3\libhal-lpc2106-cmucam3.a(uart_driver.o)
 .text.process_uart_filename
                0x0000d118       0x6c ../../hal/lpc2106-cmucam3\libhal-lpc2106-cmucam3.a(uart_driver.o)
 .text.uart_open
                0x0000d184       0x40 ../../hal/lpc2106-cmucam3\libhal-lpc2106-cmucam3.a(uart_driver.o)
 .text.uart_recognize
                0x0000d1c4       0x18 ../../hal/lpc2106-cmucam3\libhal-lpc2106-cmucam3.a(uart_driver.o)
 .text          0x0000d1dc      0x114 c:/program files/codesourcery/sourcery g++ lite/bin/../lib/gcc/arm-none-eabi/4.5.1\libgcc.a(_udivsi3.o)
                0x0000d1dc                __aeabi_uidiv
                0x0000d1dc                __udivsi3
                0x0000d2d0                __aeabi_uidivmod
 .text          0x0000d2f0      0x148 c:/program files/codesourcery/sourcery g++ lite/bin/../lib/gcc/arm-none-eabi/4.5.1\libgcc.a(_divsi3.o)
                0x0000d2f0                __divsi3
                0x0000d2f0                __aeabi_idiv
                0x0000d418                __aeabi_idivmod
 .text          0x0000d438        0x4 c:/program files/codesourcery/sourcery g++ lite/bin/../lib/gcc/arm-none-eabi/4.5.1\libgcc.a(_dvmd_tls.o)
                0x0000d438                __aeabi_idiv0
                0x0000d438                __aeabi_ldiv0
 .text          0x0000d43c       0x28 c:/program files/codesourcery/sourcery g++ lite/bin/../lib/gcc/arm-none-eabi/4.5.1/../../../../arm-none-eabi/lib\libc.a(lib_a-calloc.o)
                0x0000d43c                calloc
 .text          0x0000d464       0x9c c:/program files/codesourcery/sourcery g++ lite/bin/../lib/gcc/arm-none-eabi/4.5.1/../../../../arm-none-eabi/lib\libc.a(lib_a-callocr.o)
                0x0000d464                _calloc_r
 .text          0x0000d500       0x34 c:/program files/codesourcery/sourcery g++ lite/bin/../lib/gcc/arm-none-eabi/4.5.1/../../../../arm-none-eabi/lib\libc.a(lib_a-exit.o)
                0x0000d500                exit
 .text          0x0000d534      0x10c c:/program files/codesourcery/sourcery g++ lite/bin/../lib/gcc/arm-none-eabi/4.5.1/../../../../arm-none-eabi/lib\libc.a(lib_a-fclose.o)
                0x0000d534                _fclose_r
                0x0000d62c                fclose
 .text          0x0000d640      0x298 c:/program files/codesourcery/sourcery g++ lite/bin/../lib/gcc/arm-none-eabi/4.5.1/../../../../arm-none-eabi/lib\libc.a(lib_a-fflush.o)
                0x0000d640                _fflush_r
                0x0000d898                fflush
 .text          0x0000d8d8      0x334 c:/program files/codesourcery/sourcery g++ lite/bin/../lib/gcc/arm-none-eabi/4.5.1/../../../../arm-none-eabi/lib\libc.a(lib_a-findfp.o)
                0x0000d8e8                _cleanup_r
                0x0000d900                __sfmoreglue
                0x0000d948                _cleanup
                0x0000d958                __sinit
                0x0000dac0                __sfp
                0x0000dbb4                __sfp_lock_acquire
                0x0000dbb8                __sfp_lock_release
                0x0000dbbc                __sinit_lock_acquire
                0x0000dbc0                __sinit_lock_release
                0x0000dbc4                __fp_lock_all
                0x0000dbe8                __fp_unlock_all
 .text          0x0000dc0c       0x70 c:/program files/codesourcery/sourcery g++ lite/bin/../lib/gcc/arm-none-eabi/4.5.1/../../../../arm-none-eabi/lib\libc.a(lib_a-fiprintf.o)
                0x0000dc0c                _fiprintf_r
                0x0000dc3c                fiprintf
 .text          0x0000dc7c      0x100 c:/program files/codesourcery/sourcery g++ lite/bin/../lib/gcc/arm-none-eabi/4.5.1/../../../../arm-none-eabi/lib\libc.a(lib_a-fopen.o)
                0x0000dc7c                _fopen_r
                0x0000dd60                fopen
 .text          0x0000dd7c      0x360 c:/program files/codesourcery/sourcery g++ lite/bin/../lib/gcc/arm-none-eabi/4.5.1/../../../../arm-none-eabi/lib\libc.a(lib_a-freer.o)
                0x0000dd7c                _malloc_trim_r
                0x0000de78                _free_r
 .text          0x0000e0dc      0x4d8 c:/program files/codesourcery/sourcery g++ lite/bin/../lib/gcc/arm-none-eabi/4.5.1/../../../../arm-none-eabi/lib\libc.a(lib_a-fseek.o)
                0x0000e0dc                _fseek_r
                0x0000e588                fseek
 .text          0x0000e5b4       0x40 c:/program files/codesourcery/sourcery g++ lite/bin/../lib/gcc/arm-none-eabi/4.5.1/../../../../arm-none-eabi/lib\libc.a(lib_a-fstatr.o)
                0x0000e5b4                _fstat_r
 .text          0x0000e5f4      0x10c c:/program files/codesourcery/sourcery g++ lite/bin/../lib/gcc/arm-none-eabi/4.5.1/../../../../arm-none-eabi/lib\libc.a(lib_a-fwalk.o)
                0x0000e5f4                _fwalk
                0x0000e678                _fwalk_reent
 .text          0x0000e700       0xec c:/program files/codesourcery/sourcery g++ lite/bin/../lib/gcc/arm-none-eabi/4.5.1/../../../../arm-none-eabi/lib\libc.a(lib_a-fwrite.o)
                0x0000e700                _fwrite_r
                0x0000e7a8                fwrite
 .text          0x0000e7ec       0x74 c:/program files/codesourcery/sourcery g++ lite/bin/../lib/gcc/arm-none-eabi/4.5.1/../../../../arm-none-eabi/lib\libc.a(lib_a-iprintf.o)
                0x0000e7ec                iprintf
                0x0000e82c                _iprintf_r
 .text          0x0000e860       0x14 c:/program files/codesourcery/sourcery g++ lite/bin/../lib/gcc/arm-none-eabi/4.5.1/../../../../arm-none-eabi/lib\libc.a(lib_a-lcltime_r.o)
                0x0000e860                localtime_r
 .text          0x0000e874      0x164 c:/program files/codesourcery/sourcery g++ lite/bin/../lib/gcc/arm-none-eabi/4.5.1/../../../../arm-none-eabi/lib\libc.a(lib_a-makebuf.o)
                0x0000e874                __smakebuf_r
 .text          0x0000e9d8       0x40 c:/program files/codesourcery/sourcery g++ lite/bin/../lib/gcc/arm-none-eabi/4.5.1/../../../../arm-none-eabi/lib\libc.a(lib_a-malloc.o)
                0x0000e9d8                malloc
                0x0000e9f8                free
 .text          0x0000ea18      0x70c c:/program files/codesourcery/sourcery g++ lite/bin/../lib/gcc/arm-none-eabi/4.5.1/../../../../arm-none-eabi/lib\libc.a(lib_a-mallocr.o)
                0x0000ea18                _malloc_r
 .text          0x0000f124       0xa8 c:/program files/codesourcery/sourcery g++ lite/bin/../lib/gcc/arm-none-eabi/4.5.1/../../../../arm-none-eabi/lib\libc.a(lib_a-memcmp.o)
                0x0000f124                memcmp
 .text          0x0000f1cc      0x1c0 c:/program files/codesourcery/sourcery g++ lite/bin/../lib/gcc/arm-none-eabi/4.5.1/../../../../arm-none-eabi/lib\libc.a(lib_a-memcpy.o)
                0x0000f1cc                memcpy
 .text          0x0000f38c      0x100 c:/program files/codesourcery/sourcery g++ lite/bin/../lib/gcc/arm-none-eabi/4.5.1/../../../../arm-none-eabi/lib\libc.a(lib_a-memset.o)
                0x0000f38c                memset
 .text          0x0000f48c      0x758 c:/program files/codesourcery/sourcery g++ lite/bin/../lib/gcc/arm-none-eabi/4.5.1/../../../../arm-none-eabi/lib\libc.a(lib_a-mktm_r.o)
                0x0000f48c                __tzcalc_limits
                0x0000f6d8                _mktm_r
 .text          0x0000fbe4        0x8 c:/program files/codesourcery/sourcery g++ lite/bin/../lib/gcc/arm-none-eabi/4.5.1/../../../../arm-none-eabi/lib\libc.a(lib_a-mlock.o)
                0x0000fbe4                __malloc_lock
                0x0000fbe8                __malloc_unlock
 .text          0x0000fbec       0x44 c:/program files/codesourcery/sourcery g++ lite/bin/../lib/gcc/arm-none-eabi/4.5.1/../../../../arm-none-eabi/lib\libc.a(lib_a-openr.o)
                0x0000fbec                _open_r
 .text          0x0000fc30      0x1c4 c:/program files/codesourcery/sourcery g++ lite/bin/../lib/gcc/arm-none-eabi/4.5.1/../../../../arm-none-eabi/lib\libc.a(lib_a-refill.o)
                0x0000fc58                __srefill_r
 .text          0x0000fdf4       0x40 c:/program files/codesourcery/sourcery g++ lite/bin/../lib/gcc/arm-none-eabi/4.5.1/../../../../arm-none-eabi/lib\libc.a(lib_a-sbrkr.o)
                0x0000fdf4                _sbrk_r
 .text          0x0000fe34       0x20 c:/program files/codesourcery/sourcery g++ lite/bin/../lib/gcc/arm-none-eabi/4.5.1/../../../../arm-none-eabi/lib\libc.a(lib_a-setbuf.o)
                0x0000fe34                setbuf
 .text          0x0000fe54       0x2c c:/program files/codesourcery/sourcery g++ lite/bin/../lib/gcc/arm-none-eabi/4.5.1/../../../../arm-none-eabi/lib\libc.a(lib_a-setjmp.o)
                0x0000fe54                setjmp
                0x0000fe68                longjmp
 .text          0x0000fe80      0x178 c:/program files/codesourcery/sourcery g++ lite/bin/../lib/gcc/arm-none-eabi/4.5.1/../../../../arm-none-eabi/lib\libc.a(lib_a-setvbuf.o)
                0x0000fe80                setvbuf
 .text          0x0000fff8       0xdc c:/program files/codesourcery/sourcery g++ lite/bin/../lib/gcc/arm-none-eabi/4.5.1/../../../../arm-none-eabi/lib\libc.a(lib_a-siprintf.o)
                0x0000fff8                _siprintf_r
                0x00010060                siprintf
 .text          0x000100d4      0x130 c:/program files/codesourcery/sourcery g++ lite/bin/../lib/gcc/arm-none-eabi/4.5.1/../../../../arm-none-eabi/lib\libc.a(lib_a-sniprintf.o)
                0x000100d4                _sniprintf_r
                0x00010168                sniprintf
 .text          0x00010204       0xdc c:/program files/codesourcery/sourcery g++ lite/bin/../lib/gcc/arm-none-eabi/4.5.1/../../../../arm-none-eabi/lib\libc.a(lib_a-stdio.o)
                0x00010204                __sread
                0x00010238                __seofread
                0x00010240                __swrite
                0x00010298                __sseek
                0x000102cc                __sclose
 .text          0x000102e0       0x20 c:/program files/codesourcery/sourcery g++ lite/bin/../lib/gcc/arm-none-eabi/4.5.1/../../../../arm-none-eabi/lib\libc.a(lib_a-strdup.o)
                0x000102e0                strdup
 .text          0x00010300       0x40 c:/program files/codesourcery/sourcery g++ lite/bin/../lib/gcc/arm-none-eabi/4.5.1/../../../../arm-none-eabi/lib\libc.a(lib_a-strdup_r.o)
                0x00010300                _strdup_r
 .text          0x00010340       0x60 c:/program files/codesourcery/sourcery g++ lite/bin/../lib/gcc/arm-none-eabi/4.5.1/../../../../arm-none-eabi/lib\libc.a(lib_a-strlen.o)
                0x00010340                strlen
 .text          0x000103a0      0x1f4 c:/program files/codesourcery/sourcery g++ lite/bin/../lib/gcc/arm-none-eabi/4.5.1/../../../../arm-none-eabi/lib\libc.a(lib_a-strtol.o)
                0x000103a0                _strtol_r
                0x00010568                strtol
 .text          0x00010594     0x1230 c:/program files/codesourcery/sourcery g++ lite/bin/../lib/gcc/arm-none-eabi/4.5.1/../../../../arm-none-eabi/lib\libc.a(lib_a-svfiprintf.o)
                0x00010594                __ssprint_r
                0x00010728                _svfiprintf_r
 .text          0x000117c4       0x28 c:/program files/codesourcery/sourcery g++ lite/bin/../lib/gcc/arm-none-eabi/4.5.1/../../../../arm-none-eabi/lib\libc.a(lib_a-sysgettod.o)
                0x000117c4                gettimeofday
 .text          0x000117ec        0x8 c:/program files/codesourcery/sourcery g++ lite/bin/../lib/gcc/arm-none-eabi/4.5.1/../../../../arm-none-eabi/lib\libc.a(lib_a-tzlock.o)
                0x000117ec                __tz_lock
                0x000117f0                __tz_unlock
 .text          0x000117f4     0x1360 c:/program files/codesourcery/sourcery g++ lite/bin/../lib/gcc/arm-none-eabi/4.5.1/../../../../arm-none-eabi/lib\libc.a(lib_a-vfiprintf.o)
                0x000117f4                __sprint_r
                0x000118b4                _vfiprintf_r
                0x00012b28                vfiprintf
 .text          0x00012b54       0x44 c:/program files/codesourcery/sourcery g++ lite/bin/../lib/gcc/arm-none-eabi/4.5.1/../../../../arm-none-eabi/lib\libc.a(lib_a-writer.o)
                0x00012b54                _write_r
 .text          0x00012b98      0x134 c:/program files/codesourcery/sourcery g++ lite/bin/../lib/gcc/arm-none-eabi/4.5.1/../../../../arm-none-eabi/lib\libc.a(lib_a-wsetup.o)
                0x00012b98                __swsetup_r
 .text          0x00012ccc      0x188 c:/program files/codesourcery/sourcery g++ lite/bin/../lib/gcc/arm-none-eabi/4.5.1/../../../../arm-none-eabi/lib\libc.a(lib_a-__call_atexit.o)
                0x00012cf0                __call_exitprocs
 .text          0x00012e54       0x20 c:/program files/codesourcery/sourcery g++ lite/bin/../lib/gcc/arm-none-eabi/4.5.1/../../../../arm-none-eabi/lib\libc.a(lib_a-atexit.o)
                0x00012e54                atexit
 .text          0x00012e74       0x3c c:/program files/codesourcery/sourcery g++ lite/bin/../lib/gcc/arm-none-eabi/4.5.1/../../../../arm-none-eabi/lib\libc.a(lib_a-closer.o)
                0x00012e74                _close_r
 .text          0x00012eb0       0x44 c:/program files/codesourcery/sourcery g++ lite/bin/../lib/gcc/arm-none-eabi/4.5.1/../../../../arm-none-eabi/lib\libc.a(lib_a-fini.o)
                0x00012eb0                __libc_fini_array
 .text          0x00012ef4       0xc8 c:/program files/codesourcery/sourcery g++ lite/bin/../lib/gcc/arm-none-eabi/4.5.1/../../../../arm-none-eabi/lib\libc.a(lib_a-flags.o)
                0x00012ef4                __sflags
 .text          0x00012fbc      0x1a8 c:/program files/codesourcery/sourcery g++ lite/bin/../lib/gcc/arm-none-eabi/4.5.1/../../../../arm-none-eabi/lib\libc.a(lib_a-fputwc.o)
                0x00012fbc                _fputwc_r
                0x00013118                fputwc
 .text          0x00013164      0x4b0 c:/program files/codesourcery/sourcery g++ lite/bin/../lib/gcc/arm-none-eabi/4.5.1/../../../../arm-none-eabi/lib\libc.a(lib_a-fvwrite.o)
                0x00013164                __sfvwrite_r
 .text          0x00013614       0x40 c:/program files/codesourcery/sourcery g++ lite/bin/../lib/gcc/arm-none-eabi/4.5.1/../../../../arm-none-eabi/lib\libc.a(lib_a-gettimeofdayr.o)
                0x00013614                _gettimeofday_r
 .text          0x00013654        0xc c:/program files/codesourcery/sourcery g++ lite/bin/../lib/gcc/arm-none-eabi/4.5.1/../../../../arm-none-eabi/lib\libc.a(lib_a-gettzinfo.o)
                0x00013654                __gettzinfo
 .text          0x00013660       0x3c c:/program files/codesourcery/sourcery g++ lite/bin/../lib/gcc/arm-none-eabi/4.5.1/../../../../arm-none-eabi/lib\libc.a(lib_a-isattyr.o)
                0x00013660                _isatty_r
 .text          0x0001369c       0xd0 c:/program files/codesourcery/sourcery g++ lite/bin/../lib/gcc/arm-none-eabi/4.5.1/../../../../arm-none-eabi/lib\libc.a(lib_a-locale.o)
                0x0001369c                _setlocale_r
                0x00013708                __locale_charset
                0x00013714                __locale_mb_cur_max
                0x00013724                __locale_msgcharset
                0x00013730                __locale_cjk_lang
                0x00013738                _localeconv_r
                0x00013744                setlocale
                0x00013760                localeconv
 .text          0x0001376c       0x44 c:/program files/codesourcery/sourcery g++ lite/bin/../lib/gcc/arm-none-eabi/4.5.1/../../../../arm-none-eabi/lib\libc.a(lib_a-lseekr.o)
                0x0001376c                _lseek_r
 .text          0x000137b0      0x100 c:/program files/codesourcery/sourcery g++ lite/bin/../lib/gcc/arm-none-eabi/4.5.1/../../../../arm-none-eabi/lib\libc.a(lib_a-memchr.o)
                0x000137b0                memchr
 .text          0x000138b0      0x118 c:/program files/codesourcery/sourcery g++ lite/bin/../lib/gcc/arm-none-eabi/4.5.1/../../../../arm-none-eabi/lib\libc.a(lib_a-memmove.o)
                0x000138b0                memmove
 .text          0x000139c8       0x44 c:/program files/codesourcery/sourcery g++ lite/bin/../lib/gcc/arm-none-eabi/4.5.1/../../../../arm-none-eabi/lib\libc.a(lib_a-readr.o)
                0x000139c8                _read_r
 .text          0x00013a0c      0x5c0 c:/program files/codesourcery/sourcery g++ lite/bin/../lib/gcc/arm-none-eabi/4.5.1/../../../../arm-none-eabi/lib\libc.a(lib_a-reallocr.o)
                0x00013a0c                _realloc_r
 .text          0x00013fcc      0x230 c:/program files/codesourcery/sourcery g++ lite/bin/../lib/gcc/arm-none-eabi/4.5.1/../../../../arm-none-eabi/lib\libc.a(lib_a-strcmp.o)
                0x00013fcc                strcmp
 .text          0x000141fc      0x15c c:/program files/codesourcery/sourcery g++ lite/bin/../lib/gcc/arm-none-eabi/4.5.1/../../../../arm-none-eabi/lib\libc.a(lib_a-wbuf.o)
                0x000141fc                __swbuf_r
                0x0001433c                __swbuf
 .text          0x00014358      0x13c c:/program files/codesourcery/sourcery g++ lite/bin/../lib/gcc/arm-none-eabi/4.5.1/../../../../arm-none-eabi/lib\libc.a(lib_a-wcrtomb.o)
                0x00014358                _wcrtomb_r
                0x000143ec                wcrtomb
 .text          0x00014494       0x7c c:/program files/codesourcery/sourcery g++ lite/bin/../lib/gcc/arm-none-eabi/4.5.1/../../../../arm-none-eabi/lib\libc.a(lib_a-wctomb_r.o)
                0x00014494                __ascii_wctomb
                0x000144c0                _wctomb_r
 .text          0x00014510       0xf4 c:/program files/codesourcery/sourcery g++ lite/bin/../lib/gcc/arm-none-eabi/4.5.1/../../../../arm-none-eabi/lib\libc.a(lib_a-__atexit.o)
                0x00014510                __register_exitproc
 .text          0x00014604       0x3c c:/program files/codesourcery/sourcery g++ lite/bin/../lib/gcc/arm-none-eabi/4.5.1\libgcc.a(_aeabi_uldivmod.o)
                0x00014604                __aeabi_uldivmod
 .text          0x00014640       0x80 c:/program files/codesourcery/sourcery g++ lite/bin/../lib/gcc/arm-none-eabi/4.5.1\libgcc.a(bpabi.o)
                0x00014640                __gnu_ldivmod_helper
                0x00014680                __gnu_uldivmod_helper
 .text          0x000146c0      0x4a8 c:/program files/codesourcery/sourcery g++ lite/bin/../lib/gcc/arm-none-eabi/4.5.1\libgcc.a(_divdi3.o)
                0x000146c0                __divdi3
 .text          0x00014b68      0x438 c:/program files/codesourcery/sourcery g++ lite/bin/../lib/gcc/arm-none-eabi/4.5.1\libgcc.a(_udivdi3.o)
                0x00014b68                __udivdi3
 .text          0x00014fa0       0x48 c:/program files/codesourcery/sourcery g++ lite/bin/../lib/gcc/arm-none-eabi/4.5.1\libgcc.a(_clzsi2.o)
                0x00014fa0                __clzsi2
 *(.plt)
 *(.gnu.warning)
 *(.glue_7t)
 .glue_7t       0x00000000        0x0 linker stubs
 *(.glue_7)
 .glue_7        0x00000000        0x0 linker stubs
 *(.vfp11_veneer)
 .vfp11_veneer  0x00000000        0x0 linker stubs
 *(.rodata .rodata.* .gnu.linkonce.r.*)
 .rodata.str1.4
                0x00014fe8       0x4a lpc2106-cmucam3_buildfiles/main.o
                                 0x50 (size before relaxing)
 *fill*         0x00015032        0x2 00
 .rodata.std_luminance_quant_tbl.3211
                0x00015034      0x100 ../../lib/jpeg-6b\libjpeg-6b_lpc2106-cmucam3.a(jcparam.o)
 .rodata.bits_dc_chrominance.3237
                0x00015134       0x14 ../../lib/jpeg-6b\libjpeg-6b_lpc2106-cmucam3.a(jcparam.o)
 .rodata.val_ac_luminance.3240
                0x00015148       0xa4 ../../lib/jpeg-6b\libjpeg-6b_lpc2106-cmucam3.a(jcparam.o)
 .rodata.bits_ac_chrominance.3241
                0x000151ec       0x14 ../../lib/jpeg-6b\libjpeg-6b_lpc2106-cmucam3.a(jcparam.o)
 .rodata.val_dc_chrominance.3238
                0x00015200        0xc ../../lib/jpeg-6b\libjpeg-6b_lpc2106-cmucam3.a(jcparam.o)
 .rodata.val_dc_luminance.3236
                0x0001520c        0xc ../../lib/jpeg-6b\libjpeg-6b_lpc2106-cmucam3.a(jcparam.o)
 .rodata.bits_ac_luminance.3239
                0x00015218       0x14 ../../lib/jpeg-6b\libjpeg-6b_lpc2106-cmucam3.a(jcparam.o)
 .rodata.val_ac_chrominance.3242
                0x0001522c       0xa4 ../../lib/jpeg-6b\libjpeg-6b_lpc2106-cmucam3.a(jcparam.o)
 .rodata.std_chrominance_quant_tbl.3212
                0x000152d0      0x100 ../../lib/jpeg-6b\libjpeg-6b_lpc2106-cmucam3.a(jcparam.o)
 .rodata.bits_dc_luminance.3235
                0x000153d0       0x14 ../../lib/jpeg-6b\libjpeg-6b_lpc2106-cmucam3.a(jcparam.o)
 .rodata.jpeg_std_message_table
                0x000153e4      0x1f4 ../../lib/jpeg-6b\libjpeg-6b_lpc2106-cmucam3.a(jerror.o)
                0x000153e4                jpeg_std_message_table
 .rodata.str1.4
                0x000155d8     0x128f ../../lib/jpeg-6b\libjpeg-6b_lpc2106-cmucam3.a(jerror.o)
                               0x1290 (size before relaxing)
 *fill*         0x00016867        0x1 00
 .rodata.jpeg_natural_order
                0x00016868      0x140 ../../lib/jpeg-6b\libjpeg-6b_lpc2106-cmucam3.a(jutils.o)
                0x00016868                jpeg_natural_order
 .rodata.extra_pool_slop
                0x000169a8        0x8 ../../lib/jpeg-6b\libjpeg-6b_lpc2106-cmucam3.a(jmemmgr.o)
 .rodata.first_pool_slop
                0x000169b0        0x8 ../../lib/jpeg-6b\libjpeg-6b_lpc2106-cmucam3.a(jmemmgr.o)
 .rodata.str1.4
                0x000169b8       0x2a ../../hal/lpc2106-cmucam3\libhal-lpc2106-cmucam3.a(interrupt.o)
                                 0x2c (size before relaxing)
 *fill*         0x000169e2        0x2 00
 .rodata.str1.4
                0x000169e4        0xb ../../hal/lpc2106-cmucam3\libhal-lpc2106-cmucam3.a(serial.o)
                                 0x10 (size before relaxing)
 *fill*         0x000169ef        0x1 00
 .rodata.CSWTCH.4
                0x000169f0        0xc ../../hal/lpc2106-cmucam3\libhal-lpc2106-cmucam3.a(serial.o)
 .rodata.table.2253
                0x000169fc       0x20 ../../hal/lpc2106-cmucam3\libhal-lpc2106-cmucam3.a(rdcf2.o)
 .rodata.cmdReset
                0x00016a1c        0x8 ../../hal/lpc2106-cmucam3\libhal-lpc2106-cmucam3.a(mmc_hardware.o)
 .rodata.cmdSetBlock
                0x00016a24        0x8 ../../hal/lpc2106-cmucam3\libhal-lpc2106-cmucam3.a(mmc_hardware.o)
 .rodata.cmdInitCard
                0x00016a2c        0x8 ../../hal/lpc2106-cmucam3\libhal-lpc2106-cmucam3.a(mmc_hardware.o)
 .rodata._cc3_mmc_driver
                0x00016a34       0x2c ../../hal/lpc2106-cmucam3\libhal-lpc2106-cmucam3.a(mmc_driver.o)
                0x00016a34                _cc3_mmc_driver
 .rodata._cc3_uart_driver
                0x00016a60       0x2c ../../hal/lpc2106-cmucam3\libhal-lpc2106-cmucam3.a(uart_driver.o)
                0x00016a60                _cc3_uart_driver
 .rodata        0x00016a8c      0x104 c:/program files/codesourcery/sourcery g++ lite/bin/../lib/gcc/arm-none-eabi/4.5.1/../../../../arm-none-eabi/lib\libc.a(lib_a-ctype_.o)
                0x00016a8c                _ctype_
 .rodata        0x00016b90        0x4 c:/program files/codesourcery/sourcery g++ lite/bin/../lib/gcc/arm-none-eabi/4.5.1/../../../../arm-none-eabi/lib\libc.a(lib_a-impure.o)
                0x00016b90                _global_impure_ptr
 .rodata.str1.4
                0x00016b94        0x2 c:/program files/codesourcery/sourcery g++ lite/bin/../lib/gcc/arm-none-eabi/4.5.1/../../../../arm-none-eabi/lib\libc.a(lib_a-impure.o)
                                  0x4 (size before relaxing)
 *fill*         0x00016b96        0x2 00
 .rodata        0x00016b98       0x68 c:/program files/codesourcery/sourcery g++ lite/bin/../lib/gcc/arm-none-eabi/4.5.1/../../../../arm-none-eabi/lib\libc.a(lib_a-mktm_r.o)
 .rodata        0x00016c00       0x20 c:/program files/codesourcery/sourcery g++ lite/bin/../lib/gcc/arm-none-eabi/4.5.1/../../../../arm-none-eabi/lib\libc.a(lib_a-svfiprintf.o)
 .rodata.str1.4
                0x00016c20       0x2f c:/program files/codesourcery/sourcery g++ lite/bin/../lib/gcc/arm-none-eabi/4.5.1/../../../../arm-none-eabi/lib\libc.a(lib_a-svfiprintf.o)
                                 0x30 (size before relaxing)
 *fill*         0x00016c4f        0x1 00
 .rodata        0x00016c50       0x20 c:/program files/codesourcery/sourcery g++ lite/bin/../lib/gcc/arm-none-eabi/4.5.1/../../../../arm-none-eabi/lib\libc.a(lib_a-vfiprintf.o)
 .rodata.str1.4
                0x00000000       0x30 c:/program files/codesourcery/sourcery g++ lite/bin/../lib/gcc/arm-none-eabi/4.5.1/../../../../arm-none-eabi/lib\libc.a(lib_a-vfiprintf.o)
 .rodata.str1.4
                0x00016c70        0xc c:/program files/codesourcery/sourcery g++ lite/bin/../lib/gcc/arm-none-eabi/4.5.1/../../../../arm-none-eabi/lib\libc.a(lib_a-locale.o)
                                 0x14 (size before relaxing)
 *(.ARM.extab* .gnu.linkonce.armextab.*)
 *(.gcc_except_table)
 *(.eh_frame_hdr)
 *(.eh_frame)
                0x00016c7c                . = ALIGN (0x4)
 *(.init)
 .init          0x00016c7c        0xc c:/program files/codesourcery/sourcery g++ lite/bin/../lib/gcc/arm-none-eabi/4.5.1/crti.o
                0x00016c7c                _init
 .init          0x00016c88        0xc c:/program files/codesourcery/sourcery g++ lite/bin/../lib/gcc/arm-none-eabi/4.5.1/crtn.o
                0x00016c94                . = ALIGN (0x4)
                0x00016c94                __preinit_array_start = .
 *(.preinit_array)
                0x00016c94                __preinit_array_end = .
                0x00016c94                . = ALIGN (0x4)
                0x00016c94                __init_array_start = .
 *(SORT(.init_array.*))
 .init_array.00000
                0x00016c94        0x4 c:/program files/codesourcery/sourcery g++ lite/bin/../lib/gcc/arm-none-eabi/4.5.1/../../../../arm-none-eabi/lib\libc.a(lib_a-__call_atexit.o)
 *(.init_array)
 .init_array    0x00016c98        0x4 c:/program files/codesourcery/sourcery g++ lite/bin/../lib/gcc/arm-none-eabi/4.5.1/crtbegin.o
                0x00016c9c                __init_array_end = .
                0x00016c9c                . = ALIGN (0x4)
 *crtbegin.o(.ctors)
 *(EXCLUDE_FILE(*crtend.o) .ctors)
 *(SORT(.ctors.*))
 *crtend.o(.ctors)
                0x00016c9c                . = ALIGN (0x4)
 *(.fini)
 .fini          0x00016c9c        0xc c:/program files/codesourcery/sourcery g++ lite/bin/../lib/gcc/arm-none-eabi/4.5.1/crti.o
                0x00016c9c                _fini
 .fini          0x00016ca8        0xc c:/program files/codesourcery/sourcery g++ lite/bin/../lib/gcc/arm-none-eabi/4.5.1/crtn.o
                0x00016cb4                . = ALIGN (0x4)
                0x00016cb4                __fini_array_start = .
 *(.fini_array)
 .fini_array    0x00016cb4        0x4 c:/program files/codesourcery/sourcery g++ lite/bin/../lib/gcc/arm-none-eabi/4.5.1/crtbegin.o
 *(SORT(.fini_array.*))
                0x00016cb8                __fini_array_end = .
 *crtbegin.o(.dtors)
 *(EXCLUDE_FILE(*crtend.o) .dtors)
 *(SORT(.dtors.*))
 *crtend.o(.dtors)
                0x00016cb8                __exidx_start = .

.v4_bx          0x00016cb8        0x0
 .v4_bx         0x00000000        0x0 linker stubs

.ARM.exidx      0x00016cb8        0x8
 *(.ARM.exidx* .gnu.linkonce.armexidx.*)
 .ARM.exidx     0x00016cb8        0x8 c:/program files/codesourcery/sourcery g++ lite/bin/../lib/gcc/arm-none-eabi/4.5.1\libgcc.a(_divdi3.o)
 .ARM.exidx     0x00016cc0        0x0 c:/program files/codesourcery/sourcery g++ lite/bin/../lib/gcc/arm-none-eabi/4.5.1\libgcc.a(_udivdi3.o)
                                  0x8 (size before relaxing)
                0x00016cc0                __exidx_end = .

.text.align     0x00016cc0        0x0
                0x00016cc0                . = ALIGN (0x8)
                0x00016cc0                _etext = .

.stack          0x40000000     0x2400
                0x40002400                . = (. + STACK_SIZE)
 *fill*         0x40000000     0x2400 00
                0x40002400                _stack = .

.data           0x40002400      0x918 load address 0x00016cc0
                0x40002400                _data = .
 *(.jcr)
 .jcr           0x40002400        0x0 c:/program files/codesourcery/sourcery g++ lite/bin/../lib/gcc/arm-none-eabi/4.5.1/crtbegin.o
 .jcr           0x40002400        0x4 c:/program files/codesourcery/sourcery g++ lite/bin/../lib/gcc/arm-none-eabi/4.5.1/crtend.o
 *(.got.plt)
 *(.got)
 *(.shdata)
 *(.data .data.* .gnu.linkonce.d.*)
 .data.servo_val
                0x40002404        0x4 ../../hal/lpc2106-cmucam3\libhal-lpc2106-cmucam3.a(servo.o)
 .data.device_driver_table
                0x40002408        0x8 ../../hal/lpc2106-cmucam3\libhal-lpc2106-cmucam3.a(devices.o)
 .data          0x40002410        0x4 c:/program files/codesourcery/sourcery g++ lite/bin/../lib/gcc/arm-none-eabi/4.5.1/../../../../arm-none-eabi/lib\libc.a(lib_a-ctype_.o)
                0x40002410                __ctype_ptr__
 *fill*         0x40002414        0x4 00
 .data          0x40002418      0x430 c:/program files/codesourcery/sourcery g++ lite/bin/../lib/gcc/arm-none-eabi/4.5.1/../../../../arm-none-eabi/lib\libc.a(lib_a-impure.o)
                0x40002418                _impure_ptr
 .data          0x40002848      0x410 c:/program files/codesourcery/sourcery g++ lite/bin/../lib/gcc/arm-none-eabi/4.5.1/../../../../arm-none-eabi/lib\libc.a(lib_a-mallocr.o)
                0x40002848                __malloc_av_
                0x40002c50                __malloc_sbrk_base
                0x40002c54                __malloc_trim_threshold
 .data          0x40002c58       0x40 c:/program files/codesourcery/sourcery g++ lite/bin/../lib/gcc/arm-none-eabi/4.5.1/../../../../arm-none-eabi/lib\libc.a(lib_a-gettzinfo.o)
 .data          0x40002c98       0x7c c:/program files/codesourcery/sourcery g++ lite/bin/../lib/gcc/arm-none-eabi/4.5.1/../../../../arm-none-eabi/lib\libc.a(lib_a-locale.o)
                0x40002cb8                __mb_cur_max
 .data          0x40002d14        0x4 c:/program files/codesourcery/sourcery g++ lite/bin/../lib/gcc/arm-none-eabi/4.5.1/../../../../arm-none-eabi/lib\libc.a(lib_a-wctomb_r.o)
                0x40002d14                __wctomb
 *(.ram)
                0x40002d18                . = ALIGN (0x8)
                0x40002d18                _edata = .

.bss            0x40002d18      0x2c0 load address 0x000175d8
                0x40002d18                _bss = .
 *(.shbss)
 *(.bss .bss.* .gnu.linkonce.b.*)
 .bss           0x40002d18        0x1 c:/program files/codesourcery/sourcery g++ lite/bin/../lib/gcc/arm-none-eabi/4.5.1/crtbegin.o
 *fill*         0x40002d19        0x7 00
 .bss.cinfo     0x40002d20      0x178 lpc2106-cmucam3_buildfiles/main.o
 .bss.jerr      0x40002e98       0x84 lpc2106-cmucam3_buildfiles/main.o
 .bss.row       0x40002f1c        0x4 lpc2106-cmucam3_buildfiles/main.o
                0x40002f1c                row
 .bss._cc3_button_trigger
                0x40002f20        0x1 ../../hal/lpc2106-cmucam3\libhal-lpc2106-cmucam3.a(interrupt.o)
                0x40002f20                _cc3_button_trigger
 *fill*         0x40002f21        0x3 00
 .bss._cc3_g_current_camera_state
                0x40002f24        0xc ../../hal/lpc2106-cmucam3\libhal-lpc2106-cmucam3.a(cc3.o)
 .bss.cc3_g_pixbuf_frame
                0x40002f30       0x18 ../../hal/lpc2106-cmucam3\libhal-lpc2106-cmucam3.a(cc3.o)
                0x40002f30                cc3_g_pixbuf_frame
 .bss._cc3_second_green_valid
                0x40002f48        0x1 ../../hal/lpc2106-cmucam3\libhal-lpc2106-cmucam3.a(cc3.o)
 .bss._cc3_second_green
                0x40002f49        0x1 ../../hal/lpc2106-cmucam3\libhal-lpc2106-cmucam3.a(cc3.o)
 *fill*         0x40002f4a        0x2 00
 .bss.heap_ptr  0x40002f4c        0x4 ../../hal/lpc2106-cmucam3\libhal-lpc2106-cmucam3.a(syscalls.o)
 .bss._cc3_uart1_binmode
                0x40002f50        0x1 ../../hal/lpc2106-cmucam3\libhal-lpc2106-cmucam3.a(serial.o)
                0x40002f50                _cc3_uart1_binmode
 .bss.started.1965
                0x40002f51        0x1 ../../hal/lpc2106-cmucam3\libhal-lpc2106-cmucam3.a(serial.o)
 .bss._cc3_uart0_binmode
                0x40002f52        0x1 ../../hal/lpc2106-cmucam3\libhal-lpc2106-cmucam3.a(serial.o)
                0x40002f52                _cc3_uart0_binmode
 *fill*         0x40002f53        0x1 00
 .bss.servo_mask
                0x40002f54        0x4 ../../hal/lpc2106-cmucam3\libhal-lpc2106-cmucam3.a(servo.o)
 .bss.servo_tmp
                0x40002f58        0x4 ../../hal/lpc2106-cmucam3\libhal-lpc2106-cmucam3.a(servo.o)
 .bss.DriveDesc
                0x40002f5c       0x28 ../../hal/lpc2106-cmucam3\libhal-lpc2106-cmucam3.a(mmc_hardware.o)
                0x40002f5c                DriveDesc
 .bss.fcbs      0x40002f84       0x14 ../../hal/lpc2106-cmucam3\libhal-lpc2106-cmucam3.a(mmc_driver.o)
 .bss           0x40002f98       0x34 c:/program files/codesourcery/sourcery g++ lite/bin/../lib/gcc/arm-none-eabi/4.5.1/../../../../arm-none-eabi/lib\libc.a(lib_a-mallocr.o)
                0x40002f98                __malloc_top_pad
                0x40002f9c                __malloc_current_mallinfo
                0x40002fc4                __malloc_max_sbrked_mem
                0x40002fc8                __malloc_max_total_mem
 .bss           0x40002fcc        0x8 c:/program files/codesourcery/sourcery g++ lite/bin/../lib/gcc/arm-none-eabi/4.5.1/../../../../arm-none-eabi/lib\libc.a(lib_a-tzvars.o)
                0x40002fcc                _daylight
                0x40002fd0                _timezone
 *(COMMON)
 COMMON         0x40002fd4        0x4 c:/program files/codesourcery/sourcery g++ lite/bin/../lib/gcc/arm-none-eabi/4.5.1/../../../../arm-none-eabi/lib\libc.a(lib_a-reent.o)
                0x40002fd4                errno
 *(.ram.b)
                0x40002fd8                . = ALIGN (0x8)
                0x40002fd8                _end = .
                0x40002fd8                __end = .
                0x40010000                _heap_end = 0x40010000

.stab
 *(.stab)

.stabstr
 *(.stabstr)

.debug
 *(.debug)

.line
 *(.line)

.debug_srcinfo
 *(.debug_srcinfo)

.debug_sfnames
 *(.debug_sfnames)

.comment        0x00000000       0x2a
 .comment       0x00000000       0x2a lpc2106-cmucam3_buildfiles/main.o
                                 0x2b (size before relaxing)
 .comment       0x00000000       0x2b ../../lib/jpeg-6b\libjpeg-6b_lpc2106-cmucam3.a(jcapimin.o)
 .comment       0x00000000       0x2b ../../lib/jpeg-6b\libjpeg-6b_lpc2106-cmucam3.a(jcapistd.o)
 .comment       0x00000000       0x2b ../../lib/jpeg-6b\libjpeg-6b_lpc2106-cmucam3.a(jcinit.o)
 .comment       0x00000000       0x2b ../../lib/jpeg-6b\libjpeg-6b_lpc2106-cmucam3.a(jcmainct.o)
 .comment       0x00000000       0x2b ../../lib/jpeg-6b\libjpeg-6b_lpc2106-cmucam3.a(jcmarker.o)
 .comment       0x00000000       0x2b ../../lib/jpeg-6b\libjpeg-6b_lpc2106-cmucam3.a(jcmaster.o)
 .comment       0x00000000       0x2b ../../lib/jpeg-6b\libjpeg-6b_lpc2106-cmucam3.a(jcomapi.o)
 .comment       0x00000000       0x2b ../../lib/jpeg-6b\libjpeg-6b_lpc2106-cmucam3.a(jcparam.o)
 .comment       0x00000000       0x2b ../../lib/jpeg-6b\libjpeg-6b_lpc2106-cmucam3.a(jcprepct.o)
 .comment       0x00000000       0x2b ../../lib/jpeg-6b\libjpeg-6b_lpc2106-cmucam3.a(jcsample.o)
 .comment       0x00000000       0x2b ../../lib/jpeg-6b\libjpeg-6b_lpc2106-cmucam3.a(jdatadst.o)
 .comment       0x00000000       0x2b ../../lib/jpeg-6b\libjpeg-6b_lpc2106-cmucam3.a(jerror.o)
 .comment       0x00000000       0x2b ../../lib/jpeg-6b\libjpeg-6b_lpc2106-cmucam3.a(jutils.o)
 .comment       0x00000000       0x2b ../../lib/jpeg-6b\libjpeg-6b_lpc2106-cmucam3.a(jmemmgr.o)
 .comment       0x00000000       0x2b ../../lib/jpeg-6b\libjpeg-6b_lpc2106-cmucam3.a(jmemnobs.o)
 .comment       0x00000000       0x2b ../../lib/jpeg-6b\libjpeg-6b_lpc2106-cmucam3.a(jccoefct.o)
 .comment       0x00000000       0x2b ../../lib/jpeg-6b\libjpeg-6b_lpc2106-cmucam3.a(jccolor.o)
 .comment       0x00000000       0x2b ../../lib/jpeg-6b\libjpeg-6b_lpc2106-cmucam3.a(jcdctmgr.o)
 .comment       0x00000000       0x2b ../../lib/jpeg-6b\libjpeg-6b_lpc2106-cmucam3.a(jchuff.o)
 .comment       0x00000000       0x2b ../../lib/jpeg-6b\libjpeg-6b_lpc2106-cmucam3.a(jfdctint.o)
 .comment       0x00000000       0x2b ../../hal/lpc2106-cmucam3\libhal-lpc2106-cmucam3.a(interrupt.o)
 .comment       0x00000000       0x2b ../../hal/lpc2106-cmucam3\libhal-lpc2106-cmucam3.a(cc3.o)
 .comment       0x00000000       0x2b ../../hal/lpc2106-cmucam3\libhal-lpc2106-cmucam3.a(cc3_hal.o)
 .comment       0x00000000       0x2b ../../hal/lpc2106-cmucam3\libhal-lpc2106-cmucam3.a(syscalls.o)
 .comment       0x00000000       0x2b ../../hal/lpc2106-cmucam3\libhal-lpc2106-cmucam3.a(serial.o)
 .comment       0x00000000       0x2b ../../hal/lpc2106-cmucam3\libhal-lpc2106-cmucam3.a(servo.o)
 .comment       0x00000000       0x2b ../../hal/lpc2106-cmucam3\libhal-lpc2106-cmucam3.a(rdcf2.o)
 .comment       0x00000000       0x2b ../../hal/lpc2106-cmucam3\libhal-lpc2106-cmucam3.a(mmc_hardware.o)
 .comment       0x00000000       0x2b ../../hal/lpc2106-cmucam3\libhal-lpc2106-cmucam3.a(mmc_driver.o)
 .comment       0x00000000       0x2b ../../hal/lpc2106-cmucam3\libhal-lpc2106-cmucam3.a(gpio.o)
 .comment       0x00000000       0x2b ../../hal/lpc2106-cmucam3\libhal-lpc2106-cmucam3.a(devices.o)
 .comment       0x00000000       0x2b ../../hal/lpc2106-cmucam3\libhal-lpc2106-cmucam3.a(uart_driver.o)

.debug_aranges  0x00000000      0xb70
 *(.debug_aranges)
 .debug_aranges
                0x00000000       0x20 lpc2106-cmucam3_buildfiles/main.o
 .debug_aranges
                0x00000020       0x60 ../../lib/jpeg-6b\libjpeg-6b_lpc2106-cmucam3.a(jcapimin.o)
 .debug_aranges
                0x00000080       0x30 ../../lib/jpeg-6b\libjpeg-6b_lpc2106-cmucam3.a(jcapistd.o)
 .debug_aranges
                0x000000b0       0x20 ../../lib/jpeg-6b\libjpeg-6b_lpc2106-cmucam3.a(jcinit.o)
 .debug_aranges
                0x000000d0       0x30 ../../lib/jpeg-6b\libjpeg-6b_lpc2106-cmucam3.a(jcmainct.o)
 .debug_aranges
                0x00000100       0x88 ../../lib/jpeg-6b\libjpeg-6b_lpc2106-cmucam3.a(jcmarker.o)
 .debug_aranges
                0x00000188       0x40 ../../lib/jpeg-6b\libjpeg-6b_lpc2106-cmucam3.a(jcmaster.o)
 .debug_aranges
                0x000001c8       0x38 ../../lib/jpeg-6b\libjpeg-6b_lpc2106-cmucam3.a(jcomapi.o)
 .debug_aranges
                0x00000200       0x58 ../../lib/jpeg-6b\libjpeg-6b_lpc2106-cmucam3.a(jcparam.o)
 .debug_aranges
                0x00000258       0x38 ../../lib/jpeg-6b\libjpeg-6b_lpc2106-cmucam3.a(jcprepct.o)
 .debug_aranges
                0x00000290       0x58 ../../lib/jpeg-6b\libjpeg-6b_lpc2106-cmucam3.a(jcsample.o)
 .debug_aranges
                0x000002e8       0x38 ../../lib/jpeg-6b\libjpeg-6b_lpc2106-cmucam3.a(jdatadst.o)
 .debug_aranges
                0x00000320       0x48 ../../lib/jpeg-6b\libjpeg-6b_lpc2106-cmucam3.a(jerror.o)
 .debug_aranges
                0x00000368       0x40 ../../lib/jpeg-6b\libjpeg-6b_lpc2106-cmucam3.a(jutils.o)
 .debug_aranges
                0x000003a8       0x88 ../../lib/jpeg-6b\libjpeg-6b_lpc2106-cmucam3.a(jmemmgr.o)
 .debug_aranges
                0x00000430       0x58 ../../lib/jpeg-6b\libjpeg-6b_lpc2106-cmucam3.a(jmemnobs.o)
 .debug_aranges
                0x00000488       0x30 ../../lib/jpeg-6b\libjpeg-6b_lpc2106-cmucam3.a(jccoefct.o)
 .debug_aranges
                0x000004b8       0x58 ../../lib/jpeg-6b\libjpeg-6b_lpc2106-cmucam3.a(jccolor.o)
 .debug_aranges
                0x00000510       0x30 ../../lib/jpeg-6b\libjpeg-6b_lpc2106-cmucam3.a(jcdctmgr.o)
 .debug_aranges
                0x00000540       0x40 ../../lib/jpeg-6b\libjpeg-6b_lpc2106-cmucam3.a(jchuff.o)
 .debug_aranges
                0x00000580       0x20 ../../lib/jpeg-6b\libjpeg-6b_lpc2106-cmucam3.a(jfdctint.o)
 .debug_aranges
                0x000005a0       0x78 ../../hal/lpc2106-cmucam3\libhal-lpc2106-cmucam3.a(interrupt.o)
 .debug_aranges
                0x00000618       0xe8 ../../hal/lpc2106-cmucam3\libhal-lpc2106-cmucam3.a(cc3.o)
 .debug_aranges
                0x00000700       0x48 ../../hal/lpc2106-cmucam3\libhal-lpc2106-cmucam3.a(cc3_hal.o)
 .debug_aranges
                0x00000748       0xc0 ../../hal/lpc2106-cmucam3\libhal-lpc2106-cmucam3.a(syscalls.o)
 .debug_aranges
                0x00000808       0x88 ../../hal/lpc2106-cmucam3\libhal-lpc2106-cmucam3.a(serial.o)
 .debug_aranges
                0x00000890       0x38 ../../hal/lpc2106-cmucam3\libhal-lpc2106-cmucam3.a(servo.o)
 .debug_aranges
                0x000008c8       0xf0 ../../hal/lpc2106-cmucam3\libhal-lpc2106-cmucam3.a(rdcf2.o)
 .debug_aranges
                0x000009b8       0x50 ../../hal/lpc2106-cmucam3\libhal-lpc2106-cmucam3.a(mmc_hardware.o)
 .debug_aranges
                0x00000a08       0x68 ../../hal/lpc2106-cmucam3\libhal-lpc2106-cmucam3.a(mmc_driver.o)
 .debug_aranges
                0x00000a70       0x38 ../../hal/lpc2106-cmucam3\libhal-lpc2106-cmucam3.a(gpio.o)
 .debug_aranges
                0x00000aa8       0x40 ../../hal/lpc2106-cmucam3\libhal-lpc2106-cmucam3.a(devices.o)
 .debug_aranges
                0x00000ae8       0x68 ../../hal/lpc2106-cmucam3\libhal-lpc2106-cmucam3.a(uart_driver.o)
 .debug_aranges
                0x00000b50       0x20 ../../hal/lpc2106-cmucam3\libhal-lpc2106-cmucam3.a(startup.o)

.debug_pubnames
                0x00000000      0xfe3
 *(.debug_pubnames)
 .debug_pubnames
                0x00000000       0x23 lpc2106-cmucam3_buildfiles/main.o
 .debug_pubnames
                0x00000023       0xe8 ../../lib/jpeg-6b\libjpeg-6b_lpc2106-cmucam3.a(jcapimin.o)
 .debug_pubnames
                0x0000010b       0x5b ../../lib/jpeg-6b\libjpeg-6b_lpc2106-cmucam3.a(jcapistd.o)
 .debug_pubnames
                0x00000166       0x2c ../../lib/jpeg-6b\libjpeg-6b_lpc2106-cmucam3.a(jcinit.o)
 .debug_pubnames
                0x00000192       0x2e ../../lib/jpeg-6b\libjpeg-6b_lpc2106-cmucam3.a(jcmainct.o)
 .debug_pubnames
                0x000001c0       0x2a ../../lib/jpeg-6b\libjpeg-6b_lpc2106-cmucam3.a(jcmarker.o)
 .debug_pubnames
                0x000001ea       0x2d ../../lib/jpeg-6b\libjpeg-6b_lpc2106-cmucam3.a(jcmaster.o)
 .debug_pubnames
                0x00000217       0x67 ../../lib/jpeg-6b\libjpeg-6b_lpc2106-cmucam3.a(jcomapi.o)
 .debug_pubnames
                0x0000027e       0xbf ../../lib/jpeg-6b\libjpeg-6b_lpc2106-cmucam3.a(jcparam.o)
 .debug_pubnames
                0x0000033d       0x2e ../../lib/jpeg-6b\libjpeg-6b_lpc2106-cmucam3.a(jcprepct.o)
 .debug_pubnames
                0x0000036b       0x28 ../../lib/jpeg-6b\libjpeg-6b_lpc2106-cmucam3.a(jcsample.o)
 .debug_pubnames
                0x00000393       0x26 ../../lib/jpeg-6b\libjpeg-6b_lpc2106-cmucam3.a(jdatadst.o)
 .debug_pubnames
                0x000003b9       0x40 ../../lib/jpeg-6b\libjpeg-6b_lpc2106-cmucam3.a(jerror.o)
 .debug_pubnames
                0x000003f9       0x81 ../../lib/jpeg-6b\libjpeg-6b_lpc2106-cmucam3.a(jutils.o)
 .debug_pubnames
                0x0000047a       0x27 ../../lib/jpeg-6b\libjpeg-6b_lpc2106-cmucam3.a(jmemmgr.o)
 .debug_pubnames
                0x000004a1       0xb7 ../../lib/jpeg-6b\libjpeg-6b_lpc2106-cmucam3.a(jmemnobs.o)
 .debug_pubnames
                0x00000558       0x2e ../../lib/jpeg-6b\libjpeg-6b_lpc2106-cmucam3.a(jccoefct.o)
 .debug_pubnames
                0x00000586       0x2c ../../lib/jpeg-6b\libjpeg-6b_lpc2106-cmucam3.a(jccolor.o)
 .debug_pubnames
                0x000005b2       0x28 ../../lib/jpeg-6b\libjpeg-6b_lpc2106-cmucam3.a(jcdctmgr.o)
 .debug_pubnames
                0x000005da       0x45 ../../lib/jpeg-6b\libjpeg-6b_lpc2106-cmucam3.a(jchuff.o)
 .debug_pubnames
                0x0000061f       0x26 ../../lib/jpeg-6b\libjpeg-6b_lpc2106-cmucam3.a(jfdctint.o)
 .debug_pubnames
                0x00000645      0x113 ../../hal/lpc2106-cmucam3\libhal-lpc2106-cmucam3.a(interrupt.o)
 .debug_pubnames
                0x00000758      0x2cc ../../hal/lpc2106-cmucam3\libhal-lpc2106-cmucam3.a(cc3.o)
 .debug_pubnames
                0x00000a24       0x97 ../../hal/lpc2106-cmucam3\libhal-lpc2106-cmucam3.a(cc3_hal.o)
 .debug_pubnames
                0x00000abb       0xf1 ../../hal/lpc2106-cmucam3\libhal-lpc2106-cmucam3.a(syscalls.o)
 .debug_pubnames
                0x00000bac      0x140 ../../hal/lpc2106-cmucam3\libhal-lpc2106-cmucam3.a(serial.o)
 .debug_pubnames
                0x00000cec       0x8e ../../hal/lpc2106-cmucam3\libhal-lpc2106-cmucam3.a(servo.o)
 .debug_pubnames
                0x00000d7a       0x93 ../../hal/lpc2106-cmucam3\libhal-lpc2106-cmucam3.a(rdcf2.o)
 .debug_pubnames
                0x00000e0d       0x75 ../../hal/lpc2106-cmucam3\libhal-lpc2106-cmucam3.a(mmc_hardware.o)
 .debug_pubnames
                0x00000e82       0x26 ../../hal/lpc2106-cmucam3\libhal-lpc2106-cmucam3.a(mmc_driver.o)
 .debug_pubnames
                0x00000ea8       0x6d ../../hal/lpc2106-cmucam3\libhal-lpc2106-cmucam3.a(gpio.o)
 .debug_pubnames
                0x00000f15       0xa7 ../../hal/lpc2106-cmucam3\libhal-lpc2106-cmucam3.a(devices.o)
 .debug_pubnames
                0x00000fbc       0x27 ../../hal/lpc2106-cmucam3\libhal-lpc2106-cmucam3.a(uart_driver.o)

.debug_info     0x00000000    0x24845
 *(.debug_info .gnu.linkonce.wi.*)
 .debug_info    0x00000000     0x1a45 lpc2106-cmucam3_buildfiles/main.o
 .debug_info    0x00001a45     0x16f9 ../../lib/jpeg-6b\libjpeg-6b_lpc2106-cmucam3.a(jcapimin.o)
 .debug_info    0x0000313e     0x1578 ../../lib/jpeg-6b\libjpeg-6b_lpc2106-cmucam3.a(jcapistd.o)
 .debug_info    0x000046b6     0x14a6 ../../lib/jpeg-6b\libjpeg-6b_lpc2106-cmucam3.a(jcinit.o)
 .debug_info    0x00005b5c     0x1614 ../../lib/jpeg-6b\libjpeg-6b_lpc2106-cmucam3.a(jcmainct.o)
 .debug_info    0x00007170     0x1bcf ../../lib/jpeg-6b\libjpeg-6b_lpc2106-cmucam3.a(jcmarker.o)
 .debug_info    0x00008d3f     0x177c ../../lib/jpeg-6b\libjpeg-6b_lpc2106-cmucam3.a(jcmaster.o)
 .debug_info    0x0000a4bb     0x14ce ../../lib/jpeg-6b\libjpeg-6b_lpc2106-cmucam3.a(jcomapi.o)
 .debug_info    0x0000b989     0x1a5c ../../lib/jpeg-6b\libjpeg-6b_lpc2106-cmucam3.a(jcparam.o)
 .debug_info    0x0000d3e5     0x16c7 ../../lib/jpeg-6b\libjpeg-6b_lpc2106-cmucam3.a(jcprepct.o)
 .debug_info    0x0000eaac     0x19bb ../../lib/jpeg-6b\libjpeg-6b_lpc2106-cmucam3.a(jcsample.o)
 .debug_info    0x00010467     0x1b10 ../../lib/jpeg-6b\libjpeg-6b_lpc2106-cmucam3.a(jdatadst.o)
 .debug_info    0x00011f77     0x134d ../../lib/jpeg-6b\libjpeg-6b_lpc2106-cmucam3.a(jerror.o)
 .debug_info    0x000132c4      0x2bd ../../lib/jpeg-6b\libjpeg-6b_lpc2106-cmucam3.a(jutils.o)
 .debug_info    0x00013581     0x1efe ../../lib/jpeg-6b\libjpeg-6b_lpc2106-cmucam3.a(jmemmgr.o)
 .debug_info    0x0001547f     0x1414 ../../lib/jpeg-6b\libjpeg-6b_lpc2106-cmucam3.a(jmemnobs.o)
 .debug_info    0x00016893     0x1747 ../../lib/jpeg-6b\libjpeg-6b_lpc2106-cmucam3.a(jccoefct.o)
 .debug_info    0x00017fda     0x19f9 ../../lib/jpeg-6b\libjpeg-6b_lpc2106-cmucam3.a(jccolor.o)
 .debug_info    0x000199d3     0x174e ../../lib/jpeg-6b\libjpeg-6b_lpc2106-cmucam3.a(jcdctmgr.o)
 .debug_info    0x0001b121     0x2104 ../../lib/jpeg-6b\libjpeg-6b_lpc2106-cmucam3.a(jchuff.o)
 .debug_info    0x0001d225      0x1d8 ../../lib/jpeg-6b\libjpeg-6b_lpc2106-cmucam3.a(jfdctint.o)
 .debug_info    0x0001d3fd      0x235 ../../hal/lpc2106-cmucam3\libhal-lpc2106-cmucam3.a(interrupt.o)
 .debug_info    0x0001d632     0x1643 ../../hal/lpc2106-cmucam3\libhal-lpc2106-cmucam3.a(cc3.o)
 .debug_info    0x0001ec75      0x13f ../../hal/lpc2106-cmucam3\libhal-lpc2106-cmucam3.a(cc3_hal.o)
 .debug_info    0x0001edb4      0xb03 ../../hal/lpc2106-cmucam3\libhal-lpc2106-cmucam3.a(syscalls.o)
 .debug_info    0x0001f8b7      0xe3b ../../hal/lpc2106-cmucam3\libhal-lpc2106-cmucam3.a(serial.o)
 .debug_info    0x000206f2      0x2b8 ../../hal/lpc2106-cmucam3\libhal-lpc2106-cmucam3.a(servo.o)
 .debug_info    0x000209aa     0x15fa ../../hal/lpc2106-cmucam3\libhal-lpc2106-cmucam3.a(rdcf2.o)
 .debug_info    0x00021fa4      0xceb ../../hal/lpc2106-cmucam3\libhal-lpc2106-cmucam3.a(mmc_hardware.o)
 .debug_info    0x00022c8f      0xc49 ../../hal/lpc2106-cmucam3\libhal-lpc2106-cmucam3.a(mmc_driver.o)
 .debug_info    0x000238d8      0x1a9 ../../hal/lpc2106-cmucam3\libhal-lpc2106-cmucam3.a(gpio.o)
 .debug_info    0x00023a81      0x59a ../../hal/lpc2106-cmucam3\libhal-lpc2106-cmucam3.a(devices.o)
 .debug_info    0x0002401b      0x7bc ../../hal/lpc2106-cmucam3\libhal-lpc2106-cmucam3.a(uart_driver.o)
 .debug_info    0x000247d7       0x6e ../../hal/lpc2106-cmucam3\libhal-lpc2106-cmucam3.a(startup.o)

.debug_abbrev   0x00000000     0x4587
 *(.debug_abbrev)
 .debug_abbrev  0x00000000      0x27e lpc2106-cmucam3_buildfiles/main.o
 .debug_abbrev  0x0000027e      0x1dd ../../lib/jpeg-6b\libjpeg-6b_lpc2106-cmucam3.a(jcapimin.o)
 .debug_abbrev  0x0000045b      0x1ab ../../lib/jpeg-6b\libjpeg-6b_lpc2106-cmucam3.a(jcapistd.o)
 .debug_abbrev  0x00000606      0x16a ../../lib/jpeg-6b\libjpeg-6b_lpc2106-cmucam3.a(jcinit.o)
 .debug_abbrev  0x00000770      0x19d ../../lib/jpeg-6b\libjpeg-6b_lpc2106-cmucam3.a(jcmainct.o)
 .debug_abbrev  0x0000090d      0x30e ../../lib/jpeg-6b\libjpeg-6b_lpc2106-cmucam3.a(jcmarker.o)
 .debug_abbrev  0x00000c1b      0x24b ../../lib/jpeg-6b\libjpeg-6b_lpc2106-cmucam3.a(jcmaster.o)
 .debug_abbrev  0x00000e66      0x1ba ../../lib/jpeg-6b\libjpeg-6b_lpc2106-cmucam3.a(jcomapi.o)
 .debug_abbrev  0x00001020      0x2af ../../lib/jpeg-6b\libjpeg-6b_lpc2106-cmucam3.a(jcparam.o)
 .debug_abbrev  0x000012cf      0x1d9 ../../lib/jpeg-6b\libjpeg-6b_lpc2106-cmucam3.a(jcprepct.o)
 .debug_abbrev  0x000014a8      0x219 ../../lib/jpeg-6b\libjpeg-6b_lpc2106-cmucam3.a(jcsample.o)
 .debug_abbrev  0x000016c1      0x1fe ../../lib/jpeg-6b\libjpeg-6b_lpc2106-cmucam3.a(jdatadst.o)
 .debug_abbrev  0x000018bf      0x244 ../../lib/jpeg-6b\libjpeg-6b_lpc2106-cmucam3.a(jerror.o)
 .debug_abbrev  0x00001b03       0xfd ../../lib/jpeg-6b\libjpeg-6b_lpc2106-cmucam3.a(jutils.o)
 .debug_abbrev  0x00001c00      0x2d6 ../../lib/jpeg-6b\libjpeg-6b_lpc2106-cmucam3.a(jmemmgr.o)
 .debug_abbrev  0x00001ed6      0x1f0 ../../lib/jpeg-6b\libjpeg-6b_lpc2106-cmucam3.a(jmemnobs.o)
 .debug_abbrev  0x000020c6      0x24f ../../lib/jpeg-6b\libjpeg-6b_lpc2106-cmucam3.a(jccoefct.o)
 .debug_abbrev  0x00002315      0x230 ../../lib/jpeg-6b\libjpeg-6b_lpc2106-cmucam3.a(jccolor.o)
 .debug_abbrev  0x00002545      0x209 ../../lib/jpeg-6b\libjpeg-6b_lpc2106-cmucam3.a(jcdctmgr.o)
 .debug_abbrev  0x0000274e      0x306 ../../lib/jpeg-6b\libjpeg-6b_lpc2106-cmucam3.a(jchuff.o)
 .debug_abbrev  0x00002a54       0xa0 ../../lib/jpeg-6b\libjpeg-6b_lpc2106-cmucam3.a(jfdctint.o)
 .debug_abbrev  0x00002af4      0x11b ../../hal/lpc2106-cmucam3\libhal-lpc2106-cmucam3.a(interrupt.o)
 .debug_abbrev  0x00002c0f      0x436 ../../hal/lpc2106-cmucam3\libhal-lpc2106-cmucam3.a(cc3.o)
 .debug_abbrev  0x00003045       0x7d ../../hal/lpc2106-cmucam3\libhal-lpc2106-cmucam3.a(cc3_hal.o)
 .debug_abbrev  0x000030c2      0x295 ../../hal/lpc2106-cmucam3\libhal-lpc2106-cmucam3.a(syscalls.o)
 .debug_abbrev  0x00003357      0x35f ../../hal/lpc2106-cmucam3\libhal-lpc2106-cmucam3.a(serial.o)
 .debug_abbrev  0x000036b6      0x187 ../../hal/lpc2106-cmucam3\libhal-lpc2106-cmucam3.a(servo.o)
 .debug_abbrev  0x0000383d      0x391 ../../hal/lpc2106-cmucam3\libhal-lpc2106-cmucam3.a(rdcf2.o)
 .debug_abbrev  0x00003bce      0x318 ../../hal/lpc2106-cmucam3\libhal-lpc2106-cmucam3.a(mmc_hardware.o)
 .debug_abbrev  0x00003ee6      0x279 ../../hal/lpc2106-cmucam3\libhal-lpc2106-cmucam3.a(mmc_driver.o)
 .debug_abbrev  0x0000415f      0x10f ../../hal/lpc2106-cmucam3\libhal-lpc2106-cmucam3.a(gpio.o)
 .debug_abbrev  0x0000426e      0x173 ../../hal/lpc2106-cmucam3\libhal-lpc2106-cmucam3.a(devices.o)
 .debug_abbrev  0x000043e1      0x192 ../../hal/lpc2106-cmucam3\libhal-lpc2106-cmucam3.a(uart_driver.o)
 .debug_abbrev  0x00004573       0x14 ../../hal/lpc2106-cmucam3\libhal-lpc2106-cmucam3.a(startup.o)

.debug_line     0x00000000     0x6aa8
 *(.debug_line)
 .debug_line    0x00000000      0x273 lpc2106-cmucam3_buildfiles/main.o
 .debug_line    0x00000273      0x22a ../../lib/jpeg-6b\libjpeg-6b_lpc2106-cmucam3.a(jcapimin.o)
 .debug_line    0x0000049d      0x139 ../../lib/jpeg-6b\libjpeg-6b_lpc2106-cmucam3.a(jcapistd.o)
 .debug_line    0x000005d6      0x10c ../../lib/jpeg-6b\libjpeg-6b_lpc2106-cmucam3.a(jcinit.o)
 .debug_line    0x000006e2      0x15e ../../lib/jpeg-6b\libjpeg-6b_lpc2106-cmucam3.a(jcmainct.o)
 .debug_line    0x00000840      0x392 ../../lib/jpeg-6b\libjpeg-6b_lpc2106-cmucam3.a(jcmarker.o)
 .debug_line    0x00000bd2      0x2bf ../../lib/jpeg-6b\libjpeg-6b_lpc2106-cmucam3.a(jcmaster.o)
 .debug_line    0x00000e91      0x129 ../../lib/jpeg-6b\libjpeg-6b_lpc2106-cmucam3.a(jcomapi.o)
 .debug_line    0x00000fba      0x2dc ../../lib/jpeg-6b\libjpeg-6b_lpc2106-cmucam3.a(jcparam.o)
 .debug_line    0x00001296      0x1cc ../../lib/jpeg-6b\libjpeg-6b_lpc2106-cmucam3.a(jcprepct.o)
 .debug_line    0x00001462      0x3b8 ../../lib/jpeg-6b\libjpeg-6b_lpc2106-cmucam3.a(jcsample.o)
 .debug_line    0x0000181a      0x244 ../../lib/jpeg-6b\libjpeg-6b_lpc2106-cmucam3.a(jdatadst.o)
 .debug_line    0x00001a5e      0x221 ../../lib/jpeg-6b\libjpeg-6b_lpc2106-cmucam3.a(jerror.o)
 .debug_line    0x00001c7f      0x159 ../../lib/jpeg-6b\libjpeg-6b_lpc2106-cmucam3.a(jutils.o)
 .debug_line    0x00001dd8      0x643 ../../lib/jpeg-6b\libjpeg-6b_lpc2106-cmucam3.a(jmemmgr.o)
 .debug_line    0x0000241b      0x269 ../../lib/jpeg-6b\libjpeg-6b_lpc2106-cmucam3.a(jmemnobs.o)
 .debug_line    0x00002684      0x24e ../../lib/jpeg-6b\libjpeg-6b_lpc2106-cmucam3.a(jccoefct.o)
 .debug_line    0x000028d2      0x63a ../../lib/jpeg-6b\libjpeg-6b_lpc2106-cmucam3.a(jccolor.o)
 .debug_line    0x00002f0c      0x25b ../../lib/jpeg-6b\libjpeg-6b_lpc2106-cmucam3.a(jcdctmgr.o)
 .debug_line    0x00003167      0x657 ../../lib/jpeg-6b\libjpeg-6b_lpc2106-cmucam3.a(jchuff.o)
 .debug_line    0x000037be      0x882 ../../lib/jpeg-6b\libjpeg-6b_lpc2106-cmucam3.a(jfdctint.o)
 .debug_line    0x00004040      0x1d2 ../../hal/lpc2106-cmucam3\libhal-lpc2106-cmucam3.a(interrupt.o)
 .debug_line    0x00004212      0x855 ../../hal/lpc2106-cmucam3\libhal-lpc2106-cmucam3.a(cc3.o)
 .debug_line    0x00004a67       0xf3 ../../hal/lpc2106-cmucam3\libhal-lpc2106-cmucam3.a(cc3_hal.o)
 .debug_line    0x00004b5a      0x3e5 ../../hal/lpc2106-cmucam3\libhal-lpc2106-cmucam3.a(syscalls.o)
 .debug_line    0x00004f3f      0x3d5 ../../hal/lpc2106-cmucam3\libhal-lpc2106-cmucam3.a(serial.o)
 .debug_line    0x00005314      0x1a3 ../../hal/lpc2106-cmucam3\libhal-lpc2106-cmucam3.a(servo.o)
 .debug_line    0x000054b7      0x93a ../../hal/lpc2106-cmucam3\libhal-lpc2106-cmucam3.a(rdcf2.o)
 .debug_line    0x00005df1      0x379 ../../hal/lpc2106-cmucam3\libhal-lpc2106-cmucam3.a(mmc_hardware.o)
 .debug_line    0x0000616a      0x355 ../../hal/lpc2106-cmucam3\libhal-lpc2106-cmucam3.a(mmc_driver.o)
 .debug_line    0x000064bf      0x115 ../../hal/lpc2106-cmucam3\libhal-lpc2106-cmucam3.a(gpio.o)
 .debug_line    0x000065d4      0x1a5 ../../hal/lpc2106-cmucam3\libhal-lpc2106-cmucam3.a(devices.o)
 .debug_line    0x00006779      0x2af ../../hal/lpc2106-cmucam3\libhal-lpc2106-cmucam3.a(uart_driver.o)
 .debug_line    0x00006a28       0x80 ../../hal/lpc2106-cmucam3\libhal-lpc2106-cmucam3.a(startup.o)

.debug_frame    0x00000000     0x2ee0
 *(.debug_frame)
 .debug_frame   0x00000000       0x38 lpc2106-cmucam3_buildfiles/main.o
 .debug_frame   0x00000038       0xf8 ../../lib/jpeg-6b\libjpeg-6b_lpc2106-cmucam3.a(jcapimin.o)
 .debug_frame   0x00000130       0x6c ../../lib/jpeg-6b\libjpeg-6b_lpc2106-cmucam3.a(jcapistd.o)
 .debug_frame   0x0000019c       0x2c ../../lib/jpeg-6b\libjpeg-6b_lpc2106-cmucam3.a(jcinit.o)
 .debug_frame   0x000001c8       0x70 ../../lib/jpeg-6b\libjpeg-6b_lpc2106-cmucam3.a(jcmainct.o)
 .debug_frame   0x00000238      0x18c ../../lib/jpeg-6b\libjpeg-6b_lpc2106-cmucam3.a(jcmarker.o)
 .debug_frame   0x000003c4       0xac ../../lib/jpeg-6b\libjpeg-6b_lpc2106-cmucam3.a(jcmaster.o)
 .debug_frame   0x00000470       0x70 ../../lib/jpeg-6b\libjpeg-6b_lpc2106-cmucam3.a(jcomapi.o)
 .debug_frame   0x000004e0       0xf8 ../../lib/jpeg-6b\libjpeg-6b_lpc2106-cmucam3.a(jcparam.o)
 .debug_frame   0x000005d8       0xa0 ../../lib/jpeg-6b\libjpeg-6b_lpc2106-cmucam3.a(jcprepct.o)
 .debug_frame   0x00000678      0x130 ../../lib/jpeg-6b\libjpeg-6b_lpc2106-cmucam3.a(jcsample.o)
 .debug_frame   0x000007a8       0x7c ../../lib/jpeg-6b\libjpeg-6b_lpc2106-cmucam3.a(jdatadst.o)
 .debug_frame   0x00000824       0x98 ../../lib/jpeg-6b\libjpeg-6b_lpc2106-cmucam3.a(jerror.o)
 .debug_frame   0x000008bc       0x94 ../../lib/jpeg-6b\libjpeg-6b_lpc2106-cmucam3.a(jutils.o)
 .debug_frame   0x00000950      0x204 ../../lib/jpeg-6b\libjpeg-6b_lpc2106-cmucam3.a(jmemmgr.o)
 .debug_frame   0x00000b54       0xb8 ../../lib/jpeg-6b\libjpeg-6b_lpc2106-cmucam3.a(jmemnobs.o)
 .debug_frame   0x00000c0c       0x78 ../../lib/jpeg-6b\libjpeg-6b_lpc2106-cmucam3.a(jccoefct.o)
 .debug_frame   0x00000c84      0x128 ../../lib/jpeg-6b\libjpeg-6b_lpc2106-cmucam3.a(jccolor.o)
 .debug_frame   0x00000dac       0x84 ../../lib/jpeg-6b\libjpeg-6b_lpc2106-cmucam3.a(jcdctmgr.o)
 .debug_frame   0x00000e30       0xd8 ../../lib/jpeg-6b\libjpeg-6b_lpc2106-cmucam3.a(jchuff.o)
 .debug_frame   0x00000f08       0x38 ../../lib/jpeg-6b\libjpeg-6b_lpc2106-cmucam3.a(jfdctint.o)
 .debug_frame   0x00000f40      0x104 ../../hal/lpc2106-cmucam3\libhal-lpc2106-cmucam3.a(interrupt.o)
 .debug_frame   0x00001044      0x250 ../../hal/lpc2106-cmucam3\libhal-lpc2106-cmucam3.a(cc3.o)
 .debug_frame   0x00001294       0xac ../../hal/lpc2106-cmucam3\libhal-lpc2106-cmucam3.a(cc3_hal.o)
 .debug_frame   0x00001340      0x1d0 ../../hal/lpc2106-cmucam3\libhal-lpc2106-cmucam3.a(syscalls.o)
 .debug_frame   0x00001510      0x134 ../../hal/lpc2106-cmucam3\libhal-lpc2106-cmucam3.a(serial.o)
 .debug_frame   0x00001644       0x64 ../../hal/lpc2106-cmucam3\libhal-lpc2106-cmucam3.a(servo.o)
 .debug_frame   0x000016a8      0x358 ../../hal/lpc2106-cmucam3\libhal-lpc2106-cmucam3.a(rdcf2.o)
 .debug_frame   0x00001a00       0xcc ../../hal/lpc2106-cmucam3\libhal-lpc2106-cmucam3.a(mmc_hardware.o)
 .debug_frame   0x00001acc      0x114 ../../hal/lpc2106-cmucam3\libhal-lpc2106-cmucam3.a(mmc_driver.o)
 .debug_frame   0x00001be0       0x58 ../../hal/lpc2106-cmucam3\libhal-lpc2106-cmucam3.a(gpio.o)
 .debug_frame   0x00001c38       0x6c ../../hal/lpc2106-cmucam3\libhal-lpc2106-cmucam3.a(devices.o)
 .debug_frame   0x00001ca4       0xf4 ../../hal/lpc2106-cmucam3\libhal-lpc2106-cmucam3.a(uart_driver.o)
 .debug_frame   0x00001d98       0x20 c:/program files/codesourcery/sourcery g++ lite/bin/../lib/gcc/arm-none-eabi/4.5.1\libgcc.a(_udivsi3.o)
 .debug_frame   0x00001db8       0x20 c:/program files/codesourcery/sourcery g++ lite/bin/../lib/gcc/arm-none-eabi/4.5.1\libgcc.a(_divsi3.o)
 .debug_frame   0x00001dd8       0x28 c:/program files/codesourcery/sourcery g++ lite/bin/../lib/gcc/arm-none-eabi/4.5.1/../../../../arm-none-eabi/lib\libc.a(lib_a-calloc.o)
 .debug_frame   0x00001e00       0x28 c:/program files/codesourcery/sourcery g++ lite/bin/../lib/gcc/arm-none-eabi/4.5.1/../../../../arm-none-eabi/lib\libc.a(lib_a-callocr.o)
 .debug_frame   0x00001e28       0x28 c:/program files/codesourcery/sourcery g++ lite/bin/../lib/gcc/arm-none-eabi/4.5.1/../../../../arm-none-eabi/lib\libc.a(lib_a-exit.o)
 .debug_frame   0x00001e50       0x3c c:/program files/codesourcery/sourcery g++ lite/bin/../lib/gcc/arm-none-eabi/4.5.1/../../../../arm-none-eabi/lib\libc.a(lib_a-fclose.o)
 .debug_frame   0x00001e8c       0x48 c:/program files/codesourcery/sourcery g++ lite/bin/../lib/gcc/arm-none-eabi/4.5.1/../../../../arm-none-eabi/lib\libc.a(lib_a-fflush.o)
 .debug_frame   0x00001ed4      0x12c c:/program files/codesourcery/sourcery g++ lite/bin/../lib/gcc/arm-none-eabi/4.5.1/../../../../arm-none-eabi/lib\libc.a(lib_a-findfp.o)
 .debug_frame   0x00002000       0x54 c:/program files/codesourcery/sourcery g++ lite/bin/../lib/gcc/arm-none-eabi/4.5.1/../../../../arm-none-eabi/lib\libc.a(lib_a-fiprintf.o)
 .debug_frame   0x00002054       0x44 c:/program files/codesourcery/sourcery g++ lite/bin/../lib/gcc/arm-none-eabi/4.5.1/../../../../arm-none-eabi/lib\libc.a(lib_a-fopen.o)
 .debug_frame   0x00002098       0x50 c:/program files/codesourcery/sourcery g++ lite/bin/../lib/gcc/arm-none-eabi/4.5.1/../../../../arm-none-eabi/lib\libc.a(lib_a-freer.o)
 .debug_frame   0x000020e8       0x54 c:/program files/codesourcery/sourcery g++ lite/bin/../lib/gcc/arm-none-eabi/4.5.1/../../../../arm-none-eabi/lib\libc.a(lib_a-fseek.o)
 .debug_frame   0x0000213c       0x2c c:/program files/codesourcery/sourcery g++ lite/bin/../lib/gcc/arm-none-eabi/4.5.1/../../../../arm-none-eabi/lib\libc.a(lib_a-fstatr.o)
 .debug_frame   0x00002168       0x54 c:/program files/codesourcery/sourcery g++ lite/bin/../lib/gcc/arm-none-eabi/4.5.1/../../../../arm-none-eabi/lib\libc.a(lib_a-fwalk.o)
 .debug_frame   0x000021bc       0x54 c:/program files/codesourcery/sourcery g++ lite/bin/../lib/gcc/arm-none-eabi/4.5.1/../../../../arm-none-eabi/lib\libc.a(lib_a-fwrite.o)
 .debug_frame   0x00002210       0x58 c:/program files/codesourcery/sourcery g++ lite/bin/../lib/gcc/arm-none-eabi/4.5.1/../../../../arm-none-eabi/lib\libc.a(lib_a-iprintf.o)
 .debug_frame   0x00002268       0x28 c:/program files/codesourcery/sourcery g++ lite/bin/../lib/gcc/arm-none-eabi/4.5.1/../../../../arm-none-eabi/lib\libc.a(lib_a-lcltime_r.o)
 .debug_frame   0x00002290       0x34 c:/program files/codesourcery/sourcery g++ lite/bin/../lib/gcc/arm-none-eabi/4.5.1/../../../../arm-none-eabi/lib\libc.a(lib_a-makebuf.o)
 .debug_frame   0x000022c4       0x40 c:/program files/codesourcery/sourcery g++ lite/bin/../lib/gcc/arm-none-eabi/4.5.1/../../../../arm-none-eabi/lib\libc.a(lib_a-malloc.o)
 .debug_frame   0x00002304       0x3c c:/program files/codesourcery/sourcery g++ lite/bin/../lib/gcc/arm-none-eabi/4.5.1/../../../../arm-none-eabi/lib\libc.a(lib_a-mallocr.o)
 .debug_frame   0x00002340       0x28 c:/program files/codesourcery/sourcery g++ lite/bin/../lib/gcc/arm-none-eabi/4.5.1/../../../../arm-none-eabi/lib\libc.a(lib_a-memcmp.o)
 .debug_frame   0x00002368       0x30 c:/program files/codesourcery/sourcery g++ lite/bin/../lib/gcc/arm-none-eabi/4.5.1/../../../../arm-none-eabi/lib\libc.a(lib_a-memcpy.o)
 .debug_frame   0x00002398       0x28 c:/program files/codesourcery/sourcery g++ lite/bin/../lib/gcc/arm-none-eabi/4.5.1/../../../../arm-none-eabi/lib\libc.a(lib_a-memset.o)
 .debug_frame   0x000023c0       0x60 c:/program files/codesourcery/sourcery g++ lite/bin/../lib/gcc/arm-none-eabi/4.5.1/../../../../arm-none-eabi/lib\libc.a(lib_a-mktm_r.o)
 .debug_frame   0x00002420       0x30 c:/program files/codesourcery/sourcery g++ lite/bin/../lib/gcc/arm-none-eabi/4.5.1/../../../../arm-none-eabi/lib\libc.a(lib_a-mlock.o)
 .debug_frame   0x00002450       0x2c c:/program files/codesourcery/sourcery g++ lite/bin/../lib/gcc/arm-none-eabi/4.5.1/../../../../arm-none-eabi/lib\libc.a(lib_a-openr.o)
 .debug_frame   0x0000247c       0x68 c:/program files/codesourcery/sourcery g++ lite/bin/../lib/gcc/arm-none-eabi/4.5.1/../../../../arm-none-eabi/lib\libc.a(lib_a-reent.o)
 .debug_frame   0x000024e4       0x44 c:/program files/codesourcery/sourcery g++ lite/bin/../lib/gcc/arm-none-eabi/4.5.1/../../../../arm-none-eabi/lib\libc.a(lib_a-refill.o)
 .debug_frame   0x00002528       0x2c c:/program files/codesourcery/sourcery g++ lite/bin/../lib/gcc/arm-none-eabi/4.5.1/../../../../arm-none-eabi/lib\libc.a(lib_a-sbrkr.o)
 .debug_frame   0x00002554       0x28 c:/program files/codesourcery/sourcery g++ lite/bin/../lib/gcc/arm-none-eabi/4.5.1/../../../../arm-none-eabi/lib\libc.a(lib_a-setbuf.o)
 .debug_frame   0x0000257c       0x34 c:/program files/codesourcery/sourcery g++ lite/bin/../lib/gcc/arm-none-eabi/4.5.1/../../../../arm-none-eabi/lib\libc.a(lib_a-setvbuf.o)
 .debug_frame   0x000025b0       0x60 c:/program files/codesourcery/sourcery g++ lite/bin/../lib/gcc/arm-none-eabi/4.5.1/../../../../arm-none-eabi/lib\libc.a(lib_a-siprintf.o)
 .debug_frame   0x00002610       0x5c c:/program files/codesourcery/sourcery g++ lite/bin/../lib/gcc/arm-none-eabi/4.5.1/../../../../arm-none-eabi/lib\libc.a(lib_a-sniprintf.o)
 .debug_frame   0x0000266c       0x88 c:/program files/codesourcery/sourcery g++ lite/bin/../lib/gcc/arm-none-eabi/4.5.1/../../../../arm-none-eabi/lib\libc.a(lib_a-stdio.o)
 .debug_frame   0x000026f4       0x28 c:/program files/codesourcery/sourcery g++ lite/bin/../lib/gcc/arm-none-eabi/4.5.1/../../../../arm-none-eabi/lib\libc.a(lib_a-strdup.o)
 .debug_frame   0x0000271c       0x2c c:/program files/codesourcery/sourcery g++ lite/bin/../lib/gcc/arm-none-eabi/4.5.1/../../../../arm-none-eabi/lib\libc.a(lib_a-strdup_r.o)
 .debug_frame   0x00002748       0x20 c:/program files/codesourcery/sourcery g++ lite/bin/../lib/gcc/arm-none-eabi/4.5.1/../../../../arm-none-eabi/lib\libc.a(lib_a-strlen.o)
 .debug_frame   0x00002768       0x54 c:/program files/codesourcery/sourcery g++ lite/bin/../lib/gcc/arm-none-eabi/4.5.1/../../../../arm-none-eabi/lib\libc.a(lib_a-strtol.o)
 .debug_frame   0x000027bc       0x68 c:/program files/codesourcery/sourcery g++ lite/bin/../lib/gcc/arm-none-eabi/4.5.1/../../../../arm-none-eabi/lib\libc.a(lib_a-svfiprintf.o)
 .debug_frame   0x00002824       0x28 c:/program files/codesourcery/sourcery g++ lite/bin/../lib/gcc/arm-none-eabi/4.5.1/../../../../arm-none-eabi/lib\libc.a(lib_a-sysgettod.o)
 .debug_frame   0x0000284c       0x30 c:/program files/codesourcery/sourcery g++ lite/bin/../lib/gcc/arm-none-eabi/4.5.1/../../../../arm-none-eabi/lib\libc.a(lib_a-tzlock.o)
 .debug_frame   0x0000287c       0x7c c:/program files/codesourcery/sourcery g++ lite/bin/../lib/gcc/arm-none-eabi/4.5.1/../../../../arm-none-eabi/lib\libc.a(lib_a-vfiprintf.o)
 .debug_frame   0x000028f8       0x2c c:/program files/codesourcery/sourcery g++ lite/bin/../lib/gcc/arm-none-eabi/4.5.1/../../../../arm-none-eabi/lib\libc.a(lib_a-writer.o)
 .debug_frame   0x00002924       0x2c c:/program files/codesourcery/sourcery g++ lite/bin/../lib/gcc/arm-none-eabi/4.5.1/../../../../arm-none-eabi/lib\libc.a(lib_a-wsetup.o)
 .debug_frame   0x00002950       0x54 c:/program files/codesourcery/sourcery g++ lite/bin/../lib/gcc/arm-none-eabi/4.5.1/../../../../arm-none-eabi/lib\libc.a(lib_a-__call_atexit.o)
 .debug_frame   0x000029a4       0x28 c:/program files/codesourcery/sourcery g++ lite/bin/../lib/gcc/arm-none-eabi/4.5.1/../../../../arm-none-eabi/lib\libc.a(lib_a-atexit.o)
 .debug_frame   0x000029cc       0x2c c:/program files/codesourcery/sourcery g++ lite/bin/../lib/gcc/arm-none-eabi/4.5.1/../../../../arm-none-eabi/lib\libc.a(lib_a-closer.o)
 .debug_frame   0x000029f8       0x2c c:/program files/codesourcery/sourcery g++ lite/bin/../lib/gcc/arm-none-eabi/4.5.1/../../../../arm-none-eabi/lib\libc.a(lib_a-fini.o)
 .debug_frame   0x00002a24       0x28 c:/program files/codesourcery/sourcery g++ lite/bin/../lib/gcc/arm-none-eabi/4.5.1/../../../../arm-none-eabi/lib\libc.a(lib_a-flags.o)
 .debug_frame   0x00002a4c       0x54 c:/program files/codesourcery/sourcery g++ lite/bin/../lib/gcc/arm-none-eabi/4.5.1/../../../../arm-none-eabi/lib\libc.a(lib_a-fputwc.o)
 .debug_frame   0x00002aa0       0x3c c:/program files/codesourcery/sourcery g++ lite/bin/../lib/gcc/arm-none-eabi/4.5.1/../../../../arm-none-eabi/lib\libc.a(lib_a-fvwrite.o)
 .debug_frame   0x00002adc       0x2c c:/program files/codesourcery/sourcery g++ lite/bin/../lib/gcc/arm-none-eabi/4.5.1/../../../../arm-none-eabi/lib\libc.a(lib_a-gettimeofdayr.o)
 .debug_frame   0x00002b08       0x20 c:/program files/codesourcery/sourcery g++ lite/bin/../lib/gcc/arm-none-eabi/4.5.1/../../../../arm-none-eabi/lib\libc.a(lib_a-gettzinfo.o)
 .debug_frame   0x00002b28       0x2c c:/program files/codesourcery/sourcery g++ lite/bin/../lib/gcc/arm-none-eabi/4.5.1/../../../../arm-none-eabi/lib\libc.a(lib_a-isattyr.o)
 .debug_frame   0x00002b54       0x98 c:/program files/codesourcery/sourcery g++ lite/bin/../lib/gcc/arm-none-eabi/4.5.1/../../../../arm-none-eabi/lib\libc.a(lib_a-locale.o)
 .debug_frame   0x00002bec       0x2c c:/program files/codesourcery/sourcery g++ lite/bin/../lib/gcc/arm-none-eabi/4.5.1/../../../../arm-none-eabi/lib\libc.a(lib_a-lseekr.o)
 .debug_frame   0x00002c18       0x2c c:/program files/codesourcery/sourcery g++ lite/bin/../lib/gcc/arm-none-eabi/4.5.1/../../../../arm-none-eabi/lib\libc.a(lib_a-memchr.o)
 .debug_frame   0x00002c44       0x2c c:/program files/codesourcery/sourcery g++ lite/bin/../lib/gcc/arm-none-eabi/4.5.1/../../../../arm-none-eabi/lib\libc.a(lib_a-memmove.o)
 .debug_frame   0x00002c70       0x2c c:/program files/codesourcery/sourcery g++ lite/bin/../lib/gcc/arm-none-eabi/4.5.1/../../../../arm-none-eabi/lib\libc.a(lib_a-readr.o)
 .debug_frame   0x00002c9c       0x3c c:/program files/codesourcery/sourcery g++ lite/bin/../lib/gcc/arm-none-eabi/4.5.1/../../../../arm-none-eabi/lib\libc.a(lib_a-reallocr.o)
 .debug_frame   0x00002cd8       0x30 c:/program files/codesourcery/sourcery g++ lite/bin/../lib/gcc/arm-none-eabi/4.5.1/../../../../arm-none-eabi/lib\libc.a(lib_a-strcmp.o)
 .debug_frame   0x00002d08       0x3c c:/program files/codesourcery/sourcery g++ lite/bin/../lib/gcc/arm-none-eabi/4.5.1/../../../../arm-none-eabi/lib\libc.a(lib_a-wbuf.o)
 .debug_frame   0x00002d44       0x5c c:/program files/codesourcery/sourcery g++ lite/bin/../lib/gcc/arm-none-eabi/4.5.1/../../../../arm-none-eabi/lib\libc.a(lib_a-wcrtomb.o)
 .debug_frame   0x00002da0       0x44 c:/program files/codesourcery/sourcery g++ lite/bin/../lib/gcc/arm-none-eabi/4.5.1/../../../../arm-none-eabi/lib\libc.a(lib_a-wctomb_r.o)
 .debug_frame   0x00002de4       0x34 c:/program files/codesourcery/sourcery g++ lite/bin/../lib/gcc/arm-none-eabi/4.5.1/../../../../arm-none-eabi/lib\libc.a(lib_a-__atexit.o)
 .debug_frame   0x00002e18       0x50 c:/program files/codesourcery/sourcery g++ lite/bin/../lib/gcc/arm-none-eabi/4.5.1\libgcc.a(bpabi.o)
 .debug_frame   0x00002e68       0x3c c:/program files/codesourcery/sourcery g++ lite/bin/../lib/gcc/arm-none-eabi/4.5.1\libgcc.a(_divdi3.o)
 .debug_frame   0x00002ea4       0x3c c:/program files/codesourcery/sourcery g++ lite/bin/../lib/gcc/arm-none-eabi/4.5.1\libgcc.a(_udivdi3.o)

.debug_str      0x00000000     0x4c59
 *(.debug_str)
 .debug_str     0x00000000     0x10c1 lpc2106-cmucam3_buildfiles/main.o
                               0x11fa (size before relaxing)
 .debug_str     0x000010c1      0xb09 ../../lib/jpeg-6b\libjpeg-6b_lpc2106-cmucam3.a(jcapimin.o)
                               0x1515 (size before relaxing)
 .debug_str     0x00001bca       0x80 ../../lib/jpeg-6b\libjpeg-6b_lpc2106-cmucam3.a(jcapistd.o)
                               0x14b0 (size before relaxing)
 .debug_str     0x00001c4a       0x1f ../../lib/jpeg-6b\libjpeg-6b_lpc2106-cmucam3.a(jcinit.o)
                               0x1438 (size before relaxing)
 .debug_str     0x00001c69       0xd5 ../../lib/jpeg-6b\libjpeg-6b_lpc2106-cmucam3.a(jcmainct.o)
                               0x14f5 (size before relaxing)
 .debug_str     0x00001d3e      0x27a ../../lib/jpeg-6b\libjpeg-6b_lpc2106-cmucam3.a(jcmarker.o)
                               0x16ca (size before relaxing)
 .debug_str     0x00001fb8       0xe6 ../../lib/jpeg-6b\libjpeg-6b_lpc2106-cmucam3.a(jcmaster.o)
                               0x1537 (size before relaxing)
 .debug_str     0x0000209e      0x687 ../../lib/jpeg-6b\libjpeg-6b_lpc2106-cmucam3.a(jcomapi.o)
                                0xefd (size before relaxing)
 .debug_str     0x00002725      0x1cb ../../lib/jpeg-6b\libjpeg-6b_lpc2106-cmucam3.a(jcparam.o)
                               0x1604 (size before relaxing)
 .debug_str     0x000028f0       0xf3 ../../lib/jpeg-6b\libjpeg-6b_lpc2106-cmucam3.a(jcprepct.o)
                               0x1552 (size before relaxing)
 .debug_str     0x000029e3      0x1aa ../../lib/jpeg-6b\libjpeg-6b_lpc2106-cmucam3.a(jcsample.o)
                               0x1603 (size before relaxing)
 .debug_str     0x00002b8d       0x4c ../../lib/jpeg-6b\libjpeg-6b_lpc2106-cmucam3.a(jdatadst.o)
                               0x168e (size before relaxing)
 .debug_str     0x00002bd9       0x5d ../../lib/jpeg-6b\libjpeg-6b_lpc2106-cmucam3.a(jerror.o)
                               0x1077 (size before relaxing)
 .debug_str     0x00002c36       0xad ../../lib/jpeg-6b\libjpeg-6b_lpc2106-cmucam3.a(jutils.o)
                                0x1f9 (size before relaxing)
 .debug_str     0x00002ce3      0x361 ../../lib/jpeg-6b\libjpeg-6b_lpc2106-cmucam3.a(jmemmgr.o)
                               0x13f9 (size before relaxing)
 .debug_str     0x00003044       0xd7 ../../lib/jpeg-6b\libjpeg-6b_lpc2106-cmucam3.a(jmemnobs.o)
                               0x117e (size before relaxing)
 .debug_str     0x0000311b      0x101 ../../lib/jpeg-6b\libjpeg-6b_lpc2106-cmucam3.a(jccoefct.o)
                               0x154e (size before relaxing)
 .debug_str     0x0000321c       0xe9 ../../lib/jpeg-6b\libjpeg-6b_lpc2106-cmucam3.a(jccolor.o)
                               0x1547 (size before relaxing)
 .debug_str     0x00003305       0xd3 ../../lib/jpeg-6b\libjpeg-6b_lpc2106-cmucam3.a(jcdctmgr.o)
                               0x1530 (size before relaxing)
 .debug_str     0x000033d8      0x19e ../../lib/jpeg-6b\libjpeg-6b_lpc2106-cmucam3.a(jchuff.o)
                               0x1647 (size before relaxing)
 .debug_str     0x00003576       0x5b ../../lib/jpeg-6b\libjpeg-6b_lpc2106-cmucam3.a(jfdctint.o)
                                0x14b (size before relaxing)
 .debug_str     0x000035d1      0x12e ../../hal/lpc2106-cmucam3\libhal-lpc2106-cmucam3.a(interrupt.o)
                                0x1d5 (size before relaxing)
 .debug_str     0x000036ff      0x4d0 ../../hal/lpc2106-cmucam3\libhal-lpc2106-cmucam3.a(cc3.o)
                                0x82f (size before relaxing)
 .debug_str     0x00003bcf       0x77 ../../hal/lpc2106-cmucam3\libhal-lpc2106-cmucam3.a(cc3_hal.o)
                                0x14d (size before relaxing)
 .debug_str     0x00003c46      0x246 ../../hal/lpc2106-cmucam3\libhal-lpc2106-cmucam3.a(syscalls.o)
                                0x41c (size before relaxing)
 .debug_str     0x00003e8c      0x15b ../../hal/lpc2106-cmucam3\libhal-lpc2106-cmucam3.a(serial.o)
                                0x824 (size before relaxing)
 .debug_str     0x00003fe7       0xd9 ../../hal/lpc2106-cmucam3\libhal-lpc2106-cmucam3.a(servo.o)
                                0x1cc (size before relaxing)
 .debug_str     0x000040c0      0x562 ../../hal/lpc2106-cmucam3\libhal-lpc2106-cmucam3.a(rdcf2.o)
                                0x7b0 (size before relaxing)
 .debug_str     0x00004622      0x358 ../../hal/lpc2106-cmucam3\libhal-lpc2106-cmucam3.a(mmc_hardware.o)
                                0x54d (size before relaxing)
 .debug_str     0x0000497a       0xb9 ../../hal/lpc2106-cmucam3\libhal-lpc2106-cmucam3.a(mmc_driver.o)
                                0x61e (size before relaxing)
 .debug_str     0x00004a33       0xa7 ../../hal/lpc2106-cmucam3\libhal-lpc2106-cmucam3.a(gpio.o)
                                0x1a8 (size before relaxing)
 .debug_str     0x00004ada       0xb0 ../../hal/lpc2106-cmucam3\libhal-lpc2106-cmucam3.a(devices.o)
                                0x33d (size before relaxing)
 .debug_str     0x00004b8a       0xcf ../../hal/lpc2106-cmucam3\libhal-lpc2106-cmucam3.a(uart_driver.o)
                                0x3d2 (size before relaxing)

.debug_loc      0x00000000     0xcc01
 *(.debug_loc)
 .debug_loc     0x00000000       0xcf lpc2106-cmucam3_buildfiles/main.o
 .debug_loc     0x000000cf      0x503 ../../lib/jpeg-6b\libjpeg-6b_lpc2106-cmucam3.a(jcapimin.o)
 .debug_loc     0x000005d2      0x1de ../../lib/jpeg-6b\libjpeg-6b_lpc2106-cmucam3.a(jcapistd.o)
 .debug_loc     0x000007b0       0x3e ../../lib/jpeg-6b\libjpeg-6b_lpc2106-cmucam3.a(jcinit.o)
 .debug_loc     0x000007ee      0x235 ../../lib/jpeg-6b\libjpeg-6b_lpc2106-cmucam3.a(jcmainct.o)
 .debug_loc     0x00000a23      0xa60 ../../lib/jpeg-6b\libjpeg-6b_lpc2106-cmucam3.a(jcmarker.o)
 .debug_loc     0x00001483      0x3d1 ../../lib/jpeg-6b\libjpeg-6b_lpc2106-cmucam3.a(jcmaster.o)
 .debug_loc     0x00001854      0x102 ../../lib/jpeg-6b\libjpeg-6b_lpc2106-cmucam3.a(jcomapi.o)
 .debug_loc     0x00001956      0x736 ../../lib/jpeg-6b\libjpeg-6b_lpc2106-cmucam3.a(jcparam.o)
 .debug_loc     0x0000208c      0x3cb ../../lib/jpeg-6b\libjpeg-6b_lpc2106-cmucam3.a(jcprepct.o)
 .debug_loc     0x00002457      0x74a ../../lib/jpeg-6b\libjpeg-6b_lpc2106-cmucam3.a(jcsample.o)
 .debug_loc     0x00002ba1      0x187 ../../lib/jpeg-6b\libjpeg-6b_lpc2106-cmucam3.a(jdatadst.o)
 .debug_loc     0x00002d28      0x2a8 ../../lib/jpeg-6b\libjpeg-6b_lpc2106-cmucam3.a(jerror.o)
 .debug_loc     0x00002fd0      0x255 ../../lib/jpeg-6b\libjpeg-6b_lpc2106-cmucam3.a(jutils.o)
 .debug_loc     0x00003225     0x123a ../../lib/jpeg-6b\libjpeg-6b_lpc2106-cmucam3.a(jmemmgr.o)
 .debug_loc     0x0000445f      0x1bd ../../lib/jpeg-6b\libjpeg-6b_lpc2106-cmucam3.a(jmemnobs.o)
 .debug_loc     0x0000461c      0x45b ../../lib/jpeg-6b\libjpeg-6b_lpc2106-cmucam3.a(jccoefct.o)
 .debug_loc     0x00004a77      0x8a1 ../../lib/jpeg-6b\libjpeg-6b_lpc2106-cmucam3.a(jccolor.o)
 .debug_loc     0x00005318      0xb94 ../../lib/jpeg-6b\libjpeg-6b_lpc2106-cmucam3.a(jcdctmgr.o)
 .debug_loc     0x00005eac     0x21f3 ../../lib/jpeg-6b\libjpeg-6b_lpc2106-cmucam3.a(jchuff.o)
 .debug_loc     0x0000809f      0x268 ../../lib/jpeg-6b\libjpeg-6b_lpc2106-cmucam3.a(jfdctint.o)
 .debug_loc     0x00008307      0x11d ../../hal/lpc2106-cmucam3\libhal-lpc2106-cmucam3.a(interrupt.o)
 .debug_loc     0x00008424      0x9ac ../../hal/lpc2106-cmucam3\libhal-lpc2106-cmucam3.a(cc3.o)
 .debug_loc     0x00008dd0      0x129 ../../hal/lpc2106-cmucam3\libhal-lpc2106-cmucam3.a(cc3_hal.o)
 .debug_loc     0x00008ef9      0x791 ../../hal/lpc2106-cmucam3\libhal-lpc2106-cmucam3.a(syscalls.o)
 .debug_loc     0x0000968a      0x2ca ../../hal/lpc2106-cmucam3\libhal-lpc2106-cmucam3.a(serial.o)
 .debug_loc     0x00009954      0x356 ../../hal/lpc2106-cmucam3\libhal-lpc2106-cmucam3.a(servo.o)
 .debug_loc     0x00009caa     0x1b69 ../../hal/lpc2106-cmucam3\libhal-lpc2106-cmucam3.a(rdcf2.o)
 .debug_loc     0x0000b813      0x722 ../../hal/lpc2106-cmucam3\libhal-lpc2106-cmucam3.a(mmc_hardware.o)
 .debug_loc     0x0000bf35      0x670 ../../hal/lpc2106-cmucam3\libhal-lpc2106-cmucam3.a(mmc_driver.o)
 .debug_loc     0x0000c5a5       0xc7 ../../hal/lpc2106-cmucam3\libhal-lpc2106-cmucam3.a(gpio.o)
 .debug_loc     0x0000c66c      0x117 ../../hal/lpc2106-cmucam3\libhal-lpc2106-cmucam3.a(devices.o)
 .debug_loc     0x0000c783      0x47e ../../hal/lpc2106-cmucam3\libhal-lpc2106-cmucam3.a(uart_driver.o)

.debug_macinfo
 *(.debug_macinfo)

.debug_weaknames
 *(.debug_weaknames)

.debug_funcnames
 *(.debug_funcnames)

.debug_typenames
 *(.debug_typenames)

.debug_varnames
 *(.debug_varnames)

.note.gnu.arm.ident
 *(.note.gnu.arm.ident)

.ARM.attributes
                0x00000000       0x30
 *(.ARM.attributes)
 .ARM.attributes
                0x00000000       0x16 c:/program files/codesourcery/sourcery g++ lite/bin/../lib/gcc/arm-none-eabi/4.5.1/crti.o
 .ARM.attributes
                0x00000016       0x34 c:/program files/codesourcery/sourcery g++ lite/bin/../lib/gcc/arm-none-eabi/4.5.1/crtbegin.o
 .ARM.attributes
                0x0000004a       0x34 lpc2106-cmucam3_buildfiles/main.o
 .ARM.attributes
                0x0000007e       0x34 ../../lib/jpeg-6b\libjpeg-6b_lpc2106-cmucam3.a(jcapimin.o)
 .ARM.attributes
                0x000000b2       0x34 ../../lib/jpeg-6b\libjpeg-6b_lpc2106-cmucam3.a(jcapistd.o)
 .ARM.attributes
                0x000000e6       0x34 ../../lib/jpeg-6b\libjpeg-6b_lpc2106-cmucam3.a(jcinit.o)
 .ARM.attributes
                0x0000011a       0x34 ../../lib/jpeg-6b\libjpeg-6b_lpc2106-cmucam3.a(jcmainct.o)
 .ARM.attributes
                0x0000014e       0x34 ../../lib/jpeg-6b\libjpeg-6b_lpc2106-cmucam3.a(jcmarker.o)
 .ARM.attributes
                0x00000182       0x34 ../../lib/jpeg-6b\libjpeg-6b_lpc2106-cmucam3.a(jcmaster.o)
 .ARM.attributes
                0x000001b6       0x34 ../../lib/jpeg-6b\libjpeg-6b_lpc2106-cmucam3.a(jcomapi.o)
 .ARM.attributes
                0x000001ea       0x34 ../../lib/jpeg-6b\libjpeg-6b_lpc2106-cmucam3.a(jcparam.o)
 .ARM.attributes
                0x0000021e       0x34 ../../lib/jpeg-6b\libjpeg-6b_lpc2106-cmucam3.a(jcprepct.o)
 .ARM.attributes
                0x00000252       0x34 ../../lib/jpeg-6b\libjpeg-6b_lpc2106-cmucam3.a(jcsample.o)
 .ARM.attributes
                0x00000286       0x34 ../../lib/jpeg-6b\libjpeg-6b_lpc2106-cmucam3.a(jdatadst.o)
 .ARM.attributes
                0x000002ba       0x34 ../../lib/jpeg-6b\libjpeg-6b_lpc2106-cmucam3.a(jerror.o)
 .ARM.attributes
                0x000002ee       0x34 ../../lib/jpeg-6b\libjpeg-6b_lpc2106-cmucam3.a(jutils.o)
 .ARM.attributes
                0x00000322       0x34 ../../lib/jpeg-6b\libjpeg-6b_lpc2106-cmucam3.a(jmemmgr.o)
 .ARM.attributes
                0x00000356       0x34 ../../lib/jpeg-6b\libjpeg-6b_lpc2106-cmucam3.a(jmemnobs.o)
 .ARM.attributes
                0x0000038a       0x34 ../../lib/jpeg-6b\libjpeg-6b_lpc2106-cmucam3.a(jccoefct.o)
 .ARM.attributes
                0x000003be       0x34 ../../lib/jpeg-6b\libjpeg-6b_lpc2106-cmucam3.a(jccolor.o)
 .ARM.attributes
                0x000003f2       0x34 ../../lib/jpeg-6b\libjpeg-6b_lpc2106-cmucam3.a(jcdctmgr.o)
 .ARM.attributes
                0x00000426       0x34 ../../lib/jpeg-6b\libjpeg-6b_lpc2106-cmucam3.a(jchuff.o)
 .ARM.attributes
                0x0000045a       0x34 ../../lib/jpeg-6b\libjpeg-6b_lpc2106-cmucam3.a(jfdctint.o)
 .ARM.attributes
                0x0000048e       0x34 ../../hal/lpc2106-cmucam3\libhal-lpc2106-cmucam3.a(interrupt.o)
 .ARM.attributes
                0x000004c2       0x34 ../../hal/lpc2106-cmucam3\libhal-lpc2106-cmucam3.a(cc3.o)
 .ARM.attributes
                0x000004f6       0x34 ../../hal/lpc2106-cmucam3\libhal-lpc2106-cmucam3.a(cc3_hal.o)
 .ARM.attributes
                0x0000052a       0x34 ../../hal/lpc2106-cmucam3\libhal-lpc2106-cmucam3.a(syscalls.o)
 .ARM.attributes
                0x0000055e       0x34 ../../hal/lpc2106-cmucam3\libhal-lpc2106-cmucam3.a(serial.o)
 .ARM.attributes
                0x00000592       0x34 ../../hal/lpc2106-cmucam3\libhal-lpc2106-cmucam3.a(servo.o)
 .ARM.attributes
                0x000005c6       0x34 ../../hal/lpc2106-cmucam3\libhal-lpc2106-cmucam3.a(rdcf2.o)
 .ARM.attributes
                0x000005fa       0x34 ../../hal/lpc2106-cmucam3\libhal-lpc2106-cmucam3.a(mmc_hardware.o)
 .ARM.attributes
                0x0000062e       0x34 ../../hal/lpc2106-cmucam3\libhal-lpc2106-cmucam3.a(mmc_driver.o)
 .ARM.attributes
                0x00000662       0x34 ../../hal/lpc2106-cmucam3\libhal-lpc2106-cmucam3.a(gpio.o)
 .ARM.attributes
                0x00000696       0x34 ../../hal/lpc2106-cmucam3\libhal-lpc2106-cmucam3.a(devices.o)
 .ARM.attributes
                0x000006ca       0x34 ../../hal/lpc2106-cmucam3\libhal-lpc2106-cmucam3.a(uart_driver.o)
 .ARM.attributes
                0x000006fe       0x24 ../../hal/lpc2106-cmucam3\libhal-lpc2106-cmucam3.a(startup.o)
 .ARM.attributes
                0x00000722       0x1a c:/program files/codesourcery/sourcery g++ lite/bin/../lib/gcc/arm-none-eabi/4.5.1\libgcc.a(_udivsi3.o)
 .ARM.attributes
                0x0000073c       0x1a c:/program files/codesourcery/sourcery g++ lite/bin/../lib/gcc/arm-none-eabi/4.5.1\libgcc.a(_divsi3.o)
 .ARM.attributes
                0x00000756       0x18 c:/program files/codesourcery/sourcery g++ lite/bin/../lib/gcc/arm-none-eabi/4.5.1\libgcc.a(_dvmd_tls.o)
 .ARM.attributes
                0x0000076e       0x34 c:/program files/codesourcery/sourcery g++ lite/bin/../lib/gcc/arm-none-eabi/4.5.1/../../../../arm-none-eabi/lib\libc.a(lib_a-calloc.o)
 .ARM.attributes
                0x000007a2       0x34 c:/program files/codesourcery/sourcery g++ lite/bin/../lib/gcc/arm-none-eabi/4.5.1/../../../../arm-none-eabi/lib\libc.a(lib_a-callocr.o)
 .ARM.attributes
                0x000007d6       0x34 c:/program files/codesourcery/sourcery g++ lite/bin/../lib/gcc/arm-none-eabi/4.5.1/../../../../arm-none-eabi/lib\libc.a(lib_a-ctype_.o)
 .ARM.attributes
                0x0000080a       0x34 c:/program files/codesourcery/sourcery g++ lite/bin/../lib/gcc/arm-none-eabi/4.5.1/../../../../arm-none-eabi/lib\libc.a(lib_a-exit.o)
 .ARM.attributes
                0x0000083e       0x34 c:/program files/codesourcery/sourcery g++ lite/bin/../lib/gcc/arm-none-eabi/4.5.1/../../../../arm-none-eabi/lib\libc.a(lib_a-fclose.o)
 .ARM.attributes
                0x00000872       0x34 c:/program files/codesourcery/sourcery g++ lite/bin/../lib/gcc/arm-none-eabi/4.5.1/../../../../arm-none-eabi/lib\libc.a(lib_a-fflush.o)
 .ARM.attributes
                0x000008a6       0x34 c:/program files/codesourcery/sourcery g++ lite/bin/../lib/gcc/arm-none-eabi/4.5.1/../../../../arm-none-eabi/lib\libc.a(lib_a-findfp.o)
 .ARM.attributes
                0x000008da       0x34 c:/program files/codesourcery/sourcery g++ lite/bin/../lib/gcc/arm-none-eabi/4.5.1/../../../../arm-none-eabi/lib\libc.a(lib_a-fiprintf.o)
 .ARM.attributes
                0x0000090e       0x34 c:/program files/codesourcery/sourcery g++ lite/bin/../lib/gcc/arm-none-eabi/4.5.1/../../../../arm-none-eabi/lib\libc.a(lib_a-fopen.o)
 .ARM.attributes
                0x00000942       0x34 c:/program files/codesourcery/sourcery g++ lite/bin/../lib/gcc/arm-none-eabi/4.5.1/../../../../arm-none-eabi/lib\libc.a(lib_a-freer.o)
 .ARM.attributes
                0x00000976       0x34 c:/program files/codesourcery/sourcery g++ lite/bin/../lib/gcc/arm-none-eabi/4.5.1/../../../../arm-none-eabi/lib\libc.a(lib_a-fseek.o)
 .ARM.attributes
                0x000009aa       0x34 c:/program files/codesourcery/sourcery g++ lite/bin/../lib/gcc/arm-none-eabi/4.5.1/../../../../arm-none-eabi/lib\libc.a(lib_a-fstatr.o)
 .ARM.attributes
                0x000009de       0x34 c:/program files/codesourcery/sourcery g++ lite/bin/../lib/gcc/arm-none-eabi/4.5.1/../../../../arm-none-eabi/lib\libc.a(lib_a-fwalk.o)
 .ARM.attributes
                0x00000a12       0x34 c:/program files/codesourcery/sourcery g++ lite/bin/../lib/gcc/arm-none-eabi/4.5.1/../../../../arm-none-eabi/lib\libc.a(lib_a-fwrite.o)
 .ARM.attributes
                0x00000a46       0x34 c:/program files/codesourcery/sourcery g++ lite/bin/../lib/gcc/arm-none-eabi/4.5.1/../../../../arm-none-eabi/lib\libc.a(lib_a-impure.o)
 .ARM.attributes
                0x00000a7a       0x34 c:/program files/codesourcery/sourcery g++ lite/bin/../lib/gcc/arm-none-eabi/4.5.1/../../../../arm-none-eabi/lib\libc.a(lib_a-iprintf.o)
 .ARM.attributes
                0x00000aae       0x34 c:/program files/codesourcery/sourcery g++ lite/bin/../lib/gcc/arm-none-eabi/4.5.1/../../../../arm-none-eabi/lib\libc.a(lib_a-lcltime_r.o)
 .ARM.attributes
                0x00000ae2       0x34 c:/program files/codesourcery/sourcery g++ lite/bin/../lib/gcc/arm-none-eabi/4.5.1/../../../../arm-none-eabi/lib\libc.a(lib_a-makebuf.o)
 .ARM.attributes
                0x00000b16       0x34 c:/program files/codesourcery/sourcery g++ lite/bin/../lib/gcc/arm-none-eabi/4.5.1/../../../../arm-none-eabi/lib\libc.a(lib_a-malloc.o)
 .ARM.attributes
                0x00000b4a       0x34 c:/program files/codesourcery/sourcery g++ lite/bin/../lib/gcc/arm-none-eabi/4.5.1/../../../../arm-none-eabi/lib\libc.a(lib_a-mallocr.o)
 .ARM.attributes
                0x00000b7e       0x34 c:/program files/codesourcery/sourcery g++ lite/bin/../lib/gcc/arm-none-eabi/4.5.1/../../../../arm-none-eabi/lib\libc.a(lib_a-memcmp.o)
 .ARM.attributes
                0x00000bb2       0x34 c:/program files/codesourcery/sourcery g++ lite/bin/../lib/gcc/arm-none-eabi/4.5.1/../../../../arm-none-eabi/lib\libc.a(lib_a-memcpy.o)
 .ARM.attributes
                0x00000be6       0x34 c:/program files/codesourcery/sourcery g++ lite/bin/../lib/gcc/arm-none-eabi/4.5.1/../../../../arm-none-eabi/lib\libc.a(lib_a-memset.o)
 .ARM.attributes
                0x00000c1a       0x34 c:/program files/codesourcery/sourcery g++ lite/bin/../lib/gcc/arm-none-eabi/4.5.1/../../../../arm-none-eabi/lib\libc.a(lib_a-mktm_r.o)
 .ARM.attributes
                0x00000c4e       0x34 c:/program files/codesourcery/sourcery g++ lite/bin/../lib/gcc/arm-none-eabi/4.5.1/../../../../arm-none-eabi/lib\libc.a(lib_a-mlock.o)
 .ARM.attributes
                0x00000c82       0x34 c:/program files/codesourcery/sourcery g++ lite/bin/../lib/gcc/arm-none-eabi/4.5.1/../../../../arm-none-eabi/lib\libc.a(lib_a-openr.o)
 .ARM.attributes
                0x00000cb6       0x34 c:/program files/codesourcery/sourcery g++ lite/bin/../lib/gcc/arm-none-eabi/4.5.1/../../../../arm-none-eabi/lib\libc.a(lib_a-reent.o)
 .ARM.attributes
                0x00000cea       0x34 c:/program files/codesourcery/sourcery g++ lite/bin/../lib/gcc/arm-none-eabi/4.5.1/../../../../arm-none-eabi/lib\libc.a(lib_a-refill.o)
 .ARM.attributes
                0x00000d1e       0x34 c:/program files/codesourcery/sourcery g++ lite/bin/../lib/gcc/arm-none-eabi/4.5.1/../../../../arm-none-eabi/lib\libc.a(lib_a-sbrkr.o)
 .ARM.attributes
                0x00000d52       0x34 c:/program files/codesourcery/sourcery g++ lite/bin/../lib/gcc/arm-none-eabi/4.5.1/../../../../arm-none-eabi/lib\libc.a(lib_a-setbuf.o)
 .ARM.attributes
                0x00000d86       0x16 c:/program files/codesourcery/sourcery g++ lite/bin/../lib/gcc/arm-none-eabi/4.5.1/../../../../arm-none-eabi/lib\libc.a(lib_a-setjmp.o)
 .ARM.attributes
                0x00000d9c       0x34 c:/program files/codesourcery/sourcery g++ lite/bin/../lib/gcc/arm-none-eabi/4.5.1/../../../../arm-none-eabi/lib\libc.a(lib_a-setvbuf.o)
 .ARM.attributes
                0x00000dd0       0x34 c:/program files/codesourcery/sourcery g++ lite/bin/../lib/gcc/arm-none-eabi/4.5.1/../../../../arm-none-eabi/lib\libc.a(lib_a-siprintf.o)
 .ARM.attributes
                0x00000e04       0x34 c:/program files/codesourcery/sourcery g++ lite/bin/../lib/gcc/arm-none-eabi/4.5.1/../../../../arm-none-eabi/lib\libc.a(lib_a-sniprintf.o)
 .ARM.attributes
                0x00000e38       0x34 c:/program files/codesourcery/sourcery g++ lite/bin/../lib/gcc/arm-none-eabi/4.5.1/../../../../arm-none-eabi/lib\libc.a(lib_a-stdio.o)
 .ARM.attributes
                0x00000e6c       0x34 c:/program files/codesourcery/sourcery g++ lite/bin/../lib/gcc/arm-none-eabi/4.5.1/../../../../arm-none-eabi/lib\libc.a(lib_a-strdup.o)
 .ARM.attributes
                0x00000ea0       0x34 c:/program files/codesourcery/sourcery g++ lite/bin/../lib/gcc/arm-none-eabi/4.5.1/../../../../arm-none-eabi/lib\libc.a(lib_a-strdup_r.o)
 .ARM.attributes
                0x00000ed4       0x34 c:/program files/codesourcery/sourcery g++ lite/bin/../lib/gcc/arm-none-eabi/4.5.1/../../../../arm-none-eabi/lib\libc.a(lib_a-strlen.o)
 .ARM.attributes
                0x00000f08       0x34 c:/program files/codesourcery/sourcery g++ lite/bin/../lib/gcc/arm-none-eabi/4.5.1/../../../../arm-none-eabi/lib\libc.a(lib_a-strtol.o)
 .ARM.attributes
                0x00000f3c       0x34 c:/program files/codesourcery/sourcery g++ lite/bin/../lib/gcc/arm-none-eabi/4.5.1/../../../../arm-none-eabi/lib\libc.a(lib_a-svfiprintf.o)
 .ARM.attributes
                0x00000f70       0x34 c:/program files/codesourcery/sourcery g++ lite/bin/../lib/gcc/arm-none-eabi/4.5.1/../../../../arm-none-eabi/lib\libc.a(lib_a-sysgettod.o)
 .ARM.attributes
                0x00000fa4       0x34 c:/program files/codesourcery/sourcery g++ lite/bin/../lib/gcc/arm-none-eabi/4.5.1/../../../../arm-none-eabi/lib\libc.a(lib_a-tzlock.o)
 .ARM.attributes
                0x00000fd8       0x34 c:/program files/codesourcery/sourcery g++ lite/bin/../lib/gcc/arm-none-eabi/4.5.1/../../../../arm-none-eabi/lib\libc.a(lib_a-tzvars.o)
 .ARM.attributes
                0x0000100c       0x34 c:/program files/codesourcery/sourcery g++ lite/bin/../lib/gcc/arm-none-eabi/4.5.1/../../../../arm-none-eabi/lib\libc.a(lib_a-vfiprintf.o)
 .ARM.attributes
                0x00001040       0x34 c:/program files/codesourcery/sourcery g++ lite/bin/../lib/gcc/arm-none-eabi/4.5.1/../../../../arm-none-eabi/lib\libc.a(lib_a-writer.o)
 .ARM.attributes
                0x00001074       0x34 c:/program files/codesourcery/sourcery g++ lite/bin/../lib/gcc/arm-none-eabi/4.5.1/../../../../arm-none-eabi/lib\libc.a(lib_a-wsetup.o)
 .ARM.attributes
                0x000010a8       0x34 c:/program files/codesourcery/sourcery g++ lite/bin/../lib/gcc/arm-none-eabi/4.5.1/../../../../arm-none-eabi/lib\libc.a(lib_a-__call_atexit.o)
 .ARM.attributes
                0x000010dc       0x34 c:/program files/codesourcery/sourcery g++ lite/bin/../lib/gcc/arm-none-eabi/4.5.1/../../../../arm-none-eabi/lib\libc.a(lib_a-atexit.o)
 .ARM.attributes
                0x00001110       0x34 c:/program files/codesourcery/sourcery g++ lite/bin/../lib/gcc/arm-none-eabi/4.5.1/../../../../arm-none-eabi/lib\libc.a(lib_a-closer.o)
 .ARM.attributes
                0x00001144       0x34 c:/program files/codesourcery/sourcery g++ lite/bin/../lib/gcc/arm-none-eabi/4.5.1/../../../../arm-none-eabi/lib\libc.a(lib_a-fini.o)
 .ARM.attributes
                0x00001178       0x34 c:/program files/codesourcery/sourcery g++ lite/bin/../lib/gcc/arm-none-eabi/4.5.1/../../../../arm-none-eabi/lib\libc.a(lib_a-flags.o)
 .ARM.attributes
                0x000011ac       0x34 c:/program files/codesourcery/sourcery g++ lite/bin/../lib/gcc/arm-none-eabi/4.5.1/../../../../arm-none-eabi/lib\libc.a(lib_a-fputwc.o)
 .ARM.attributes
                0x000011e0       0x34 c:/program files/codesourcery/sourcery g++ lite/bin/../lib/gcc/arm-none-eabi/4.5.1/../../../../arm-none-eabi/lib\libc.a(lib_a-fvwrite.o)
 .ARM.attributes
                0x00001214       0x34 c:/program files/codesourcery/sourcery g++ lite/bin/../lib/gcc/arm-none-eabi/4.5.1/../../../../arm-none-eabi/lib\libc.a(lib_a-gettimeofdayr.o)
 .ARM.attributes
                0x00001248       0x34 c:/program files/codesourcery/sourcery g++ lite/bin/../lib/gcc/arm-none-eabi/4.5.1/../../../../arm-none-eabi/lib\libc.a(lib_a-gettzinfo.o)
 .ARM.attributes
                0x0000127c       0x34 c:/program files/codesourcery/sourcery g++ lite/bin/../lib/gcc/arm-none-eabi/4.5.1/../../../../arm-none-eabi/lib\libc.a(lib_a-isattyr.o)
 .ARM.attributes
                0x000012b0       0x34 c:/program files/codesourcery/sourcery g++ lite/bin/../lib/gcc/arm-none-eabi/4.5.1/../../../../arm-none-eabi/lib\libc.a(lib_a-locale.o)
 .ARM.attributes
                0x000012e4       0x34 c:/program files/codesourcery/sourcery g++ lite/bin/../lib/gcc/arm-none-eabi/4.5.1/../../../../arm-none-eabi/lib\libc.a(lib_a-lseekr.o)
 .ARM.attributes
                0x00001318       0x34 c:/program files/codesourcery/sourcery g++ lite/bin/../lib/gcc/arm-none-eabi/4.5.1/../../../../arm-none-eabi/lib\libc.a(lib_a-memchr.o)
 .ARM.attributes
                0x0000134c       0x34 c:/program files/codesourcery/sourcery g++ lite/bin/../lib/gcc/arm-none-eabi/4.5.1/../../../../arm-none-eabi/lib\libc.a(lib_a-memmove.o)
 .ARM.attributes
                0x00001380       0x34 c:/program files/codesourcery/sourcery g++ lite/bin/../lib/gcc/arm-none-eabi/4.5.1/../../../../arm-none-eabi/lib\libc.a(lib_a-readr.o)
 .ARM.attributes
                0x000013b4       0x34 c:/program files/codesourcery/sourcery g++ lite/bin/../lib/gcc/arm-none-eabi/4.5.1/../../../../arm-none-eabi/lib\libc.a(lib_a-reallocr.o)
 .ARM.attributes
                0x000013e8       0x34 c:/program files/codesourcery/sourcery g++ lite/bin/../lib/gcc/arm-none-eabi/4.5.1/../../../../arm-none-eabi/lib\libc.a(lib_a-strcmp.o)
 .ARM.attributes
                0x0000141c       0x34 c:/program files/codesourcery/sourcery g++ lite/bin/../lib/gcc/arm-none-eabi/4.5.1/../../../../arm-none-eabi/lib\libc.a(lib_a-wbuf.o)
 .ARM.attributes
                0x00001450       0x34 c:/program files/codesourcery/sourcery g++ lite/bin/../lib/gcc/arm-none-eabi/4.5.1/../../../../arm-none-eabi/lib\libc.a(lib_a-wcrtomb.o)
 .ARM.attributes
                0x00001484       0x34 c:/program files/codesourcery/sourcery g++ lite/bin/../lib/gcc/arm-none-eabi/4.5.1/../../../../arm-none-eabi/lib\libc.a(lib_a-wctomb_r.o)
 .ARM.attributes
                0x000014b8       0x34 c:/program files/codesourcery/sourcery g++ lite/bin/../lib/gcc/arm-none-eabi/4.5.1/../../../../arm-none-eabi/lib\libc.a(lib_a-__atexit.o)
 .ARM.attributes
                0x000014ec       0x1a c:/program files/codesourcery/sourcery g++ lite/bin/../lib/gcc/arm-none-eabi/4.5.1\libgcc.a(_aeabi_uldivmod.o)
 .ARM.attributes
                0x00001506       0x34 c:/program files/codesourcery/sourcery g++ lite/bin/../lib/gcc/arm-none-eabi/4.5.1\libgcc.a(bpabi.o)
 .ARM.attributes
                0x0000153a       0x34 c:/program files/codesourcery/sourcery g++ lite/bin/../lib/gcc/arm-none-eabi/4.5.1\libgcc.a(_divdi3.o)
 .ARM.attributes
                0x0000156e       0x34 c:/program files/codesourcery/sourcery g++ lite/bin/../lib/gcc/arm-none-eabi/4.5.1\libgcc.a(_udivdi3.o)
 .ARM.attributes
                0x000015a2       0x1a c:/program files/codesourcery/sourcery g++ lite/bin/../lib/gcc/arm-none-eabi/4.5.1\libgcc.a(_clzsi2.o)
 .ARM.attributes
                0x000015bc       0x34 c:/program files/codesourcery/sourcery g++ lite/bin/../lib/gcc/arm-none-eabi/4.5.1/crtend.o
 .ARM.attributes
                0x000015f0       0x18 c:/program files/codesourcery/sourcery g++ lite/bin/../lib/gcc/arm-none-eabi/4.5.1/crtn.o

/DISCARD/
 *(.note.GNU-stack)
OUTPUT(VideoMaker_lpc2106-cmucam3 elf32-littlearm)

.debug_pubtypes
                0x00000000     0x422a
 .debug_pubtypes
                0x00000000      0x327 lpc2106-cmucam3_buildfiles/main.o
 .debug_pubtypes
                0x00000327      0x2e9 ../../lib/jpeg-6b\libjpeg-6b_lpc2106-cmucam3.a(jcapimin.o)
 .debug_pubtypes
                0x00000610      0x2e9 ../../lib/jpeg-6b\libjpeg-6b_lpc2106-cmucam3.a(jcapistd.o)
 .debug_pubtypes
                0x000008f9      0x2e9 ../../lib/jpeg-6b\libjpeg-6b_lpc2106-cmucam3.a(jcinit.o)
 .debug_pubtypes
                0x00000be2      0x310 ../../lib/jpeg-6b\libjpeg-6b_lpc2106-cmucam3.a(jcmainct.o)
 .debug_pubtypes
                0x00000ef2      0x320 ../../lib/jpeg-6b\libjpeg-6b_lpc2106-cmucam3.a(jcmarker.o)
 .debug_pubtypes
                0x00001212      0x31e ../../lib/jpeg-6b\libjpeg-6b_lpc2106-cmucam3.a(jcmaster.o)
 .debug_pubtypes
                0x00001530      0x393 ../../lib/jpeg-6b\libjpeg-6b_lpc2106-cmucam3.a(jcomapi.o)
 .debug_pubtypes
                0x000018c3      0x2e9 ../../lib/jpeg-6b\libjpeg-6b_lpc2106-cmucam3.a(jcparam.o)
 .debug_pubtypes
                0x00001bac      0x310 ../../lib/jpeg-6b\libjpeg-6b_lpc2106-cmucam3.a(jcprepct.o)
 .debug_pubtypes
                0x00001ebc      0x330 ../../lib/jpeg-6b\libjpeg-6b_lpc2106-cmucam3.a(jcsample.o)
 .debug_pubtypes
                0x000021ec      0x2ed ../../lib/jpeg-6b\libjpeg-6b_lpc2106-cmucam3.a(jdatadst.o)
 .debug_pubtypes
                0x000024d9      0x1ed ../../lib/jpeg-6b\libjpeg-6b_lpc2106-cmucam3.a(jerror.o)
 .debug_pubtypes
                0x000026c6       0x77 ../../lib/jpeg-6b\libjpeg-6b_lpc2106-cmucam3.a(jutils.o)
 .debug_pubtypes
                0x0000273d      0x2e1 ../../lib/jpeg-6b\libjpeg-6b_lpc2106-cmucam3.a(jmemmgr.o)
 .debug_pubtypes
                0x00002a1e      0x225 ../../lib/jpeg-6b\libjpeg-6b_lpc2106-cmucam3.a(jmemnobs.o)
 .debug_pubtypes
                0x00002c43      0x310 ../../lib/jpeg-6b\libjpeg-6b_lpc2106-cmucam3.a(jccoefct.o)
 .debug_pubtypes
                0x00002f53      0x31e ../../lib/jpeg-6b\libjpeg-6b_lpc2106-cmucam3.a(jccolor.o)
 .debug_pubtypes
                0x00003271      0x344 ../../lib/jpeg-6b\libjpeg-6b_lpc2106-cmucam3.a(jcdctmgr.o)
 .debug_pubtypes
                0x000035b5      0x364 ../../lib/jpeg-6b\libjpeg-6b_lpc2106-cmucam3.a(jchuff.o)
 .debug_pubtypes
                0x00003919       0x28 ../../lib/jpeg-6b\libjpeg-6b_lpc2106-cmucam3.a(jfdctint.o)
 .debug_pubtypes
                0x00003941       0x1e ../../hal/lpc2106-cmucam3\libhal-lpc2106-cmucam3.a(interrupt.o)
 .debug_pubtypes
                0x0000395f       0xef ../../hal/lpc2106-cmucam3\libhal-lpc2106-cmucam3.a(cc3.o)
 .debug_pubtypes
                0x00003a4e       0x12 ../../hal/lpc2106-cmucam3\libhal-lpc2106-cmucam3.a(cc3_hal.o)
 .debug_pubtypes
                0x00003a60      0x111 ../../hal/lpc2106-cmucam3\libhal-lpc2106-cmucam3.a(syscalls.o)
 .debug_pubtypes
                0x00003b71      0x14b ../../hal/lpc2106-cmucam3\libhal-lpc2106-cmucam3.a(serial.o)
 .debug_pubtypes
                0x00003cbc       0x2b ../../hal/lpc2106-cmucam3\libhal-lpc2106-cmucam3.a(servo.o)
 .debug_pubtypes
                0x00003ce7      0x107 ../../hal/lpc2106-cmucam3\libhal-lpc2106-cmucam3.a(rdcf2.o)
 .debug_pubtypes
                0x00003dee       0x9d ../../hal/lpc2106-cmucam3\libhal-lpc2106-cmucam3.a(mmc_hardware.o)
 .debug_pubtypes
                0x00003e8b      0x189 ../../hal/lpc2106-cmucam3\libhal-lpc2106-cmucam3.a(mmc_driver.o)
 .debug_pubtypes
                0x00004014       0x3f ../../hal/lpc2106-cmucam3\libhal-lpc2106-cmucam3.a(gpio.o)
 .debug_pubtypes
                0x00004053       0xec ../../hal/lpc2106-cmucam3\libhal-lpc2106-cmucam3.a(devices.o)
 .debug_pubtypes
                0x0000413f       0xeb ../../hal/lpc2106-cmucam3\libhal-lpc2106-cmucam3.a(uart_driver.o)

.debug_ranges   0x00000000     0x2f48
 .debug_ranges  0x00000000       0x28 lpc2106-cmucam3_buildfiles/main.o
 .debug_ranges  0x00000028       0x50 ../../lib/jpeg-6b\libjpeg-6b_lpc2106-cmucam3.a(jcapimin.o)
 .debug_ranges  0x00000078       0x20 ../../lib/jpeg-6b\libjpeg-6b_lpc2106-cmucam3.a(jcapistd.o)
 .debug_ranges  0x00000098       0x10 ../../lib/jpeg-6b\libjpeg-6b_lpc2106-cmucam3.a(jcinit.o)
 .debug_ranges  0x000000a8       0x20 ../../lib/jpeg-6b\libjpeg-6b_lpc2106-cmucam3.a(jcmainct.o)
 .debug_ranges  0x000000c8      0x100 ../../lib/jpeg-6b\libjpeg-6b_lpc2106-cmucam3.a(jcmarker.o)
 .debug_ranges  0x000001c8      0x100 ../../lib/jpeg-6b\libjpeg-6b_lpc2106-cmucam3.a(jcmaster.o)
 .debug_ranges  0x000002c8       0x28 ../../lib/jpeg-6b\libjpeg-6b_lpc2106-cmucam3.a(jcomapi.o)
 .debug_ranges  0x000002f0       0x68 ../../lib/jpeg-6b\libjpeg-6b_lpc2106-cmucam3.a(jcparam.o)
 .debug_ranges  0x00000358       0x28 ../../lib/jpeg-6b\libjpeg-6b_lpc2106-cmucam3.a(jcprepct.o)
 .debug_ranges  0x00000380       0x48 ../../lib/jpeg-6b\libjpeg-6b_lpc2106-cmucam3.a(jcsample.o)
 .debug_ranges  0x000003c8       0x28 ../../lib/jpeg-6b\libjpeg-6b_lpc2106-cmucam3.a(jdatadst.o)
 .debug_ranges  0x000003f0       0x38 ../../lib/jpeg-6b\libjpeg-6b_lpc2106-cmucam3.a(jerror.o)
 .debug_ranges  0x00000428       0x30 ../../lib/jpeg-6b\libjpeg-6b_lpc2106-cmucam3.a(jutils.o)
 .debug_ranges  0x00000458       0xc0 ../../lib/jpeg-6b\libjpeg-6b_lpc2106-cmucam3.a(jmemmgr.o)
 .debug_ranges  0x00000518       0x48 ../../lib/jpeg-6b\libjpeg-6b_lpc2106-cmucam3.a(jmemnobs.o)
 .debug_ranges  0x00000560       0xc0 ../../lib/jpeg-6b\libjpeg-6b_lpc2106-cmucam3.a(jccoefct.o)
 .debug_ranges  0x00000620       0x48 ../../lib/jpeg-6b\libjpeg-6b_lpc2106-cmucam3.a(jccolor.o)
 .debug_ranges  0x00000668       0x20 ../../lib/jpeg-6b\libjpeg-6b_lpc2106-cmucam3.a(jcdctmgr.o)
 .debug_ranges  0x00000688      0xb18 ../../lib/jpeg-6b\libjpeg-6b_lpc2106-cmucam3.a(jchuff.o)
 .debug_ranges  0x000011a0       0x10 ../../lib/jpeg-6b\libjpeg-6b_lpc2106-cmucam3.a(jfdctint.o)
 .debug_ranges  0x000011b0       0x80 ../../hal/lpc2106-cmucam3\libhal-lpc2106-cmucam3.a(interrupt.o)
 .debug_ranges  0x00001230      0xf78 ../../hal/lpc2106-cmucam3\libhal-lpc2106-cmucam3.a(cc3.o)
 .debug_ranges  0x000021a8       0x38 ../../hal/lpc2106-cmucam3\libhal-lpc2106-cmucam3.a(cc3_hal.o)
 .debug_ranges  0x000021e0       0xc8 ../../hal/lpc2106-cmucam3\libhal-lpc2106-cmucam3.a(syscalls.o)
 .debug_ranges  0x000022a8      0x108 ../../hal/lpc2106-cmucam3\libhal-lpc2106-cmucam3.a(serial.o)
 .debug_ranges  0x000023b0       0xe8 ../../hal/lpc2106-cmucam3\libhal-lpc2106-cmucam3.a(servo.o)
 .debug_ranges  0x00002498      0x418 ../../hal/lpc2106-cmucam3\libhal-lpc2106-cmucam3.a(rdcf2.o)
 .debug_ranges  0x000028b0      0x520 ../../hal/lpc2106-cmucam3\libhal-lpc2106-cmucam3.a(mmc_hardware.o)
 .debug_ranges  0x00002dd0       0x98 ../../hal/lpc2106-cmucam3\libhal-lpc2106-cmucam3.a(mmc_driver.o)
 .debug_ranges  0x00002e68       0x28 ../../hal/lpc2106-cmucam3\libhal-lpc2106-cmucam3.a(gpio.o)
 .debug_ranges  0x00002e90       0x48 ../../hal/lpc2106-cmucam3\libhal-lpc2106-cmucam3.a(devices.o)
 .debug_ranges  0x00002ed8       0x70 ../../hal/lpc2106-cmucam3\libhal-lpc2106-cmucam3.a(uart_driver.o)

Cross Reference Table

Symbol                                            File
DriveDesc                                         ../../hal/lpc2106-cmucam3\libhal-lpc2106-cmucam3.a(mmc_hardware.o)
                                                  ../../hal/lpc2106-cmucam3\libhal-lpc2106-cmucam3.a(mmc_driver.o)
                                                  ../../hal/lpc2106-cmucam3\libhal-lpc2106-cmucam3.a(rdcf2.o)
_Jv_RegisterClasses                               c:/program files/codesourcery/sourcery g++ lite/bin/../lib/gcc/arm-none-eabi/4.5.1/crtbegin.o
_PathLocale                                       c:/program files/codesourcery/sourcery g++ lite/bin/../lib/gcc/arm-none-eabi/4.5.1/../../../../arm-none-eabi/lib\libc.a(lib_a-locale.o)
__aeabi_idiv                                      c:/program files/codesourcery/sourcery g++ lite/bin/../lib/gcc/arm-none-eabi/4.5.1\libgcc.a(_divsi3.o)
                                                  ../../hal/lpc2106-cmucam3\libhal-lpc2106-cmucam3.a(cc3.o)
                                                  ../../lib/jpeg-6b\libjpeg-6b_lpc2106-cmucam3.a(jcdctmgr.o)
                                                  ../../lib/jpeg-6b\libjpeg-6b_lpc2106-cmucam3.a(jmemmgr.o)
                                                  ../../lib/jpeg-6b\libjpeg-6b_lpc2106-cmucam3.a(jutils.o)
                                                  ../../lib/jpeg-6b\libjpeg-6b_lpc2106-cmucam3.a(jcsample.o)
                                                  ../../lib/jpeg-6b\libjpeg-6b_lpc2106-cmucam3.a(jcprepct.o)
                                                  ../../lib/jpeg-6b\libjpeg-6b_lpc2106-cmucam3.a(jcparam.o)
__aeabi_idiv0                                     c:/program files/codesourcery/sourcery g++ lite/bin/../lib/gcc/arm-none-eabi/4.5.1\libgcc.a(_dvmd_tls.o)
                                                  c:/program files/codesourcery/sourcery g++ lite/bin/../lib/gcc/arm-none-eabi/4.5.1\libgcc.a(_divsi3.o)
                                                  c:/program files/codesourcery/sourcery g++ lite/bin/../lib/gcc/arm-none-eabi/4.5.1\libgcc.a(_udivsi3.o)
__aeabi_idivmod                                   c:/program files/codesourcery/sourcery g++ lite/bin/../lib/gcc/arm-none-eabi/4.5.1\libgcc.a(_divsi3.o)
                                                  c:/program files/codesourcery/sourcery g++ lite/bin/../lib/gcc/arm-none-eabi/4.5.1/../../../../arm-none-eabi/lib\libc.a(lib_a-mktm_r.o)
                                                  ../../lib/jpeg-6b\libjpeg-6b_lpc2106-cmucam3.a(jutils.o)
                                                  ../../lib/jpeg-6b\libjpeg-6b_lpc2106-cmucam3.a(jcsample.o)
__aeabi_ldiv0                                     c:/program files/codesourcery/sourcery g++ lite/bin/../lib/gcc/arm-none-eabi/4.5.1\libgcc.a(_dvmd_tls.o)
                                                  c:/program files/codesourcery/sourcery g++ lite/bin/../lib/gcc/arm-none-eabi/4.5.1\libgcc.a(_aeabi_uldivmod.o)
__aeabi_uidiv                                     c:/program files/codesourcery/sourcery g++ lite/bin/../lib/gcc/arm-none-eabi/4.5.1\libgcc.a(_udivsi3.o)
                                                  c:/program files/codesourcery/sourcery g++ lite/bin/../lib/gcc/arm-none-eabi/4.5.1\libgcc.a(_udivdi3.o)
                                                  c:/program files/codesourcery/sourcery g++ lite/bin/../lib/gcc/arm-none-eabi/4.5.1\libgcc.a(_divdi3.o)
                                                  c:/program files/codesourcery/sourcery g++ lite/bin/../lib/gcc/arm-none-eabi/4.5.1/../../../../arm-none-eabi/lib\libc.a(lib_a-strtol.o)
                                                  c:/program files/codesourcery/sourcery g++ lite/bin/../lib/gcc/arm-none-eabi/4.5.1/../../../../arm-none-eabi/lib\libc.a(lib_a-fwrite.o)
                                                  ../../hal/lpc2106-cmucam3\libhal-lpc2106-cmucam3.a(rdcf2.o)
                                                  ../../hal/lpc2106-cmucam3\libhal-lpc2106-cmucam3.a(serial.o)
                                                  ../../lib/jpeg-6b\libjpeg-6b_lpc2106-cmucam3.a(jmemmgr.o)
__aeabi_uidivmod                                  c:/program files/codesourcery/sourcery g++ lite/bin/../lib/gcc/arm-none-eabi/4.5.1\libgcc.a(_udivsi3.o)
                                                  c:/program files/codesourcery/sourcery g++ lite/bin/../lib/gcc/arm-none-eabi/4.5.1\libgcc.a(_udivdi3.o)
                                                  c:/program files/codesourcery/sourcery g++ lite/bin/../lib/gcc/arm-none-eabi/4.5.1\libgcc.a(_divdi3.o)
                                                  c:/program files/codesourcery/sourcery g++ lite/bin/../lib/gcc/arm-none-eabi/4.5.1/../../../../arm-none-eabi/lib\libc.a(lib_a-strtol.o)
                                                  ../../hal/lpc2106-cmucam3\libhal-lpc2106-cmucam3.a(rdcf2.o)
                                                  ../../lib/jpeg-6b\libjpeg-6b_lpc2106-cmucam3.a(jcmaster.o)
__aeabi_uldivmod                                  c:/program files/codesourcery/sourcery g++ lite/bin/../lib/gcc/arm-none-eabi/4.5.1\libgcc.a(_aeabi_uldivmod.o)
                                                  c:/program files/codesourcery/sourcery g++ lite/bin/../lib/gcc/arm-none-eabi/4.5.1/../../../../arm-none-eabi/lib\libc.a(lib_a-vfiprintf.o)
                                                  c:/program files/codesourcery/sourcery g++ lite/bin/../lib/gcc/arm-none-eabi/4.5.1/../../../../arm-none-eabi/lib\libc.a(lib_a-svfiprintf.o)
__ascii_wctomb                                    c:/program files/codesourcery/sourcery g++ lite/bin/../lib/gcc/arm-none-eabi/4.5.1/../../../../arm-none-eabi/lib\libc.a(lib_a-wctomb_r.o)
__call_exitprocs                                  c:/program files/codesourcery/sourcery g++ lite/bin/../lib/gcc/arm-none-eabi/4.5.1/../../../../arm-none-eabi/lib\libc.a(lib_a-__call_atexit.o)
                                                  c:/program files/codesourcery/sourcery g++ lite/bin/../lib/gcc/arm-none-eabi/4.5.1/../../../../arm-none-eabi/lib\libc.a(lib_a-exit.o)
__clzsi2                                          c:/program files/codesourcery/sourcery g++ lite/bin/../lib/gcc/arm-none-eabi/4.5.1\libgcc.a(_clzsi2.o)
                                                  c:/program files/codesourcery/sourcery g++ lite/bin/../lib/gcc/arm-none-eabi/4.5.1\libgcc.a(_udivdi3.o)
                                                  c:/program files/codesourcery/sourcery g++ lite/bin/../lib/gcc/arm-none-eabi/4.5.1\libgcc.a(_divdi3.o)
__ctype_ptr__                                     c:/program files/codesourcery/sourcery g++ lite/bin/../lib/gcc/arm-none-eabi/4.5.1/../../../../arm-none-eabi/lib\libc.a(lib_a-ctype_.o)
                                                  c:/program files/codesourcery/sourcery g++ lite/bin/../lib/gcc/arm-none-eabi/4.5.1/../../../../arm-none-eabi/lib\libc.a(lib_a-strtol.o)
                                                  ../../hal/lpc2106-cmucam3\libhal-lpc2106-cmucam3.a(rdcf2.o)
                                                  ../../hal/lpc2106-cmucam3\libhal-lpc2106-cmucam3.a(syscalls.o)
__divdi3                                          c:/program files/codesourcery/sourcery g++ lite/bin/../lib/gcc/arm-none-eabi/4.5.1\libgcc.a(_divdi3.o)
                                                  c:/program files/codesourcery/sourcery g++ lite/bin/../lib/gcc/arm-none-eabi/4.5.1\libgcc.a(bpabi.o)
__divsi3                                          c:/program files/codesourcery/sourcery g++ lite/bin/../lib/gcc/arm-none-eabi/4.5.1\libgcc.a(_divsi3.o)
__dso_handle                                      c:/program files/codesourcery/sourcery g++ lite/bin/../lib/gcc/arm-none-eabi/4.5.1/crtbegin.o
__fini_array_end                                  c:/program files/codesourcery/sourcery g++ lite/bin/../lib/gcc/arm-none-eabi/4.5.1/../../../../arm-none-eabi/lib\libc.a(lib_a-fini.o)
__fini_array_start                                c:/program files/codesourcery/sourcery g++ lite/bin/../lib/gcc/arm-none-eabi/4.5.1/../../../../arm-none-eabi/lib\libc.a(lib_a-fini.o)
__fp_lock_all                                     c:/program files/codesourcery/sourcery g++ lite/bin/../lib/gcc/arm-none-eabi/4.5.1/../../../../arm-none-eabi/lib\libc.a(lib_a-findfp.o)
__fp_unlock_all                                   c:/program files/codesourcery/sourcery g++ lite/bin/../lib/gcc/arm-none-eabi/4.5.1/../../../../arm-none-eabi/lib\libc.a(lib_a-findfp.o)
__gettzinfo                                       c:/program files/codesourcery/sourcery g++ lite/bin/../lib/gcc/arm-none-eabi/4.5.1/../../../../arm-none-eabi/lib\libc.a(lib_a-gettzinfo.o)
                                                  c:/program files/codesourcery/sourcery g++ lite/bin/../lib/gcc/arm-none-eabi/4.5.1/../../../../arm-none-eabi/lib\libc.a(lib_a-mktm_r.o)
__gnu_ldivmod_helper                              c:/program files/codesourcery/sourcery g++ lite/bin/../lib/gcc/arm-none-eabi/4.5.1\libgcc.a(bpabi.o)
__gnu_uldivmod_helper                             c:/program files/codesourcery/sourcery g++ lite/bin/../lib/gcc/arm-none-eabi/4.5.1\libgcc.a(bpabi.o)
                                                  c:/program files/codesourcery/sourcery g++ lite/bin/../lib/gcc/arm-none-eabi/4.5.1\libgcc.a(_aeabi_uldivmod.o)
__libc_fini                                       c:/program files/codesourcery/sourcery g++ lite/bin/../lib/gcc/arm-none-eabi/4.5.1/../../../../arm-none-eabi/lib\libc.a(lib_a-__call_atexit.o)
__libc_fini_array                                 c:/program files/codesourcery/sourcery g++ lite/bin/../lib/gcc/arm-none-eabi/4.5.1/../../../../arm-none-eabi/lib\libc.a(lib_a-fini.o)
                                                  c:/program files/codesourcery/sourcery g++ lite/bin/../lib/gcc/arm-none-eabi/4.5.1/../../../../arm-none-eabi/lib\libc.a(lib_a-__call_atexit.o)
__locale_charset                                  c:/program files/codesourcery/sourcery g++ lite/bin/../lib/gcc/arm-none-eabi/4.5.1/../../../../arm-none-eabi/lib\libc.a(lib_a-locale.o)
                                                  c:/program files/codesourcery/sourcery g++ lite/bin/../lib/gcc/arm-none-eabi/4.5.1/../../../../arm-none-eabi/lib\libc.a(lib_a-wctomb_r.o)
                                                  c:/program files/codesourcery/sourcery g++ lite/bin/../lib/gcc/arm-none-eabi/4.5.1/../../../../arm-none-eabi/lib\libc.a(lib_a-wcrtomb.o)
__locale_cjk_lang                                 c:/program files/codesourcery/sourcery g++ lite/bin/../lib/gcc/arm-none-eabi/4.5.1/../../../../arm-none-eabi/lib\libc.a(lib_a-locale.o)
__locale_mb_cur_max                               c:/program files/codesourcery/sourcery g++ lite/bin/../lib/gcc/arm-none-eabi/4.5.1/../../../../arm-none-eabi/lib\libc.a(lib_a-locale.o)
                                                  c:/program files/codesourcery/sourcery g++ lite/bin/../lib/gcc/arm-none-eabi/4.5.1/../../../../arm-none-eabi/lib\libc.a(lib_a-fputwc.o)
__locale_msgcharset                               c:/program files/codesourcery/sourcery g++ lite/bin/../lib/gcc/arm-none-eabi/4.5.1/../../../../arm-none-eabi/lib\libc.a(lib_a-locale.o)
__malloc_av_                                      c:/program files/codesourcery/sourcery g++ lite/bin/../lib/gcc/arm-none-eabi/4.5.1/../../../../arm-none-eabi/lib\libc.a(lib_a-mallocr.o)
                                                  c:/program files/codesourcery/sourcery g++ lite/bin/../lib/gcc/arm-none-eabi/4.5.1/../../../../arm-none-eabi/lib\libc.a(lib_a-reallocr.o)
                                                  c:/program files/codesourcery/sourcery g++ lite/bin/../lib/gcc/arm-none-eabi/4.5.1/../../../../arm-none-eabi/lib\libc.a(lib_a-freer.o)
__malloc_current_mallinfo                         c:/program files/codesourcery/sourcery g++ lite/bin/../lib/gcc/arm-none-eabi/4.5.1/../../../../arm-none-eabi/lib\libc.a(lib_a-mallocr.o)
                                                  c:/program files/codesourcery/sourcery g++ lite/bin/../lib/gcc/arm-none-eabi/4.5.1/../../../../arm-none-eabi/lib\libc.a(lib_a-freer.o)
__malloc_lock                                     c:/program files/codesourcery/sourcery g++ lite/bin/../lib/gcc/arm-none-eabi/4.5.1/../../../../arm-none-eabi/lib\libc.a(lib_a-mlock.o)
                                                  c:/program files/codesourcery/sourcery g++ lite/bin/../lib/gcc/arm-none-eabi/4.5.1/../../../../arm-none-eabi/lib\libc.a(lib_a-reallocr.o)
                                                  c:/program files/codesourcery/sourcery g++ lite/bin/../lib/gcc/arm-none-eabi/4.5.1/../../../../arm-none-eabi/lib\libc.a(lib_a-mallocr.o)
                                                  c:/program files/codesourcery/sourcery g++ lite/bin/../lib/gcc/arm-none-eabi/4.5.1/../../../../arm-none-eabi/lib\libc.a(lib_a-freer.o)
__malloc_max_sbrked_mem                           c:/program files/codesourcery/sourcery g++ lite/bin/../lib/gcc/arm-none-eabi/4.5.1/../../../../arm-none-eabi/lib\libc.a(lib_a-mallocr.o)
__malloc_max_total_mem                            c:/program files/codesourcery/sourcery g++ lite/bin/../lib/gcc/arm-none-eabi/4.5.1/../../../../arm-none-eabi/lib\libc.a(lib_a-mallocr.o)
__malloc_sbrk_base                                c:/program files/codesourcery/sourcery g++ lite/bin/../lib/gcc/arm-none-eabi/4.5.1/../../../../arm-none-eabi/lib\libc.a(lib_a-mallocr.o)
                                                  c:/program files/codesourcery/sourcery g++ lite/bin/../lib/gcc/arm-none-eabi/4.5.1/../../../../arm-none-eabi/lib\libc.a(lib_a-freer.o)
__malloc_top_pad                                  c:/program files/codesourcery/sourcery g++ lite/bin/../lib/gcc/arm-none-eabi/4.5.1/../../../../arm-none-eabi/lib\libc.a(lib_a-mallocr.o)
                                                  c:/program files/codesourcery/sourcery g++ lite/bin/../lib/gcc/arm-none-eabi/4.5.1/../../../../arm-none-eabi/lib\libc.a(lib_a-freer.o)
__malloc_trim_threshold                           c:/program files/codesourcery/sourcery g++ lite/bin/../lib/gcc/arm-none-eabi/4.5.1/../../../../arm-none-eabi/lib\libc.a(lib_a-mallocr.o)
                                                  c:/program files/codesourcery/sourcery g++ lite/bin/../lib/gcc/arm-none-eabi/4.5.1/../../../../arm-none-eabi/lib\libc.a(lib_a-freer.o)
__malloc_unlock                                   c:/program files/codesourcery/sourcery g++ lite/bin/../lib/gcc/arm-none-eabi/4.5.1/../../../../arm-none-eabi/lib\libc.a(lib_a-mlock.o)
                                                  c:/program files/codesourcery/sourcery g++ lite/bin/../lib/gcc/arm-none-eabi/4.5.1/../../../../arm-none-eabi/lib\libc.a(lib_a-reallocr.o)
                                                  c:/program files/codesourcery/sourcery g++ lite/bin/../lib/gcc/arm-none-eabi/4.5.1/../../../../arm-none-eabi/lib\libc.a(lib_a-mallocr.o)
                                                  c:/program files/codesourcery/sourcery g++ lite/bin/../lib/gcc/arm-none-eabi/4.5.1/../../../../arm-none-eabi/lib\libc.a(lib_a-freer.o)
__mb_cur_max                                      c:/program files/codesourcery/sourcery g++ lite/bin/../lib/gcc/arm-none-eabi/4.5.1/../../../../arm-none-eabi/lib\libc.a(lib_a-locale.o)
__mlocale_changed                                 c:/program files/codesourcery/sourcery g++ lite/bin/../lib/gcc/arm-none-eabi/4.5.1/../../../../arm-none-eabi/lib\libc.a(lib_a-locale.o)
__nlocale_changed                                 c:/program files/codesourcery/sourcery g++ lite/bin/../lib/gcc/arm-none-eabi/4.5.1/../../../../arm-none-eabi/lib\libc.a(lib_a-locale.o)
__register_exitproc                               c:/program files/codesourcery/sourcery g++ lite/bin/../lib/gcc/arm-none-eabi/4.5.1/../../../../arm-none-eabi/lib\libc.a(lib_a-__atexit.o)
                                                  c:/program files/codesourcery/sourcery g++ lite/bin/../lib/gcc/arm-none-eabi/4.5.1/../../../../arm-none-eabi/lib\libc.a(lib_a-atexit.o)
__sclose                                          c:/program files/codesourcery/sourcery g++ lite/bin/../lib/gcc/arm-none-eabi/4.5.1/../../../../arm-none-eabi/lib\libc.a(lib_a-stdio.o)
                                                  c:/program files/codesourcery/sourcery g++ lite/bin/../lib/gcc/arm-none-eabi/4.5.1/../../../../arm-none-eabi/lib\libc.a(lib_a-fopen.o)
                                                  c:/program files/codesourcery/sourcery g++ lite/bin/../lib/gcc/arm-none-eabi/4.5.1/../../../../arm-none-eabi/lib\libc.a(lib_a-findfp.o)
__seofread                                        c:/program files/codesourcery/sourcery g++ lite/bin/../lib/gcc/arm-none-eabi/4.5.1/../../../../arm-none-eabi/lib\libc.a(lib_a-stdio.o)
__sflags                                          c:/program files/codesourcery/sourcery g++ lite/bin/../lib/gcc/arm-none-eabi/4.5.1/../../../../arm-none-eabi/lib\libc.a(lib_a-flags.o)
                                                  c:/program files/codesourcery/sourcery g++ lite/bin/../lib/gcc/arm-none-eabi/4.5.1/../../../../arm-none-eabi/lib\libc.a(lib_a-fopen.o)
__sfmoreglue                                      c:/program files/codesourcery/sourcery g++ lite/bin/../lib/gcc/arm-none-eabi/4.5.1/../../../../arm-none-eabi/lib\libc.a(lib_a-findfp.o)
__sfp                                             c:/program files/codesourcery/sourcery g++ lite/bin/../lib/gcc/arm-none-eabi/4.5.1/../../../../arm-none-eabi/lib\libc.a(lib_a-findfp.o)
                                                  c:/program files/codesourcery/sourcery g++ lite/bin/../lib/gcc/arm-none-eabi/4.5.1/../../../../arm-none-eabi/lib\libc.a(lib_a-fopen.o)
__sfp_lock_acquire                                c:/program files/codesourcery/sourcery g++ lite/bin/../lib/gcc/arm-none-eabi/4.5.1/../../../../arm-none-eabi/lib\libc.a(lib_a-findfp.o)
                                                  c:/program files/codesourcery/sourcery g++ lite/bin/../lib/gcc/arm-none-eabi/4.5.1/../../../../arm-none-eabi/lib\libc.a(lib_a-fwalk.o)
                                                  c:/program files/codesourcery/sourcery g++ lite/bin/../lib/gcc/arm-none-eabi/4.5.1/../../../../arm-none-eabi/lib\libc.a(lib_a-fseek.o)
                                                  c:/program files/codesourcery/sourcery g++ lite/bin/../lib/gcc/arm-none-eabi/4.5.1/../../../../arm-none-eabi/lib\libc.a(lib_a-fopen.o)
                                                  c:/program files/codesourcery/sourcery g++ lite/bin/../lib/gcc/arm-none-eabi/4.5.1/../../../../arm-none-eabi/lib\libc.a(lib_a-fclose.o)
__sfp_lock_release                                c:/program files/codesourcery/sourcery g++ lite/bin/../lib/gcc/arm-none-eabi/4.5.1/../../../../arm-none-eabi/lib\libc.a(lib_a-findfp.o)
                                                  c:/program files/codesourcery/sourcery g++ lite/bin/../lib/gcc/arm-none-eabi/4.5.1/../../../../arm-none-eabi/lib\libc.a(lib_a-fwalk.o)
                                                  c:/program files/codesourcery/sourcery g++ lite/bin/../lib/gcc/arm-none-eabi/4.5.1/../../../../arm-none-eabi/lib\libc.a(lib_a-fseek.o)
                                                  c:/program files/codesourcery/sourcery g++ lite/bin/../lib/gcc/arm-none-eabi/4.5.1/../../../../arm-none-eabi/lib\libc.a(lib_a-fopen.o)
                                                  c:/program files/codesourcery/sourcery g++ lite/bin/../lib/gcc/arm-none-eabi/4.5.1/../../../../arm-none-eabi/lib\libc.a(lib_a-fclose.o)
__sfvwrite_r                                      c:/program files/codesourcery/sourcery g++ lite/bin/../lib/gcc/arm-none-eabi/4.5.1/../../../../arm-none-eabi/lib\libc.a(lib_a-fvwrite.o)
                                                  c:/program files/codesourcery/sourcery g++ lite/bin/../lib/gcc/arm-none-eabi/4.5.1/../../../../arm-none-eabi/lib\libc.a(lib_a-vfiprintf.o)
                                                  c:/program files/codesourcery/sourcery g++ lite/bin/../lib/gcc/arm-none-eabi/4.5.1/../../../../arm-none-eabi/lib\libc.a(lib_a-fwrite.o)
__sinit                                           c:/program files/codesourcery/sourcery g++ lite/bin/../lib/gcc/arm-none-eabi/4.5.1/../../../../arm-none-eabi/lib\libc.a(lib_a-findfp.o)
                                                  c:/program files/codesourcery/sourcery g++ lite/bin/../lib/gcc/arm-none-eabi/4.5.1/../../../../arm-none-eabi/lib\libc.a(lib_a-wbuf.o)
                                                  c:/program files/codesourcery/sourcery g++ lite/bin/../lib/gcc/arm-none-eabi/4.5.1/../../../../arm-none-eabi/lib\libc.a(lib_a-fputwc.o)
                                                  c:/program files/codesourcery/sourcery g++ lite/bin/../lib/gcc/arm-none-eabi/4.5.1/../../../../arm-none-eabi/lib\libc.a(lib_a-wsetup.o)
                                                  c:/program files/codesourcery/sourcery g++ lite/bin/../lib/gcc/arm-none-eabi/4.5.1/../../../../arm-none-eabi/lib\libc.a(lib_a-vfiprintf.o)
                                                  c:/program files/codesourcery/sourcery g++ lite/bin/../lib/gcc/arm-none-eabi/4.5.1/../../../../arm-none-eabi/lib\libc.a(lib_a-setvbuf.o)
                                                  c:/program files/codesourcery/sourcery g++ lite/bin/../lib/gcc/arm-none-eabi/4.5.1/../../../../arm-none-eabi/lib\libc.a(lib_a-refill.o)
                                                  c:/program files/codesourcery/sourcery g++ lite/bin/../lib/gcc/arm-none-eabi/4.5.1/../../../../arm-none-eabi/lib\libc.a(lib_a-fwrite.o)
                                                  c:/program files/codesourcery/sourcery g++ lite/bin/../lib/gcc/arm-none-eabi/4.5.1/../../../../arm-none-eabi/lib\libc.a(lib_a-fseek.o)
                                                  c:/program files/codesourcery/sourcery g++ lite/bin/../lib/gcc/arm-none-eabi/4.5.1/../../../../arm-none-eabi/lib\libc.a(lib_a-fflush.o)
                                                  c:/program files/codesourcery/sourcery g++ lite/bin/../lib/gcc/arm-none-eabi/4.5.1/../../../../arm-none-eabi/lib\libc.a(lib_a-fclose.o)
__sinit_lock_acquire                              c:/program files/codesourcery/sourcery g++ lite/bin/../lib/gcc/arm-none-eabi/4.5.1/../../../../arm-none-eabi/lib\libc.a(lib_a-findfp.o)
__sinit_lock_release                              c:/program files/codesourcery/sourcery g++ lite/bin/../lib/gcc/arm-none-eabi/4.5.1/../../../../arm-none-eabi/lib\libc.a(lib_a-findfp.o)
__smakebuf_r                                      c:/program files/codesourcery/sourcery g++ lite/bin/../lib/gcc/arm-none-eabi/4.5.1/../../../../arm-none-eabi/lib\libc.a(lib_a-makebuf.o)
                                                  c:/program files/codesourcery/sourcery g++ lite/bin/../lib/gcc/arm-none-eabi/4.5.1/../../../../arm-none-eabi/lib\libc.a(lib_a-wsetup.o)
                                                  c:/program files/codesourcery/sourcery g++ lite/bin/../lib/gcc/arm-none-eabi/4.5.1/../../../../arm-none-eabi/lib\libc.a(lib_a-refill.o)
                                                  c:/program files/codesourcery/sourcery g++ lite/bin/../lib/gcc/arm-none-eabi/4.5.1/../../../../arm-none-eabi/lib\libc.a(lib_a-fseek.o)
__sprint_r                                        c:/program files/codesourcery/sourcery g++ lite/bin/../lib/gcc/arm-none-eabi/4.5.1/../../../../arm-none-eabi/lib\libc.a(lib_a-vfiprintf.o)
__sread                                           c:/program files/codesourcery/sourcery g++ lite/bin/../lib/gcc/arm-none-eabi/4.5.1/../../../../arm-none-eabi/lib\libc.a(lib_a-stdio.o)
                                                  c:/program files/codesourcery/sourcery g++ lite/bin/../lib/gcc/arm-none-eabi/4.5.1/../../../../arm-none-eabi/lib\libc.a(lib_a-fopen.o)
                                                  c:/program files/codesourcery/sourcery g++ lite/bin/../lib/gcc/arm-none-eabi/4.5.1/../../../../arm-none-eabi/lib\libc.a(lib_a-findfp.o)
__srefill_r                                       c:/program files/codesourcery/sourcery g++ lite/bin/../lib/gcc/arm-none-eabi/4.5.1/../../../../arm-none-eabi/lib\libc.a(lib_a-refill.o)
                                                  c:/program files/codesourcery/sourcery g++ lite/bin/../lib/gcc/arm-none-eabi/4.5.1/../../../../arm-none-eabi/lib\libc.a(lib_a-fseek.o)
__sseek                                           c:/program files/codesourcery/sourcery g++ lite/bin/../lib/gcc/arm-none-eabi/4.5.1/../../../../arm-none-eabi/lib\libc.a(lib_a-stdio.o)
                                                  c:/program files/codesourcery/sourcery g++ lite/bin/../lib/gcc/arm-none-eabi/4.5.1/../../../../arm-none-eabi/lib\libc.a(lib_a-makebuf.o)
                                                  c:/program files/codesourcery/sourcery g++ lite/bin/../lib/gcc/arm-none-eabi/4.5.1/../../../../arm-none-eabi/lib\libc.a(lib_a-fseek.o)
                                                  c:/program files/codesourcery/sourcery g++ lite/bin/../lib/gcc/arm-none-eabi/4.5.1/../../../../arm-none-eabi/lib\libc.a(lib_a-fopen.o)
                                                  c:/program files/codesourcery/sourcery g++ lite/bin/../lib/gcc/arm-none-eabi/4.5.1/../../../../arm-none-eabi/lib\libc.a(lib_a-findfp.o)
__ssprint_r                                       c:/program files/codesourcery/sourcery g++ lite/bin/../lib/gcc/arm-none-eabi/4.5.1/../../../../arm-none-eabi/lib\libc.a(lib_a-svfiprintf.o)
__swbuf                                           c:/program files/codesourcery/sourcery g++ lite/bin/../lib/gcc/arm-none-eabi/4.5.1/../../../../arm-none-eabi/lib\libc.a(lib_a-wbuf.o)
__swbuf_r                                         c:/program files/codesourcery/sourcery g++ lite/bin/../lib/gcc/arm-none-eabi/4.5.1/../../../../arm-none-eabi/lib\libc.a(lib_a-wbuf.o)
                                                  c:/program files/codesourcery/sourcery g++ lite/bin/../lib/gcc/arm-none-eabi/4.5.1/../../../../arm-none-eabi/lib\libc.a(lib_a-fputwc.o)
__swrite                                          c:/program files/codesourcery/sourcery g++ lite/bin/../lib/gcc/arm-none-eabi/4.5.1/../../../../arm-none-eabi/lib\libc.a(lib_a-stdio.o)
                                                  c:/program files/codesourcery/sourcery g++ lite/bin/../lib/gcc/arm-none-eabi/4.5.1/../../../../arm-none-eabi/lib\libc.a(lib_a-fopen.o)
                                                  c:/program files/codesourcery/sourcery g++ lite/bin/../lib/gcc/arm-none-eabi/4.5.1/../../../../arm-none-eabi/lib\libc.a(lib_a-findfp.o)
__swsetup_r                                       c:/program files/codesourcery/sourcery g++ lite/bin/../lib/gcc/arm-none-eabi/4.5.1/../../../../arm-none-eabi/lib\libc.a(lib_a-wsetup.o)
                                                  c:/program files/codesourcery/sourcery g++ lite/bin/../lib/gcc/arm-none-eabi/4.5.1/../../../../arm-none-eabi/lib\libc.a(lib_a-wbuf.o)
                                                  c:/program files/codesourcery/sourcery g++ lite/bin/../lib/gcc/arm-none-eabi/4.5.1/../../../../arm-none-eabi/lib\libc.a(lib_a-fvwrite.o)
                                                  c:/program files/codesourcery/sourcery g++ lite/bin/../lib/gcc/arm-none-eabi/4.5.1/../../../../arm-none-eabi/lib\libc.a(lib_a-vfiprintf.o)
__tz_lock                                         c:/program files/codesourcery/sourcery g++ lite/bin/../lib/gcc/arm-none-eabi/4.5.1/../../../../arm-none-eabi/lib\libc.a(lib_a-tzlock.o)
                                                  c:/program files/codesourcery/sourcery g++ lite/bin/../lib/gcc/arm-none-eabi/4.5.1/../../../../arm-none-eabi/lib\libc.a(lib_a-mktm_r.o)
__tz_unlock                                       c:/program files/codesourcery/sourcery g++ lite/bin/../lib/gcc/arm-none-eabi/4.5.1/../../../../arm-none-eabi/lib\libc.a(lib_a-tzlock.o)
                                                  c:/program files/codesourcery/sourcery g++ lite/bin/../lib/gcc/arm-none-eabi/4.5.1/../../../../arm-none-eabi/lib\libc.a(lib_a-mktm_r.o)
__tzcalc_limits                                   c:/program files/codesourcery/sourcery g++ lite/bin/../lib/gcc/arm-none-eabi/4.5.1/../../../../arm-none-eabi/lib\libc.a(lib_a-mktm_r.o)
__udivdi3                                         c:/program files/codesourcery/sourcery g++ lite/bin/../lib/gcc/arm-none-eabi/4.5.1\libgcc.a(_udivdi3.o)
                                                  c:/program files/codesourcery/sourcery g++ lite/bin/../lib/gcc/arm-none-eabi/4.5.1\libgcc.a(bpabi.o)
__udivsi3                                         c:/program files/codesourcery/sourcery g++ lite/bin/../lib/gcc/arm-none-eabi/4.5.1\libgcc.a(_udivsi3.o)
__wctomb                                          c:/program files/codesourcery/sourcery g++ lite/bin/../lib/gcc/arm-none-eabi/4.5.1/../../../../arm-none-eabi/lib\libc.a(lib_a-wctomb_r.o)
                                                  c:/program files/codesourcery/sourcery g++ lite/bin/../lib/gcc/arm-none-eabi/4.5.1/../../../../arm-none-eabi/lib\libc.a(lib_a-wcrtomb.o)
_boot                                             ../../hal/lpc2106-cmucam3\libhal-lpc2106-cmucam3.a(startup.o)
_bss                                              ../../hal/lpc2106-cmucam3\libhal-lpc2106-cmucam3.a(startup.o)
_calloc_r                                         c:/program files/codesourcery/sourcery g++ lite/bin/../lib/gcc/arm-none-eabi/4.5.1/../../../../arm-none-eabi/lib\libc.a(lib_a-callocr.o)
                                                  c:/program files/codesourcery/sourcery g++ lite/bin/../lib/gcc/arm-none-eabi/4.5.1/../../../../arm-none-eabi/lib\libc.a(lib_a-calloc.o)
_cc3_button_trigger                               ../../hal/lpc2106-cmucam3\libhal-lpc2106-cmucam3.a(interrupt.o)
                                                  ../../hal/lpc2106-cmucam3\libhal-lpc2106-cmucam3.a(mmc_hardware.o)
                                                  ../../hal/lpc2106-cmucam3\libhal-lpc2106-cmucam3.a(cc3.o)
_cc3_camera_reset                                 ../../hal/lpc2106-cmucam3\libhal-lpc2106-cmucam3.a(cc3_hal.o)
                                                  ../../hal/lpc2106-cmucam3\libhal-lpc2106-cmucam3.a(cc3.o)
_cc3_delay_sccb                                   ../../hal/lpc2106-cmucam3\libhal-lpc2106-cmucam3.a(cc3_hal.o)
                                                  ../../hal/lpc2106-cmucam3\libhal-lpc2106-cmucam3.a(cc3.o)
_cc3_delay_us_4                                   ../../hal/lpc2106-cmucam3\libhal-lpc2106-cmucam3.a(cc3_hal.o)
                                                  ../../hal/lpc2106-cmucam3\libhal-lpc2106-cmucam3.a(cc3.o)
_cc3_fifo_reset                                   ../../hal/lpc2106-cmucam3\libhal-lpc2106-cmucam3.a(cc3_hal.o)
                                                  ../../hal/lpc2106-cmucam3\libhal-lpc2106-cmucam3.a(cc3.o)
_cc3_get_driver_for_file_number                   ../../hal/lpc2106-cmucam3\libhal-lpc2106-cmucam3.a(devices.o)
                                                  ../../hal/lpc2106-cmucam3\libhal-lpc2106-cmucam3.a(syscalls.o)
_cc3_get_driver_for_name                          ../../hal/lpc2106-cmucam3\libhal-lpc2106-cmucam3.a(devices.o)
                                                  ../../hal/lpc2106-cmucam3\libhal-lpc2106-cmucam3.a(syscalls.o)
_cc3_get_internal_file_number                     ../../hal/lpc2106-cmucam3\libhal-lpc2106-cmucam3.a(devices.o)
                                                  ../../hal/lpc2106-cmucam3\libhal-lpc2106-cmucam3.a(syscalls.o)
_cc3_make_file_number                             ../../hal/lpc2106-cmucam3\libhal-lpc2106-cmucam3.a(devices.o)
                                                  ../../hal/lpc2106-cmucam3\libhal-lpc2106-cmucam3.a(syscalls.o)
_cc3_mmc_block_read                               ../../hal/lpc2106-cmucam3\libhal-lpc2106-cmucam3.a(mmc_hardware.o)
                                                  ../../hal/lpc2106-cmucam3\libhal-lpc2106-cmucam3.a(mmc_driver.o)
_cc3_mmc_block_write                              ../../hal/lpc2106-cmucam3\libhal-lpc2106-cmucam3.a(mmc_hardware.o)
                                                  ../../hal/lpc2106-cmucam3\libhal-lpc2106-cmucam3.a(mmc_driver.o)
_cc3_mmc_driver                                   ../../hal/lpc2106-cmucam3\libhal-lpc2106-cmucam3.a(mmc_driver.o)
                                                  ../../hal/lpc2106-cmucam3\libhal-lpc2106-cmucam3.a(devices.o)
_cc3_mmc_idle                                     ../../hal/lpc2106-cmucam3\libhal-lpc2106-cmucam3.a(mmc_hardware.o)
                                                  ../../hal/lpc2106-cmucam3\libhal-lpc2106-cmucam3.a(mmc_driver.o)
_cc3_mmc_init                                     ../../hal/lpc2106-cmucam3\libhal-lpc2106-cmucam3.a(mmc_hardware.o)
                                                  ../../hal/lpc2106-cmucam3\libhal-lpc2106-cmucam3.a(mmc_driver.o)
_cc3_pixbuf_write_rewind                          ../../hal/lpc2106-cmucam3\libhal-lpc2106-cmucam3.a(cc3_hal.o)
                                                  ../../hal/lpc2106-cmucam3\libhal-lpc2106-cmucam3.a(cc3.o)
                                                  ../../hal/lpc2106-cmucam3\libhal-lpc2106-cmucam3.a(interrupt.o)
_cc3_servo_enable                                 ../../hal/lpc2106-cmucam3\libhal-lpc2106-cmucam3.a(servo.o)
                                                  ../../hal/lpc2106-cmucam3\libhal-lpc2106-cmucam3.a(gpio.o)
_cc3_servo_int                                    ../../hal/lpc2106-cmucam3\libhal-lpc2106-cmucam3.a(servo.o)
                                                  ../../hal/lpc2106-cmucam3\libhal-lpc2106-cmucam3.a(interrupt.o)
_cc3_servo_map                                    ../../hal/lpc2106-cmucam3\libhal-lpc2106-cmucam3.a(servo.o)
                                                  ../../hal/lpc2106-cmucam3\libhal-lpc2106-cmucam3.a(gpio.o)
_cc3_system_setup                                 ../../hal/lpc2106-cmucam3\libhal-lpc2106-cmucam3.a(cc3_hal.o)
                                                  ../../hal/lpc2106-cmucam3\libhal-lpc2106-cmucam3.a(startup.o)
_cc3_uart0_binmode                                ../../hal/lpc2106-cmucam3\libhal-lpc2106-cmucam3.a(serial.o)
                                                  ../../hal/lpc2106-cmucam3\libhal-lpc2106-cmucam3.a(uart_driver.o)
_cc3_uart0_setup                                  ../../hal/lpc2106-cmucam3\libhal-lpc2106-cmucam3.a(serial.o)
_cc3_uart1_binmode                                ../../hal/lpc2106-cmucam3\libhal-lpc2106-cmucam3.a(serial.o)
                                                  ../../hal/lpc2106-cmucam3\libhal-lpc2106-cmucam3.a(uart_driver.o)
_cc3_uart1_setup                                  ../../hal/lpc2106-cmucam3\libhal-lpc2106-cmucam3.a(serial.o)
_cc3_uart_driver                                  ../../hal/lpc2106-cmucam3\libhal-lpc2106-cmucam3.a(uart_driver.o)
                                                  ../../hal/lpc2106-cmucam3\libhal-lpc2106-cmucam3.a(devices.o)
_cleanup                                          c:/program files/codesourcery/sourcery g++ lite/bin/../lib/gcc/arm-none-eabi/4.5.1/../../../../arm-none-eabi/lib\libc.a(lib_a-findfp.o)
_cleanup_r                                        c:/program files/codesourcery/sourcery g++ lite/bin/../lib/gcc/arm-none-eabi/4.5.1/../../../../arm-none-eabi/lib\libc.a(lib_a-findfp.o)
                                                  c:/program files/codesourcery/sourcery g++ lite/bin/../lib/gcc/arm-none-eabi/4.5.1/../../../../arm-none-eabi/lib\libc.a(lib_a-setvbuf.o)
                                                  c:/program files/codesourcery/sourcery g++ lite/bin/../lib/gcc/arm-none-eabi/4.5.1/../../../../arm-none-eabi/lib\libc.a(lib_a-makebuf.o)
_close                                            ../../hal/lpc2106-cmucam3\libhal-lpc2106-cmucam3.a(syscalls.o)
                                                  c:/program files/codesourcery/sourcery g++ lite/bin/../lib/gcc/arm-none-eabi/4.5.1/../../../../arm-none-eabi/lib\libc.a(lib_a-closer.o)
_close_r                                          c:/program files/codesourcery/sourcery g++ lite/bin/../lib/gcc/arm-none-eabi/4.5.1/../../../../arm-none-eabi/lib\libc.a(lib_a-closer.o)
                                                  c:/program files/codesourcery/sourcery g++ lite/bin/../lib/gcc/arm-none-eabi/4.5.1/../../../../arm-none-eabi/lib\libc.a(lib_a-stdio.o)
_ctype_                                           c:/program files/codesourcery/sourcery g++ lite/bin/../lib/gcc/arm-none-eabi/4.5.1/../../../../arm-none-eabi/lib\libc.a(lib_a-ctype_.o)
_data                                             ../../hal/lpc2106-cmucam3\libhal-lpc2106-cmucam3.a(startup.o)
_daylight                                         c:/program files/codesourcery/sourcery g++ lite/bin/../lib/gcc/arm-none-eabi/4.5.1/../../../../arm-none-eabi/lib\libc.a(lib_a-tzvars.o)
                                                  c:/program files/codesourcery/sourcery g++ lite/bin/../lib/gcc/arm-none-eabi/4.5.1/../../../../arm-none-eabi/lib\libc.a(lib_a-mktm_r.o)
_edata                                            ../../hal/lpc2106-cmucam3\libhal-lpc2106-cmucam3.a(startup.o)
_end                                              ../../hal/lpc2106-cmucam3\libhal-lpc2106-cmucam3.a(startup.o)
                                                  ../../hal/lpc2106-cmucam3\libhal-lpc2106-cmucam3.a(syscalls.o)
_etext                                            ../../hal/lpc2106-cmucam3\libhal-lpc2106-cmucam3.a(startup.o)
_exit                                             ../../hal/lpc2106-cmucam3\libhal-lpc2106-cmucam3.a(syscalls.o)
                                                  c:/program files/codesourcery/sourcery g++ lite/bin/../lib/gcc/arm-none-eabi/4.5.1/../../../../arm-none-eabi/lib\libc.a(lib_a-exit.o)
_fclose_r                                         c:/program files/codesourcery/sourcery g++ lite/bin/../lib/gcc/arm-none-eabi/4.5.1/../../../../arm-none-eabi/lib\libc.a(lib_a-fclose.o)
_fflush_r                                         c:/program files/codesourcery/sourcery g++ lite/bin/../lib/gcc/arm-none-eabi/4.5.1/../../../../arm-none-eabi/lib\libc.a(lib_a-fflush.o)
                                                  c:/program files/codesourcery/sourcery g++ lite/bin/../lib/gcc/arm-none-eabi/4.5.1/../../../../arm-none-eabi/lib\libc.a(lib_a-wbuf.o)
                                                  c:/program files/codesourcery/sourcery g++ lite/bin/../lib/gcc/arm-none-eabi/4.5.1/../../../../arm-none-eabi/lib\libc.a(lib_a-fvwrite.o)
                                                  c:/program files/codesourcery/sourcery g++ lite/bin/../lib/gcc/arm-none-eabi/4.5.1/../../../../arm-none-eabi/lib\libc.a(lib_a-vfiprintf.o)
                                                  c:/program files/codesourcery/sourcery g++ lite/bin/../lib/gcc/arm-none-eabi/4.5.1/../../../../arm-none-eabi/lib\libc.a(lib_a-setvbuf.o)
                                                  c:/program files/codesourcery/sourcery g++ lite/bin/../lib/gcc/arm-none-eabi/4.5.1/../../../../arm-none-eabi/lib\libc.a(lib_a-refill.o)
                                                  c:/program files/codesourcery/sourcery g++ lite/bin/../lib/gcc/arm-none-eabi/4.5.1/../../../../arm-none-eabi/lib\libc.a(lib_a-fseek.o)
                                                  c:/program files/codesourcery/sourcery g++ lite/bin/../lib/gcc/arm-none-eabi/4.5.1/../../../../arm-none-eabi/lib\libc.a(lib_a-fclose.o)
_fini                                             c:/program files/codesourcery/sourcery g++ lite/bin/../lib/gcc/arm-none-eabi/4.5.1/crti.o
                                                  c:/program files/codesourcery/sourcery g++ lite/bin/../lib/gcc/arm-none-eabi/4.5.1/../../../../arm-none-eabi/lib\libc.a(lib_a-fini.o)
_fiprintf_r                                       c:/program files/codesourcery/sourcery g++ lite/bin/../lib/gcc/arm-none-eabi/4.5.1/../../../../arm-none-eabi/lib\libc.a(lib_a-fiprintf.o)
_fopen_r                                          c:/program files/codesourcery/sourcery g++ lite/bin/../lib/gcc/arm-none-eabi/4.5.1/../../../../arm-none-eabi/lib\libc.a(lib_a-fopen.o)
_fputwc_r                                         c:/program files/codesourcery/sourcery g++ lite/bin/../lib/gcc/arm-none-eabi/4.5.1/../../../../arm-none-eabi/lib\libc.a(lib_a-fputwc.o)
                                                  c:/program files/codesourcery/sourcery g++ lite/bin/../lib/gcc/arm-none-eabi/4.5.1/../../../../arm-none-eabi/lib\libc.a(lib_a-vfiprintf.o)
_free_r                                           c:/program files/codesourcery/sourcery g++ lite/bin/../lib/gcc/arm-none-eabi/4.5.1/../../../../arm-none-eabi/lib\libc.a(lib_a-freer.o)
                                                  c:/program files/codesourcery/sourcery g++ lite/bin/../lib/gcc/arm-none-eabi/4.5.1/../../../../arm-none-eabi/lib\libc.a(lib_a-reallocr.o)
                                                  c:/program files/codesourcery/sourcery g++ lite/bin/../lib/gcc/arm-none-eabi/4.5.1/../../../../arm-none-eabi/lib\libc.a(lib_a-fvwrite.o)
                                                  c:/program files/codesourcery/sourcery g++ lite/bin/../lib/gcc/arm-none-eabi/4.5.1/../../../../arm-none-eabi/lib\libc.a(lib_a-wsetup.o)
                                                  c:/program files/codesourcery/sourcery g++ lite/bin/../lib/gcc/arm-none-eabi/4.5.1/../../../../arm-none-eabi/lib\libc.a(lib_a-svfiprintf.o)
                                                  c:/program files/codesourcery/sourcery g++ lite/bin/../lib/gcc/arm-none-eabi/4.5.1/../../../../arm-none-eabi/lib\libc.a(lib_a-setvbuf.o)
                                                  c:/program files/codesourcery/sourcery g++ lite/bin/../lib/gcc/arm-none-eabi/4.5.1/../../../../arm-none-eabi/lib\libc.a(lib_a-refill.o)
                                                  c:/program files/codesourcery/sourcery g++ lite/bin/../lib/gcc/arm-none-eabi/4.5.1/../../../../arm-none-eabi/lib\libc.a(lib_a-reent.o)
                                                  c:/program files/codesourcery/sourcery g++ lite/bin/../lib/gcc/arm-none-eabi/4.5.1/../../../../arm-none-eabi/lib\libc.a(lib_a-mallocr.o)
                                                  c:/program files/codesourcery/sourcery g++ lite/bin/../lib/gcc/arm-none-eabi/4.5.1/../../../../arm-none-eabi/lib\libc.a(lib_a-malloc.o)
                                                  c:/program files/codesourcery/sourcery g++ lite/bin/../lib/gcc/arm-none-eabi/4.5.1/../../../../arm-none-eabi/lib\libc.a(lib_a-fseek.o)
                                                  c:/program files/codesourcery/sourcery g++ lite/bin/../lib/gcc/arm-none-eabi/4.5.1/../../../../arm-none-eabi/lib\libc.a(lib_a-fflush.o)
                                                  c:/program files/codesourcery/sourcery g++ lite/bin/../lib/gcc/arm-none-eabi/4.5.1/../../../../arm-none-eabi/lib\libc.a(lib_a-fclose.o)
_fseek_r                                          c:/program files/codesourcery/sourcery g++ lite/bin/../lib/gcc/arm-none-eabi/4.5.1/../../../../arm-none-eabi/lib\libc.a(lib_a-fseek.o)
                                                  c:/program files/codesourcery/sourcery g++ lite/bin/../lib/gcc/arm-none-eabi/4.5.1/../../../../arm-none-eabi/lib\libc.a(lib_a-fopen.o)
_fstat                                            ../../hal/lpc2106-cmucam3\libhal-lpc2106-cmucam3.a(syscalls.o)
                                                  c:/program files/codesourcery/sourcery g++ lite/bin/../lib/gcc/arm-none-eabi/4.5.1/../../../../arm-none-eabi/lib\libc.a(lib_a-fstatr.o)
_fstat_r                                          c:/program files/codesourcery/sourcery g++ lite/bin/../lib/gcc/arm-none-eabi/4.5.1/../../../../arm-none-eabi/lib\libc.a(lib_a-fstatr.o)
                                                  c:/program files/codesourcery/sourcery g++ lite/bin/../lib/gcc/arm-none-eabi/4.5.1/../../../../arm-none-eabi/lib\libc.a(lib_a-makebuf.o)
                                                  c:/program files/codesourcery/sourcery g++ lite/bin/../lib/gcc/arm-none-eabi/4.5.1/../../../../arm-none-eabi/lib\libc.a(lib_a-fseek.o)
_fwalk                                            c:/program files/codesourcery/sourcery g++ lite/bin/../lib/gcc/arm-none-eabi/4.5.1/../../../../arm-none-eabi/lib\libc.a(lib_a-fwalk.o)
                                                  c:/program files/codesourcery/sourcery g++ lite/bin/../lib/gcc/arm-none-eabi/4.5.1/../../../../arm-none-eabi/lib\libc.a(lib_a-refill.o)
                                                  c:/program files/codesourcery/sourcery g++ lite/bin/../lib/gcc/arm-none-eabi/4.5.1/../../../../arm-none-eabi/lib\libc.a(lib_a-findfp.o)
_fwalk_reent                                      c:/program files/codesourcery/sourcery g++ lite/bin/../lib/gcc/arm-none-eabi/4.5.1/../../../../arm-none-eabi/lib\libc.a(lib_a-fwalk.o)
                                                  c:/program files/codesourcery/sourcery g++ lite/bin/../lib/gcc/arm-none-eabi/4.5.1/../../../../arm-none-eabi/lib\libc.a(lib_a-fflush.o)
_fwrite_r                                         c:/program files/codesourcery/sourcery g++ lite/bin/../lib/gcc/arm-none-eabi/4.5.1/../../../../arm-none-eabi/lib\libc.a(lib_a-fwrite.o)
_getpid                                           ../../hal/lpc2106-cmucam3\libhal-lpc2106-cmucam3.a(syscalls.o)
_gettimeofday                                     ../../hal/lpc2106-cmucam3\libhal-lpc2106-cmucam3.a(syscalls.o)
                                                  c:/program files/codesourcery/sourcery g++ lite/bin/../lib/gcc/arm-none-eabi/4.5.1/../../../../arm-none-eabi/lib\libc.a(lib_a-gettimeofdayr.o)
_gettimeofday_r                                   c:/program files/codesourcery/sourcery g++ lite/bin/../lib/gcc/arm-none-eabi/4.5.1/../../../../arm-none-eabi/lib\libc.a(lib_a-gettimeofdayr.o)
                                                  c:/program files/codesourcery/sourcery g++ lite/bin/../lib/gcc/arm-none-eabi/4.5.1/../../../../arm-none-eabi/lib\libc.a(lib_a-sysgettod.o)
_global_impure_ptr                                c:/program files/codesourcery/sourcery g++ lite/bin/../lib/gcc/arm-none-eabi/4.5.1/../../../../arm-none-eabi/lib\libc.a(lib_a-impure.o)
                                                  c:/program files/codesourcery/sourcery g++ lite/bin/../lib/gcc/arm-none-eabi/4.5.1/../../../../arm-none-eabi/lib\libc.a(lib_a-__atexit.o)
                                                  c:/program files/codesourcery/sourcery g++ lite/bin/../lib/gcc/arm-none-eabi/4.5.1/../../../../arm-none-eabi/lib\libc.a(lib_a-__call_atexit.o)
                                                  c:/program files/codesourcery/sourcery g++ lite/bin/../lib/gcc/arm-none-eabi/4.5.1/../../../../arm-none-eabi/lib\libc.a(lib_a-refill.o)
                                                  c:/program files/codesourcery/sourcery g++ lite/bin/../lib/gcc/arm-none-eabi/4.5.1/../../../../arm-none-eabi/lib\libc.a(lib_a-findfp.o)
                                                  c:/program files/codesourcery/sourcery g++ lite/bin/../lib/gcc/arm-none-eabi/4.5.1/../../../../arm-none-eabi/lib\libc.a(lib_a-fflush.o)
                                                  c:/program files/codesourcery/sourcery g++ lite/bin/../lib/gcc/arm-none-eabi/4.5.1/../../../../arm-none-eabi/lib\libc.a(lib_a-exit.o)
_heap_end                                         ../../hal/lpc2106-cmucam3\libhal-lpc2106-cmucam3.a(syscalls.o)
_impure_ptr                                       c:/program files/codesourcery/sourcery g++ lite/bin/../lib/gcc/arm-none-eabi/4.5.1/../../../../arm-none-eabi/lib\libc.a(lib_a-impure.o)
                                                  c:/program files/codesourcery/sourcery g++ lite/bin/../lib/gcc/arm-none-eabi/4.5.1/../../../../arm-none-eabi/lib\libc.a(lib_a-wcrtomb.o)
                                                  c:/program files/codesourcery/sourcery g++ lite/bin/../lib/gcc/arm-none-eabi/4.5.1/../../../../arm-none-eabi/lib\libc.a(lib_a-wbuf.o)
                                                  c:/program files/codesourcery/sourcery g++ lite/bin/../lib/gcc/arm-none-eabi/4.5.1/../../../../arm-none-eabi/lib\libc.a(lib_a-locale.o)
                                                  c:/program files/codesourcery/sourcery g++ lite/bin/../lib/gcc/arm-none-eabi/4.5.1/../../../../arm-none-eabi/lib\libc.a(lib_a-fputwc.o)
                                                  c:/program files/codesourcery/sourcery g++ lite/bin/../lib/gcc/arm-none-eabi/4.5.1/../../../../arm-none-eabi/lib\libc.a(lib_a-wsetup.o)
                                                  c:/program files/codesourcery/sourcery g++ lite/bin/../lib/gcc/arm-none-eabi/4.5.1/../../../../arm-none-eabi/lib\libc.a(lib_a-vfiprintf.o)
                                                  c:/program files/codesourcery/sourcery g++ lite/bin/../lib/gcc/arm-none-eabi/4.5.1/../../../../arm-none-eabi/lib\libc.a(lib_a-sysgettod.o)
                                                  c:/program files/codesourcery/sourcery g++ lite/bin/../lib/gcc/arm-none-eabi/4.5.1/../../../../arm-none-eabi/lib\libc.a(lib_a-strtol.o)
                                                  c:/program files/codesourcery/sourcery g++ lite/bin/../lib/gcc/arm-none-eabi/4.5.1/../../../../arm-none-eabi/lib\libc.a(lib_a-strdup.o)
                                                  c:/program files/codesourcery/sourcery g++ lite/bin/../lib/gcc/arm-none-eabi/4.5.1/../../../../arm-none-eabi/lib\libc.a(lib_a-sniprintf.o)
                                                  c:/program files/codesourcery/sourcery g++ lite/bin/../lib/gcc/arm-none-eabi/4.5.1/../../../../arm-none-eabi/lib\libc.a(lib_a-siprintf.o)
                                                  c:/program files/codesourcery/sourcery g++ lite/bin/../lib/gcc/arm-none-eabi/4.5.1/../../../../arm-none-eabi/lib\libc.a(lib_a-setvbuf.o)
                                                  c:/program files/codesourcery/sourcery g++ lite/bin/../lib/gcc/arm-none-eabi/4.5.1/../../../../arm-none-eabi/lib\libc.a(lib_a-reent.o)
                                                  c:/program files/codesourcery/sourcery g++ lite/bin/../lib/gcc/arm-none-eabi/4.5.1/../../../../arm-none-eabi/lib\libc.a(lib_a-malloc.o)
                                                  c:/program files/codesourcery/sourcery g++ lite/bin/../lib/gcc/arm-none-eabi/4.5.1/../../../../arm-none-eabi/lib\libc.a(lib_a-iprintf.o)
                                                  c:/program files/codesourcery/sourcery g++ lite/bin/../lib/gcc/arm-none-eabi/4.5.1/../../../../arm-none-eabi/lib\libc.a(lib_a-fwrite.o)
                                                  c:/program files/codesourcery/sourcery g++ lite/bin/../lib/gcc/arm-none-eabi/4.5.1/../../../../arm-none-eabi/lib\libc.a(lib_a-fseek.o)
                                                  c:/program files/codesourcery/sourcery g++ lite/bin/../lib/gcc/arm-none-eabi/4.5.1/../../../../arm-none-eabi/lib\libc.a(lib_a-fopen.o)
                                                  c:/program files/codesourcery/sourcery g++ lite/bin/../lib/gcc/arm-none-eabi/4.5.1/../../../../arm-none-eabi/lib\libc.a(lib_a-fiprintf.o)
                                                  c:/program files/codesourcery/sourcery g++ lite/bin/../lib/gcc/arm-none-eabi/4.5.1/../../../../arm-none-eabi/lib\libc.a(lib_a-findfp.o)
                                                  c:/program files/codesourcery/sourcery g++ lite/bin/../lib/gcc/arm-none-eabi/4.5.1/../../../../arm-none-eabi/lib\libc.a(lib_a-fflush.o)
                                                  c:/program files/codesourcery/sourcery g++ lite/bin/../lib/gcc/arm-none-eabi/4.5.1/../../../../arm-none-eabi/lib\libc.a(lib_a-fclose.o)
                                                  c:/program files/codesourcery/sourcery g++ lite/bin/../lib/gcc/arm-none-eabi/4.5.1/../../../../arm-none-eabi/lib\libc.a(lib_a-calloc.o)
                                                  ../../hal/lpc2106-cmucam3\libhal-lpc2106-cmucam3.a(serial.o)
                                                  ../../lib/jpeg-6b\libjpeg-6b_lpc2106-cmucam3.a(jerror.o)
_init                                             c:/program files/codesourcery/sourcery g++ lite/bin/../lib/gcc/arm-none-eabi/4.5.1/crti.o
_iprintf_r                                        c:/program files/codesourcery/sourcery g++ lite/bin/../lib/gcc/arm-none-eabi/4.5.1/../../../../arm-none-eabi/lib\libc.a(lib_a-iprintf.o)
_isatty                                           ../../hal/lpc2106-cmucam3\libhal-lpc2106-cmucam3.a(syscalls.o)
                                                  c:/program files/codesourcery/sourcery g++ lite/bin/../lib/gcc/arm-none-eabi/4.5.1/../../../../arm-none-eabi/lib\libc.a(lib_a-isattyr.o)
_isatty_r                                         c:/program files/codesourcery/sourcery g++ lite/bin/../lib/gcc/arm-none-eabi/4.5.1/../../../../arm-none-eabi/lib\libc.a(lib_a-isattyr.o)
                                                  c:/program files/codesourcery/sourcery g++ lite/bin/../lib/gcc/arm-none-eabi/4.5.1/../../../../arm-none-eabi/lib\libc.a(lib_a-makebuf.o)
_kill                                             ../../hal/lpc2106-cmucam3\libhal-lpc2106-cmucam3.a(syscalls.o)
_link                                             ../../hal/lpc2106-cmucam3\libhal-lpc2106-cmucam3.a(syscalls.o)
_localeconv_r                                     c:/program files/codesourcery/sourcery g++ lite/bin/../lib/gcc/arm-none-eabi/4.5.1/../../../../arm-none-eabi/lib\libc.a(lib_a-locale.o)
_lseek                                            ../../hal/lpc2106-cmucam3\libhal-lpc2106-cmucam3.a(syscalls.o)
                                                  c:/program files/codesourcery/sourcery g++ lite/bin/../lib/gcc/arm-none-eabi/4.5.1/../../../../arm-none-eabi/lib\libc.a(lib_a-lseekr.o)
_lseek_r                                          c:/program files/codesourcery/sourcery g++ lite/bin/../lib/gcc/arm-none-eabi/4.5.1/../../../../arm-none-eabi/lib\libc.a(lib_a-lseekr.o)
                                                  c:/program files/codesourcery/sourcery g++ lite/bin/../lib/gcc/arm-none-eabi/4.5.1/../../../../arm-none-eabi/lib\libc.a(lib_a-stdio.o)
_mainCRTStartup                                   ../../hal/lpc2106-cmucam3\libhal-lpc2106-cmucam3.a(startup.o)
_malloc_r                                         c:/program files/codesourcery/sourcery g++ lite/bin/../lib/gcc/arm-none-eabi/4.5.1/../../../../arm-none-eabi/lib\libc.a(lib_a-mallocr.o)
                                                  c:/program files/codesourcery/sourcery g++ lite/bin/../lib/gcc/arm-none-eabi/4.5.1/../../../../arm-none-eabi/lib\libc.a(lib_a-reallocr.o)
                                                  c:/program files/codesourcery/sourcery g++ lite/bin/../lib/gcc/arm-none-eabi/4.5.1/../../../../arm-none-eabi/lib\libc.a(lib_a-fvwrite.o)
                                                  c:/program files/codesourcery/sourcery g++ lite/bin/../lib/gcc/arm-none-eabi/4.5.1/../../../../arm-none-eabi/lib\libc.a(lib_a-svfiprintf.o)
                                                  c:/program files/codesourcery/sourcery g++ lite/bin/../lib/gcc/arm-none-eabi/4.5.1/../../../../arm-none-eabi/lib\libc.a(lib_a-strdup_r.o)
                                                  c:/program files/codesourcery/sourcery g++ lite/bin/../lib/gcc/arm-none-eabi/4.5.1/../../../../arm-none-eabi/lib\libc.a(lib_a-malloc.o)
                                                  c:/program files/codesourcery/sourcery g++ lite/bin/../lib/gcc/arm-none-eabi/4.5.1/../../../../arm-none-eabi/lib\libc.a(lib_a-makebuf.o)
                                                  c:/program files/codesourcery/sourcery g++ lite/bin/../lib/gcc/arm-none-eabi/4.5.1/../../../../arm-none-eabi/lib\libc.a(lib_a-findfp.o)
                                                  c:/program files/codesourcery/sourcery g++ lite/bin/../lib/gcc/arm-none-eabi/4.5.1/../../../../arm-none-eabi/lib\libc.a(lib_a-callocr.o)
_malloc_trim_r                                    c:/program files/codesourcery/sourcery g++ lite/bin/../lib/gcc/arm-none-eabi/4.5.1/../../../../arm-none-eabi/lib\libc.a(lib_a-freer.o)
_mktm_r                                           c:/program files/codesourcery/sourcery g++ lite/bin/../lib/gcc/arm-none-eabi/4.5.1/../../../../arm-none-eabi/lib\libc.a(lib_a-mktm_r.o)
                                                  c:/program files/codesourcery/sourcery g++ lite/bin/../lib/gcc/arm-none-eabi/4.5.1/../../../../arm-none-eabi/lib\libc.a(lib_a-lcltime_r.o)
_open                                             ../../hal/lpc2106-cmucam3\libhal-lpc2106-cmucam3.a(syscalls.o)
                                                  c:/program files/codesourcery/sourcery g++ lite/bin/../lib/gcc/arm-none-eabi/4.5.1/../../../../arm-none-eabi/lib\libc.a(lib_a-openr.o)
_open_r                                           c:/program files/codesourcery/sourcery g++ lite/bin/../lib/gcc/arm-none-eabi/4.5.1/../../../../arm-none-eabi/lib\libc.a(lib_a-openr.o)
                                                  c:/program files/codesourcery/sourcery g++ lite/bin/../lib/gcc/arm-none-eabi/4.5.1/../../../../arm-none-eabi/lib\libc.a(lib_a-fopen.o)
_raise                                            ../../hal/lpc2106-cmucam3\libhal-lpc2106-cmucam3.a(syscalls.o)
_read                                             ../../hal/lpc2106-cmucam3\libhal-lpc2106-cmucam3.a(syscalls.o)
                                                  c:/program files/codesourcery/sourcery g++ lite/bin/../lib/gcc/arm-none-eabi/4.5.1/../../../../arm-none-eabi/lib\libc.a(lib_a-readr.o)
_read_r                                           c:/program files/codesourcery/sourcery g++ lite/bin/../lib/gcc/arm-none-eabi/4.5.1/../../../../arm-none-eabi/lib\libc.a(lib_a-readr.o)
                                                  c:/program files/codesourcery/sourcery g++ lite/bin/../lib/gcc/arm-none-eabi/4.5.1/../../../../arm-none-eabi/lib\libc.a(lib_a-stdio.o)
_realloc_r                                        c:/program files/codesourcery/sourcery g++ lite/bin/../lib/gcc/arm-none-eabi/4.5.1/../../../../arm-none-eabi/lib\libc.a(lib_a-reallocr.o)
                                                  c:/program files/codesourcery/sourcery g++ lite/bin/../lib/gcc/arm-none-eabi/4.5.1/../../../../arm-none-eabi/lib\libc.a(lib_a-fvwrite.o)
                                                  c:/program files/codesourcery/sourcery g++ lite/bin/../lib/gcc/arm-none-eabi/4.5.1/../../../../arm-none-eabi/lib\libc.a(lib_a-svfiprintf.o)
_reclaim_reent                                    c:/program files/codesourcery/sourcery g++ lite/bin/../lib/gcc/arm-none-eabi/4.5.1/../../../../arm-none-eabi/lib\libc.a(lib_a-reent.o)
_rename                                           ../../hal/lpc2106-cmucam3\libhal-lpc2106-cmucam3.a(syscalls.o)
_sbrk                                             ../../hal/lpc2106-cmucam3\libhal-lpc2106-cmucam3.a(syscalls.o)
                                                  c:/program files/codesourcery/sourcery g++ lite/bin/../lib/gcc/arm-none-eabi/4.5.1/../../../../arm-none-eabi/lib\libc.a(lib_a-sbrkr.o)
_sbrk_r                                           c:/program files/codesourcery/sourcery g++ lite/bin/../lib/gcc/arm-none-eabi/4.5.1/../../../../arm-none-eabi/lib\libc.a(lib_a-sbrkr.o)
                                                  c:/program files/codesourcery/sourcery g++ lite/bin/../lib/gcc/arm-none-eabi/4.5.1/../../../../arm-none-eabi/lib\libc.a(lib_a-mallocr.o)
                                                  c:/program files/codesourcery/sourcery g++ lite/bin/../lib/gcc/arm-none-eabi/4.5.1/../../../../arm-none-eabi/lib\libc.a(lib_a-freer.o)
_setlocale_r                                      c:/program files/codesourcery/sourcery g++ lite/bin/../lib/gcc/arm-none-eabi/4.5.1/../../../../arm-none-eabi/lib\libc.a(lib_a-locale.o)
_siprintf_r                                       c:/program files/codesourcery/sourcery g++ lite/bin/../lib/gcc/arm-none-eabi/4.5.1/../../../../arm-none-eabi/lib\libc.a(lib_a-siprintf.o)
_sniprintf_r                                      c:/program files/codesourcery/sourcery g++ lite/bin/../lib/gcc/arm-none-eabi/4.5.1/../../../../arm-none-eabi/lib\libc.a(lib_a-sniprintf.o)
_stack                                            ../../hal/lpc2106-cmucam3\libhal-lpc2106-cmucam3.a(startup.o)
_start                                            ../../hal/lpc2106-cmucam3\libhal-lpc2106-cmucam3.a(startup.o)
_strdup_r                                         c:/program files/codesourcery/sourcery g++ lite/bin/../lib/gcc/arm-none-eabi/4.5.1/../../../../arm-none-eabi/lib\libc.a(lib_a-strdup_r.o)
                                                  c:/program files/codesourcery/sourcery g++ lite/bin/../lib/gcc/arm-none-eabi/4.5.1/../../../../arm-none-eabi/lib\libc.a(lib_a-strdup.o)
_strtol_r                                         c:/program files/codesourcery/sourcery g++ lite/bin/../lib/gcc/arm-none-eabi/4.5.1/../../../../arm-none-eabi/lib\libc.a(lib_a-strtol.o)
_svfiprintf_r                                     c:/program files/codesourcery/sourcery g++ lite/bin/../lib/gcc/arm-none-eabi/4.5.1/../../../../arm-none-eabi/lib\libc.a(lib_a-svfiprintf.o)
                                                  c:/program files/codesourcery/sourcery g++ lite/bin/../lib/gcc/arm-none-eabi/4.5.1/../../../../arm-none-eabi/lib\libc.a(lib_a-sniprintf.o)
                                                  c:/program files/codesourcery/sourcery g++ lite/bin/../lib/gcc/arm-none-eabi/4.5.1/../../../../arm-none-eabi/lib\libc.a(lib_a-siprintf.o)
_system                                           ../../hal/lpc2106-cmucam3\libhal-lpc2106-cmucam3.a(syscalls.o)
_times                                            ../../hal/lpc2106-cmucam3\libhal-lpc2106-cmucam3.a(syscalls.o)
_timezone                                         c:/program files/codesourcery/sourcery g++ lite/bin/../lib/gcc/arm-none-eabi/4.5.1/../../../../arm-none-eabi/lib\libc.a(lib_a-tzvars.o)
_tzname                                           c:/program files/codesourcery/sourcery g++ lite/bin/../lib/gcc/arm-none-eabi/4.5.1/../../../../arm-none-eabi/lib\libc.a(lib_a-tzvars.o)
_unlink                                           ../../hal/lpc2106-cmucam3\libhal-lpc2106-cmucam3.a(syscalls.o)
_vfiprintf_r                                      c:/program files/codesourcery/sourcery g++ lite/bin/../lib/gcc/arm-none-eabi/4.5.1/../../../../arm-none-eabi/lib\libc.a(lib_a-vfiprintf.o)
                                                  c:/program files/codesourcery/sourcery g++ lite/bin/../lib/gcc/arm-none-eabi/4.5.1/../../../../arm-none-eabi/lib\libc.a(lib_a-iprintf.o)
                                                  c:/program files/codesourcery/sourcery g++ lite/bin/../lib/gcc/arm-none-eabi/4.5.1/../../../../arm-none-eabi/lib\libc.a(lib_a-fiprintf.o)
_wcrtomb_r                                        c:/program files/codesourcery/sourcery g++ lite/bin/../lib/gcc/arm-none-eabi/4.5.1/../../../../arm-none-eabi/lib\libc.a(lib_a-wcrtomb.o)
                                                  c:/program files/codesourcery/sourcery g++ lite/bin/../lib/gcc/arm-none-eabi/4.5.1/../../../../arm-none-eabi/lib\libc.a(lib_a-fputwc.o)
_wctomb_r                                         c:/program files/codesourcery/sourcery g++ lite/bin/../lib/gcc/arm-none-eabi/4.5.1/../../../../arm-none-eabi/lib\libc.a(lib_a-wctomb_r.o)
_wrapup_reent                                     c:/program files/codesourcery/sourcery g++ lite/bin/../lib/gcc/arm-none-eabi/4.5.1/../../../../arm-none-eabi/lib\libc.a(lib_a-reent.o)
_write                                            ../../hal/lpc2106-cmucam3\libhal-lpc2106-cmucam3.a(syscalls.o)
                                                  c:/program files/codesourcery/sourcery g++ lite/bin/../lib/gcc/arm-none-eabi/4.5.1/../../../../arm-none-eabi/lib\libc.a(lib_a-writer.o)
_write_r                                          c:/program files/codesourcery/sourcery g++ lite/bin/../lib/gcc/arm-none-eabi/4.5.1/../../../../arm-none-eabi/lib\libc.a(lib_a-writer.o)
                                                  c:/program files/codesourcery/sourcery g++ lite/bin/../lib/gcc/arm-none-eabi/4.5.1/../../../../arm-none-eabi/lib\libc.a(lib_a-stdio.o)
abort                                             ../../hal/lpc2106-cmucam3\libhal-lpc2106-cmucam3.a(syscalls.o)
atexit                                            c:/program files/codesourcery/sourcery g++ lite/bin/../lib/gcc/arm-none-eabi/4.5.1/../../../../arm-none-eabi/lib\libc.a(lib_a-atexit.o)
                                                  c:/program files/codesourcery/sourcery g++ lite/bin/../lib/gcc/arm-none-eabi/4.5.1/../../../../arm-none-eabi/lib\libc.a(lib_a-__call_atexit.o)
calloc                                            c:/program files/codesourcery/sourcery g++ lite/bin/../lib/gcc/arm-none-eabi/4.5.1/../../../../arm-none-eabi/lib\libc.a(lib_a-calloc.o)
                                                  ../../hal/lpc2106-cmucam3\libhal-lpc2106-cmucam3.a(mmc_driver.o)
                                                  ../../hal/lpc2106-cmucam3\libhal-lpc2106-cmucam3.a(mmc_hardware.o)
cc3_button_get_and_reset_trigger                  ../../hal/lpc2106-cmucam3\libhal-lpc2106-cmucam3.a(cc3.o)
cc3_button_get_state                              ../../hal/lpc2106-cmucam3\libhal-lpc2106-cmucam3.a(cc3.o)
cc3_camera_init                                   ../../hal/lpc2106-cmucam3\libhal-lpc2106-cmucam3.a(cc3.o)
                                                  lpc2106-cmucam3_buildfiles/main.o
cc3_camera_set_auto_exposure                      ../../hal/lpc2106-cmucam3\libhal-lpc2106-cmucam3.a(cc3.o)
cc3_camera_set_auto_white_balance                 ../../hal/lpc2106-cmucam3\libhal-lpc2106-cmucam3.a(cc3.o)
cc3_camera_set_brightness                         ../../hal/lpc2106-cmucam3\libhal-lpc2106-cmucam3.a(cc3.o)
cc3_camera_set_colorspace                         ../../hal/lpc2106-cmucam3\libhal-lpc2106-cmucam3.a(cc3.o)
cc3_camera_set_contrast                           ../../hal/lpc2106-cmucam3\libhal-lpc2106-cmucam3.a(cc3.o)
cc3_camera_set_framerate_divider                  ../../hal/lpc2106-cmucam3\libhal-lpc2106-cmucam3.a(cc3.o)
cc3_camera_set_power_state                        ../../hal/lpc2106-cmucam3\libhal-lpc2106-cmucam3.a(cc3.o)
cc3_camera_set_raw_register                       ../../hal/lpc2106-cmucam3\libhal-lpc2106-cmucam3.a(cc3.o)
cc3_camera_set_resolution                         ../../hal/lpc2106-cmucam3\libhal-lpc2106-cmucam3.a(cc3.o)
                                                  lpc2106-cmucam3_buildfiles/main.o
cc3_filesystem_init                               ../../hal/lpc2106-cmucam3\libhal-lpc2106-cmucam3.a(devices.o)
                                                  lpc2106-cmucam3_buildfiles/main.o
cc3_g_current_pixel                               ../../hal/lpc2106-cmucam3\libhal-lpc2106-cmucam3.a(cc3.o)
cc3_g_pixbuf_frame                                ../../hal/lpc2106-cmucam3\libhal-lpc2106-cmucam3.a(cc3.o)
                                                  lpc2106-cmucam3_buildfiles/main.o
cc3_gpio_get_count                                ../../hal/lpc2106-cmucam3\libhal-lpc2106-cmucam3.a(gpio.o)
cc3_gpio_get_servo_position                       ../../hal/lpc2106-cmucam3\libhal-lpc2106-cmucam3.a(servo.o)
cc3_gpio_get_value                                ../../hal/lpc2106-cmucam3\libhal-lpc2106-cmucam3.a(gpio.o)
cc3_gpio_set_mode                                 ../../hal/lpc2106-cmucam3\libhal-lpc2106-cmucam3.a(gpio.o)
cc3_gpio_set_servo_position                       ../../hal/lpc2106-cmucam3\libhal-lpc2106-cmucam3.a(servo.o)
cc3_gpio_set_value                                ../../hal/lpc2106-cmucam3\libhal-lpc2106-cmucam3.a(gpio.o)
cc3_led_set_state                                 ../../hal/lpc2106-cmucam3\libhal-lpc2106-cmucam3.a(cc3.o)
cc3_malloc_rows                                   ../../hal/lpc2106-cmucam3\libhal-lpc2106-cmucam3.a(cc3.o)
                                                  lpc2106-cmucam3_buildfiles/main.o
cc3_pixbuf_frame_reset                            ../../hal/lpc2106-cmucam3\libhal-lpc2106-cmucam3.a(cc3.o)
cc3_pixbuf_frame_set_coi                          ../../hal/lpc2106-cmucam3\libhal-lpc2106-cmucam3.a(cc3.o)
cc3_pixbuf_frame_set_roi                          ../../hal/lpc2106-cmucam3\libhal-lpc2106-cmucam3.a(cc3.o)
cc3_pixbuf_frame_set_subsample                    ../../hal/lpc2106-cmucam3\libhal-lpc2106-cmucam3.a(cc3.o)
cc3_pixbuf_load                                   ../../hal/lpc2106-cmucam3\libhal-lpc2106-cmucam3.a(cc3.o)
                                                  lpc2106-cmucam3_buildfiles/main.o
cc3_pixbuf_read_rows                              ../../hal/lpc2106-cmucam3\libhal-lpc2106-cmucam3.a(cc3.o)
                                                  lpc2106-cmucam3_buildfiles/main.o
cc3_pixbuf_rewind                                 ../../hal/lpc2106-cmucam3\libhal-lpc2106-cmucam3.a(cc3.o)
cc3_timer_get_current_ms                          ../../hal/lpc2106-cmucam3\libhal-lpc2106-cmucam3.a(cc3.o)
                                                  lpc2106-cmucam3_buildfiles/main.o
cc3_timer_wait_ms                                 ../../hal/lpc2106-cmucam3\libhal-lpc2106-cmucam3.a(cc3.o)
                                                  ../../hal/lpc2106-cmucam3\libhal-lpc2106-cmucam3.a(interrupt.o)
                                                  lpc2106-cmucam3_buildfiles/main.o
cc3_uart_fopen                                    ../../hal/lpc2106-cmucam3\libhal-lpc2106-cmucam3.a(serial.o)
cc3_uart_get_count                                ../../hal/lpc2106-cmucam3\libhal-lpc2106-cmucam3.a(serial.o)
                                                  ../../hal/lpc2106-cmucam3\libhal-lpc2106-cmucam3.a(uart_driver.o)
cc3_uart_has_data                                 ../../hal/lpc2106-cmucam3\libhal-lpc2106-cmucam3.a(serial.o)
cc3_uart_init                                     ../../hal/lpc2106-cmucam3\libhal-lpc2106-cmucam3.a(serial.o)
                                                  lpc2106-cmucam3_buildfiles/main.o
cleanup_glue                                      c:/program files/codesourcery/sourcery g++ lite/bin/../lib/gcc/arm-none-eabi/4.5.1/../../../../arm-none-eabi/lib\libc.a(lib_a-reent.o)
data_abort                                        ../../hal/lpc2106-cmucam3\libhal-lpc2106-cmucam3.a(interrupt.o)
                                                  ../../hal/lpc2106-cmucam3\libhal-lpc2106-cmucam3.a(startup.o)
disable_button_interrupt                          ../../hal/lpc2106-cmucam3\libhal-lpc2106-cmucam3.a(interrupt.o)
                                                  ../../hal/lpc2106-cmucam3\libhal-lpc2106-cmucam3.a(mmc_hardware.o)
disable_ext_interrupt                             ../../hal/lpc2106-cmucam3\libhal-lpc2106-cmucam3.a(interrupt.o)
disable_servo_interrupt                           ../../hal/lpc2106-cmucam3\libhal-lpc2106-cmucam3.a(interrupt.o)
                                                  ../../hal/lpc2106-cmucam3\libhal-lpc2106-cmucam3.a(servo.o)
enable_button_interrupt                           ../../hal/lpc2106-cmucam3\libhal-lpc2106-cmucam3.a(interrupt.o)
                                                  ../../hal/lpc2106-cmucam3\libhal-lpc2106-cmucam3.a(mmc_hardware.o)
                                                  ../../hal/lpc2106-cmucam3\libhal-lpc2106-cmucam3.a(cc3_hal.o)
                                                  ../../hal/lpc2106-cmucam3\libhal-lpc2106-cmucam3.a(cc3.o)
enable_ext_interrupt                              ../../hal/lpc2106-cmucam3\libhal-lpc2106-cmucam3.a(interrupt.o)
                                                  ../../hal/lpc2106-cmucam3\libhal-lpc2106-cmucam3.a(cc3.o)
enable_servo_interrupt                            ../../hal/lpc2106-cmucam3\libhal-lpc2106-cmucam3.a(interrupt.o)
                                                  ../../hal/lpc2106-cmucam3\libhal-lpc2106-cmucam3.a(servo.o)
errno                                             c:/program files/codesourcery/sourcery g++ lite/bin/../lib/gcc/arm-none-eabi/4.5.1/../../../../arm-none-eabi/lib\libc.a(lib_a-readr.o)
                                                  c:/program files/codesourcery/sourcery g++ lite/bin/../lib/gcc/arm-none-eabi/4.5.1/../../../../arm-none-eabi/lib\libc.a(lib_a-lseekr.o)
                                                  c:/program files/codesourcery/sourcery g++ lite/bin/../lib/gcc/arm-none-eabi/4.5.1/../../../../arm-none-eabi/lib\libc.a(lib_a-isattyr.o)
                                                  c:/program files/codesourcery/sourcery g++ lite/bin/../lib/gcc/arm-none-eabi/4.5.1/../../../../arm-none-eabi/lib\libc.a(lib_a-gettimeofdayr.o)
                                                  c:/program files/codesourcery/sourcery g++ lite/bin/../lib/gcc/arm-none-eabi/4.5.1/../../../../arm-none-eabi/lib\libc.a(lib_a-closer.o)
                                                  c:/program files/codesourcery/sourcery g++ lite/bin/../lib/gcc/arm-none-eabi/4.5.1/../../../../arm-none-eabi/lib\libc.a(lib_a-writer.o)
                                                  c:/program files/codesourcery/sourcery g++ lite/bin/../lib/gcc/arm-none-eabi/4.5.1/../../../../arm-none-eabi/lib\libc.a(lib_a-sbrkr.o)
                                                  c:/program files/codesourcery/sourcery g++ lite/bin/../lib/gcc/arm-none-eabi/4.5.1/../../../../arm-none-eabi/lib\libc.a(lib_a-reent.o)
                                                  c:/program files/codesourcery/sourcery g++ lite/bin/../lib/gcc/arm-none-eabi/4.5.1/../../../../arm-none-eabi/lib\libc.a(lib_a-openr.o)
                                                  c:/program files/codesourcery/sourcery g++ lite/bin/../lib/gcc/arm-none-eabi/4.5.1/../../../../arm-none-eabi/lib\libc.a(lib_a-fstatr.o)
                                                  ../../hal/lpc2106-cmucam3\libhal-lpc2106-cmucam3.a(uart_driver.o)
                                                  ../../hal/lpc2106-cmucam3\libhal-lpc2106-cmucam3.a(mmc_driver.o)
                                                  ../../hal/lpc2106-cmucam3\libhal-lpc2106-cmucam3.a(syscalls.o)
exit                                              c:/program files/codesourcery/sourcery g++ lite/bin/../lib/gcc/arm-none-eabi/4.5.1/../../../../arm-none-eabi/lib\libc.a(lib_a-exit.o)
                                                  ../../hal/lpc2106-cmucam3\libhal-lpc2106-cmucam3.a(interrupt.o)
                                                  ../../lib/jpeg-6b\libjpeg-6b_lpc2106-cmucam3.a(jerror.o)
fclose                                            c:/program files/codesourcery/sourcery g++ lite/bin/../lib/gcc/arm-none-eabi/4.5.1/../../../../arm-none-eabi/lib\libc.a(lib_a-fclose.o)
                                                  c:/program files/codesourcery/sourcery g++ lite/bin/../lib/gcc/arm-none-eabi/4.5.1/../../../../arm-none-eabi/lib\libc.a(lib_a-findfp.o)
                                                  lpc2106-cmucam3_buildfiles/main.o
fflush                                            c:/program files/codesourcery/sourcery g++ lite/bin/../lib/gcc/arm-none-eabi/4.5.1/../../../../arm-none-eabi/lib\libc.a(lib_a-fflush.o)
                                                  c:/program files/codesourcery/sourcery g++ lite/bin/../lib/gcc/arm-none-eabi/4.5.1/../../../../arm-none-eabi/lib\libc.a(lib_a-refill.o)
                                                  ../../lib/jpeg-6b\libjpeg-6b_lpc2106-cmucam3.a(jdatadst.o)
fiprintf                                          c:/program files/codesourcery/sourcery g++ lite/bin/../lib/gcc/arm-none-eabi/4.5.1/../../../../arm-none-eabi/lib\libc.a(lib_a-fiprintf.o)
                                                  ../../lib/jpeg-6b\libjpeg-6b_lpc2106-cmucam3.a(jerror.o)
fopen                                             c:/program files/codesourcery/sourcery g++ lite/bin/../lib/gcc/arm-none-eabi/4.5.1/../../../../arm-none-eabi/lib\libc.a(lib_a-fopen.o)
                                                  ../../hal/lpc2106-cmucam3\libhal-lpc2106-cmucam3.a(serial.o)
                                                  lpc2106-cmucam3_buildfiles/main.o
fputwc                                            c:/program files/codesourcery/sourcery g++ lite/bin/../lib/gcc/arm-none-eabi/4.5.1/../../../../arm-none-eabi/lib\libc.a(lib_a-fputwc.o)
free                                              c:/program files/codesourcery/sourcery g++ lite/bin/../lib/gcc/arm-none-eabi/4.5.1/../../../../arm-none-eabi/lib\libc.a(lib_a-malloc.o)
                                                  c:/program files/codesourcery/sourcery g++ lite/bin/../lib/gcc/arm-none-eabi/4.5.1/../../../../arm-none-eabi/lib\libc.a(lib_a-__call_atexit.o)
                                                  ../../hal/lpc2106-cmucam3\libhal-lpc2106-cmucam3.a(mmc_driver.o)
                                                  ../../hal/lpc2106-cmucam3\libhal-lpc2106-cmucam3.a(mmc_hardware.o)
                                                  ../../hal/lpc2106-cmucam3\libhal-lpc2106-cmucam3.a(syscalls.o)
                                                  ../../lib/jpeg-6b\libjpeg-6b_lpc2106-cmucam3.a(jmemnobs.o)
fseek                                             c:/program files/codesourcery/sourcery g++ lite/bin/../lib/gcc/arm-none-eabi/4.5.1/../../../../arm-none-eabi/lib\libc.a(lib_a-fseek.o)
fwrite                                            c:/program files/codesourcery/sourcery g++ lite/bin/../lib/gcc/arm-none-eabi/4.5.1/../../../../arm-none-eabi/lib\libc.a(lib_a-fwrite.o)
                                                  ../../lib/jpeg-6b\libjpeg-6b_lpc2106-cmucam3.a(jdatadst.o)
gettimeofday                                      c:/program files/codesourcery/sourcery g++ lite/bin/../lib/gcc/arm-none-eabi/4.5.1/../../../../arm-none-eabi/lib\libc.a(lib_a-sysgettod.o)
                                                  ../../hal/lpc2106-cmucam3\libhal-lpc2106-cmucam3.a(rdcf2.o)
interrupt                                         ../../hal/lpc2106-cmucam3\libhal-lpc2106-cmucam3.a(interrupt.o)
                                                  ../../hal/lpc2106-cmucam3\libhal-lpc2106-cmucam3.a(startup.o)
iprintf                                           c:/program files/codesourcery/sourcery g++ lite/bin/../lib/gcc/arm-none-eabi/4.5.1/../../../../arm-none-eabi/lib\libc.a(lib_a-iprintf.o)
                                                  lpc2106-cmucam3_buildfiles/main.o
jcopy_block_row                                   ../../lib/jpeg-6b\libjpeg-6b_lpc2106-cmucam3.a(jutils.o)
jcopy_sample_rows                                 ../../lib/jpeg-6b\libjpeg-6b_lpc2106-cmucam3.a(jutils.o)
                                                  ../../lib/jpeg-6b\libjpeg-6b_lpc2106-cmucam3.a(jcsample.o)
                                                  ../../lib/jpeg-6b\libjpeg-6b_lpc2106-cmucam3.a(jcprepct.o)
jdiv_round_up                                     ../../lib/jpeg-6b\libjpeg-6b_lpc2106-cmucam3.a(jutils.o)
                                                  ../../lib/jpeg-6b\libjpeg-6b_lpc2106-cmucam3.a(jcmaster.o)
jinit_c_coef_controller                           ../../lib/jpeg-6b\libjpeg-6b_lpc2106-cmucam3.a(jccoefct.o)
                                                  ../../lib/jpeg-6b\libjpeg-6b_lpc2106-cmucam3.a(jcinit.o)
jinit_c_main_controller                           ../../lib/jpeg-6b\libjpeg-6b_lpc2106-cmucam3.a(jcmainct.o)
                                                  ../../lib/jpeg-6b\libjpeg-6b_lpc2106-cmucam3.a(jcinit.o)
jinit_c_master_control                            ../../lib/jpeg-6b\libjpeg-6b_lpc2106-cmucam3.a(jcmaster.o)
                                                  ../../lib/jpeg-6b\libjpeg-6b_lpc2106-cmucam3.a(jcinit.o)
jinit_c_prep_controller                           ../../lib/jpeg-6b\libjpeg-6b_lpc2106-cmucam3.a(jcprepct.o)
                                                  ../../lib/jpeg-6b\libjpeg-6b_lpc2106-cmucam3.a(jcinit.o)
jinit_color_converter                             ../../lib/jpeg-6b\libjpeg-6b_lpc2106-cmucam3.a(jccolor.o)
                                                  ../../lib/jpeg-6b\libjpeg-6b_lpc2106-cmucam3.a(jcinit.o)
jinit_compress_master                             ../../lib/jpeg-6b\libjpeg-6b_lpc2106-cmucam3.a(jcinit.o)
                                                  ../../lib/jpeg-6b\libjpeg-6b_lpc2106-cmucam3.a(jcapistd.o)
jinit_downsampler                                 ../../lib/jpeg-6b\libjpeg-6b_lpc2106-cmucam3.a(jcsample.o)
                                                  ../../lib/jpeg-6b\libjpeg-6b_lpc2106-cmucam3.a(jcinit.o)
jinit_forward_dct                                 ../../lib/jpeg-6b\libjpeg-6b_lpc2106-cmucam3.a(jcdctmgr.o)
                                                  ../../lib/jpeg-6b\libjpeg-6b_lpc2106-cmucam3.a(jcinit.o)
jinit_huff_encoder                                ../../lib/jpeg-6b\libjpeg-6b_lpc2106-cmucam3.a(jchuff.o)
                                                  ../../lib/jpeg-6b\libjpeg-6b_lpc2106-cmucam3.a(jcinit.o)
jinit_marker_writer                               ../../lib/jpeg-6b\libjpeg-6b_lpc2106-cmucam3.a(jcmarker.o)
                                                  ../../lib/jpeg-6b\libjpeg-6b_lpc2106-cmucam3.a(jcinit.o)
                                                  ../../lib/jpeg-6b\libjpeg-6b_lpc2106-cmucam3.a(jcapimin.o)
jinit_memory_mgr                                  ../../lib/jpeg-6b\libjpeg-6b_lpc2106-cmucam3.a(jmemmgr.o)
                                                  ../../lib/jpeg-6b\libjpeg-6b_lpc2106-cmucam3.a(jcapimin.o)
jpeg_CreateCompress                               ../../lib/jpeg-6b\libjpeg-6b_lpc2106-cmucam3.a(jcapimin.o)
                                                  lpc2106-cmucam3_buildfiles/main.o
jpeg_abort                                        ../../lib/jpeg-6b\libjpeg-6b_lpc2106-cmucam3.a(jcomapi.o)
                                                  ../../lib/jpeg-6b\libjpeg-6b_lpc2106-cmucam3.a(jcapimin.o)
jpeg_abort_compress                               ../../lib/jpeg-6b\libjpeg-6b_lpc2106-cmucam3.a(jcapimin.o)
jpeg_add_quant_table                              ../../lib/jpeg-6b\libjpeg-6b_lpc2106-cmucam3.a(jcparam.o)
jpeg_alloc_huff_table                             ../../lib/jpeg-6b\libjpeg-6b_lpc2106-cmucam3.a(jcomapi.o)
                                                  ../../lib/jpeg-6b\libjpeg-6b_lpc2106-cmucam3.a(jcparam.o)
jpeg_alloc_quant_table                            ../../lib/jpeg-6b\libjpeg-6b_lpc2106-cmucam3.a(jcomapi.o)
                                                  ../../lib/jpeg-6b\libjpeg-6b_lpc2106-cmucam3.a(jcparam.o)
jpeg_default_colorspace                           ../../lib/jpeg-6b\libjpeg-6b_lpc2106-cmucam3.a(jcparam.o)
jpeg_destroy                                      ../../lib/jpeg-6b\libjpeg-6b_lpc2106-cmucam3.a(jcomapi.o)
                                                  ../../lib/jpeg-6b\libjpeg-6b_lpc2106-cmucam3.a(jerror.o)
                                                  ../../lib/jpeg-6b\libjpeg-6b_lpc2106-cmucam3.a(jcapimin.o)
jpeg_destroy_compress                             ../../lib/jpeg-6b\libjpeg-6b_lpc2106-cmucam3.a(jcapimin.o)
jpeg_fdct_islow                                   ../../lib/jpeg-6b\libjpeg-6b_lpc2106-cmucam3.a(jfdctint.o)
                                                  ../../lib/jpeg-6b\libjpeg-6b_lpc2106-cmucam3.a(jcdctmgr.o)
jpeg_finish_compress                              ../../lib/jpeg-6b\libjpeg-6b_lpc2106-cmucam3.a(jcapimin.o)
                                                  lpc2106-cmucam3_buildfiles/main.o
jpeg_free_large                                   ../../lib/jpeg-6b\libjpeg-6b_lpc2106-cmucam3.a(jmemnobs.o)
                                                  ../../lib/jpeg-6b\libjpeg-6b_lpc2106-cmucam3.a(jmemmgr.o)
jpeg_free_small                                   ../../lib/jpeg-6b\libjpeg-6b_lpc2106-cmucam3.a(jmemnobs.o)
                                                  ../../lib/jpeg-6b\libjpeg-6b_lpc2106-cmucam3.a(jmemmgr.o)
jpeg_get_large                                    ../../lib/jpeg-6b\libjpeg-6b_lpc2106-cmucam3.a(jmemnobs.o)
                                                  ../../lib/jpeg-6b\libjpeg-6b_lpc2106-cmucam3.a(jmemmgr.o)
jpeg_get_small                                    ../../lib/jpeg-6b\libjpeg-6b_lpc2106-cmucam3.a(jmemnobs.o)
                                                  ../../lib/jpeg-6b\libjpeg-6b_lpc2106-cmucam3.a(jmemmgr.o)
jpeg_make_c_derived_tbl                           ../../lib/jpeg-6b\libjpeg-6b_lpc2106-cmucam3.a(jchuff.o)
jpeg_mem_available                                ../../lib/jpeg-6b\libjpeg-6b_lpc2106-cmucam3.a(jmemnobs.o)
                                                  ../../lib/jpeg-6b\libjpeg-6b_lpc2106-cmucam3.a(jmemmgr.o)
jpeg_mem_init                                     ../../lib/jpeg-6b\libjpeg-6b_lpc2106-cmucam3.a(jmemnobs.o)
                                                  ../../lib/jpeg-6b\libjpeg-6b_lpc2106-cmucam3.a(jmemmgr.o)
jpeg_mem_term                                     ../../lib/jpeg-6b\libjpeg-6b_lpc2106-cmucam3.a(jmemnobs.o)
                                                  ../../lib/jpeg-6b\libjpeg-6b_lpc2106-cmucam3.a(jmemmgr.o)
jpeg_natural_order                                ../../lib/jpeg-6b\libjpeg-6b_lpc2106-cmucam3.a(jutils.o)
                                                  ../../lib/jpeg-6b\libjpeg-6b_lpc2106-cmucam3.a(jchuff.o)
                                                  ../../lib/jpeg-6b\libjpeg-6b_lpc2106-cmucam3.a(jcmarker.o)
jpeg_open_backing_store                           ../../lib/jpeg-6b\libjpeg-6b_lpc2106-cmucam3.a(jmemnobs.o)
                                                  ../../lib/jpeg-6b\libjpeg-6b_lpc2106-cmucam3.a(jmemmgr.o)
jpeg_quality_scaling                              ../../lib/jpeg-6b\libjpeg-6b_lpc2106-cmucam3.a(jcparam.o)
jpeg_set_colorspace                               ../../lib/jpeg-6b\libjpeg-6b_lpc2106-cmucam3.a(jcparam.o)
jpeg_set_defaults                                 ../../lib/jpeg-6b\libjpeg-6b_lpc2106-cmucam3.a(jcparam.o)
                                                  lpc2106-cmucam3_buildfiles/main.o
jpeg_set_linear_quality                           ../../lib/jpeg-6b\libjpeg-6b_lpc2106-cmucam3.a(jcparam.o)
jpeg_set_quality                                  ../../lib/jpeg-6b\libjpeg-6b_lpc2106-cmucam3.a(jcparam.o)
                                                  lpc2106-cmucam3_buildfiles/main.o
jpeg_start_compress                               ../../lib/jpeg-6b\libjpeg-6b_lpc2106-cmucam3.a(jcapistd.o)
                                                  lpc2106-cmucam3_buildfiles/main.o
jpeg_std_error                                    ../../lib/jpeg-6b\libjpeg-6b_lpc2106-cmucam3.a(jerror.o)
                                                  lpc2106-cmucam3_buildfiles/main.o
jpeg_std_message_table                            ../../lib/jpeg-6b\libjpeg-6b_lpc2106-cmucam3.a(jerror.o)
jpeg_stdio_dest                                   ../../lib/jpeg-6b\libjpeg-6b_lpc2106-cmucam3.a(jdatadst.o)
                                                  lpc2106-cmucam3_buildfiles/main.o
jpeg_suppress_tables                              ../../lib/jpeg-6b\libjpeg-6b_lpc2106-cmucam3.a(jcapimin.o)
                                                  ../../lib/jpeg-6b\libjpeg-6b_lpc2106-cmucam3.a(jcapistd.o)
jpeg_write_m_byte                                 ../../lib/jpeg-6b\libjpeg-6b_lpc2106-cmucam3.a(jcapimin.o)
jpeg_write_m_header                               ../../lib/jpeg-6b\libjpeg-6b_lpc2106-cmucam3.a(jcapimin.o)
jpeg_write_marker                                 ../../lib/jpeg-6b\libjpeg-6b_lpc2106-cmucam3.a(jcapimin.o)
jpeg_write_raw_data                               ../../lib/jpeg-6b\libjpeg-6b_lpc2106-cmucam3.a(jcapistd.o)
jpeg_write_scanlines                              ../../lib/jpeg-6b\libjpeg-6b_lpc2106-cmucam3.a(jcapistd.o)
                                                  lpc2106-cmucam3_buildfiles/main.o
jpeg_write_tables                                 ../../lib/jpeg-6b\libjpeg-6b_lpc2106-cmucam3.a(jcapimin.o)
jround_up                                         ../../lib/jpeg-6b\libjpeg-6b_lpc2106-cmucam3.a(jutils.o)
jzero_far                                         ../../lib/jpeg-6b\libjpeg-6b_lpc2106-cmucam3.a(jutils.o)
                                                  ../../lib/jpeg-6b\libjpeg-6b_lpc2106-cmucam3.a(jccoefct.o)
                                                  ../../lib/jpeg-6b\libjpeg-6b_lpc2106-cmucam3.a(jmemmgr.o)
kill                                              ../../hal/lpc2106-cmucam3\libhal-lpc2106-cmucam3.a(syscalls.o)
localeconv                                        c:/program files/codesourcery/sourcery g++ lite/bin/../lib/gcc/arm-none-eabi/4.5.1/../../../../arm-none-eabi/lib\libc.a(lib_a-locale.o)
localtime_r                                       c:/program files/codesourcery/sourcery g++ lite/bin/../lib/gcc/arm-none-eabi/4.5.1/../../../../arm-none-eabi/lib\libc.a(lib_a-lcltime_r.o)
                                                  ../../hal/lpc2106-cmucam3\libhal-lpc2106-cmucam3.a(rdcf2.o)
longjmp                                           c:/program files/codesourcery/sourcery g++ lite/bin/../lib/gcc/arm-none-eabi/4.5.1/../../../../arm-none-eabi/lib\libc.a(lib_a-setjmp.o)
                                                  ../../hal/lpc2106-cmucam3\libhal-lpc2106-cmucam3.a(rdcf2.o)
main                                              lpc2106-cmucam3_buildfiles/main.o
                                                  ../../hal/lpc2106-cmucam3\libhal-lpc2106-cmucam3.a(startup.o)
malloc                                            c:/program files/codesourcery/sourcery g++ lite/bin/../lib/gcc/arm-none-eabi/4.5.1/../../../../arm-none-eabi/lib\libc.a(lib_a-malloc.o)
                                                  c:/program files/codesourcery/sourcery g++ lite/bin/../lib/gcc/arm-none-eabi/4.5.1/../../../../arm-none-eabi/lib\libc.a(lib_a-__atexit.o)
                                                  c:/program files/codesourcery/sourcery g++ lite/bin/../lib/gcc/arm-none-eabi/4.5.1/../../../../arm-none-eabi/lib\libc.a(lib_a-setvbuf.o)
                                                  ../../hal/lpc2106-cmucam3\libhal-lpc2106-cmucam3.a(cc3.o)
                                                  ../../lib/jpeg-6b\libjpeg-6b_lpc2106-cmucam3.a(jmemnobs.o)
memchr                                            c:/program files/codesourcery/sourcery g++ lite/bin/../lib/gcc/arm-none-eabi/4.5.1/../../../../arm-none-eabi/lib\libc.a(lib_a-memchr.o)
                                                  c:/program files/codesourcery/sourcery g++ lite/bin/../lib/gcc/arm-none-eabi/4.5.1/../../../../arm-none-eabi/lib\libc.a(lib_a-fvwrite.o)
                                                  c:/program files/codesourcery/sourcery g++ lite/bin/../lib/gcc/arm-none-eabi/4.5.1/../../../../arm-none-eabi/lib\libc.a(lib_a-vfiprintf.o)
                                                  c:/program files/codesourcery/sourcery g++ lite/bin/../lib/gcc/arm-none-eabi/4.5.1/../../../../arm-none-eabi/lib\libc.a(lib_a-svfiprintf.o)
memcmp                                            c:/program files/codesourcery/sourcery g++ lite/bin/../lib/gcc/arm-none-eabi/4.5.1/../../../../arm-none-eabi/lib\libc.a(lib_a-memcmp.o)
                                                  ../../hal/lpc2106-cmucam3\libhal-lpc2106-cmucam3.a(rdcf2.o)
memcpy                                            c:/program files/codesourcery/sourcery g++ lite/bin/../lib/gcc/arm-none-eabi/4.5.1/../../../../arm-none-eabi/lib\libc.a(lib_a-memcpy.o)
                                                  c:/program files/codesourcery/sourcery g++ lite/bin/../lib/gcc/arm-none-eabi/4.5.1/../../../../arm-none-eabi/lib\libc.a(lib_a-fvwrite.o)
                                                  c:/program files/codesourcery/sourcery g++ lite/bin/../lib/gcc/arm-none-eabi/4.5.1/../../../../arm-none-eabi/lib\libc.a(lib_a-svfiprintf.o)
                                                  c:/program files/codesourcery/sourcery g++ lite/bin/../lib/gcc/arm-none-eabi/4.5.1/../../../../arm-none-eabi/lib\libc.a(lib_a-strdup_r.o)
                                                  ../../hal/lpc2106-cmucam3\libhal-lpc2106-cmucam3.a(rdcf2.o)
                                                  ../../lib/jpeg-6b\libjpeg-6b_lpc2106-cmucam3.a(jutils.o)
                                                  ../../lib/jpeg-6b\libjpeg-6b_lpc2106-cmucam3.a(jcparam.o)
memmove                                           c:/program files/codesourcery/sourcery g++ lite/bin/../lib/gcc/arm-none-eabi/4.5.1/../../../../arm-none-eabi/lib\libc.a(lib_a-memmove.o)
                                                  c:/program files/codesourcery/sourcery g++ lite/bin/../lib/gcc/arm-none-eabi/4.5.1/../../../../arm-none-eabi/lib\libc.a(lib_a-reallocr.o)
                                                  c:/program files/codesourcery/sourcery g++ lite/bin/../lib/gcc/arm-none-eabi/4.5.1/../../../../arm-none-eabi/lib\libc.a(lib_a-fvwrite.o)
                                                  c:/program files/codesourcery/sourcery g++ lite/bin/../lib/gcc/arm-none-eabi/4.5.1/../../../../arm-none-eabi/lib\libc.a(lib_a-svfiprintf.o)
memset                                            c:/program files/codesourcery/sourcery g++ lite/bin/../lib/gcc/arm-none-eabi/4.5.1/../../../../arm-none-eabi/lib\libc.a(lib_a-memset.o)
                                                  c:/program files/codesourcery/sourcery g++ lite/bin/../lib/gcc/arm-none-eabi/4.5.1/../../../../arm-none-eabi/lib\libc.a(lib_a-fseek.o)
                                                  c:/program files/codesourcery/sourcery g++ lite/bin/../lib/gcc/arm-none-eabi/4.5.1/../../../../arm-none-eabi/lib\libc.a(lib_a-findfp.o)
                                                  c:/program files/codesourcery/sourcery g++ lite/bin/../lib/gcc/arm-none-eabi/4.5.1/../../../../arm-none-eabi/lib\libc.a(lib_a-callocr.o)
                                                  ../../hal/lpc2106-cmucam3\libhal-lpc2106-cmucam3.a(rdcf2.o)
                                                  ../../lib/jpeg-6b\libjpeg-6b_lpc2106-cmucam3.a(jchuff.o)
                                                  ../../lib/jpeg-6b\libjpeg-6b_lpc2106-cmucam3.a(jutils.o)
                                                  ../../lib/jpeg-6b\libjpeg-6b_lpc2106-cmucam3.a(jcapimin.o)
prefetch_abort                                    ../../hal/lpc2106-cmucam3\libhal-lpc2106-cmucam3.a(interrupt.o)
                                                  ../../hal/lpc2106-cmucam3\libhal-lpc2106-cmucam3.a(startup.o)
rdcf_close                                        ../../hal/lpc2106-cmucam3\libhal-lpc2106-cmucam3.a(rdcf2.o)
                                                  ../../hal/lpc2106-cmucam3\libhal-lpc2106-cmucam3.a(mmc_driver.o)
rdcf_delete                                       ../../hal/lpc2106-cmucam3\libhal-lpc2106-cmucam3.a(rdcf2.o)
                                                  ../../hal/lpc2106-cmucam3\libhal-lpc2106-cmucam3.a(mmc_driver.o)
rdcf_flush_directory                              ../../hal/lpc2106-cmucam3\libhal-lpc2106-cmucam3.a(rdcf2.o)
rdcf_open                                         ../../hal/lpc2106-cmucam3\libhal-lpc2106-cmucam3.a(rdcf2.o)
                                                  ../../hal/lpc2106-cmucam3\libhal-lpc2106-cmucam3.a(mmc_driver.o)
rdcf_read                                         ../../hal/lpc2106-cmucam3\libhal-lpc2106-cmucam3.a(rdcf2.o)
                                                  ../../hal/lpc2106-cmucam3\libhal-lpc2106-cmucam3.a(mmc_driver.o)
rdcf_rename                                       ../../hal/lpc2106-cmucam3\libhal-lpc2106-cmucam3.a(rdcf2.o)
                                                  ../../hal/lpc2106-cmucam3\libhal-lpc2106-cmucam3.a(mmc_driver.o)
rdcf_seek                                         ../../hal/lpc2106-cmucam3\libhal-lpc2106-cmucam3.a(rdcf2.o)
                                                  ../../hal/lpc2106-cmucam3\libhal-lpc2106-cmucam3.a(mmc_driver.o)
rdcf_write                                        ../../hal/lpc2106-cmucam3\libhal-lpc2106-cmucam3.a(rdcf2.o)
                                                  ../../hal/lpc2106-cmucam3\libhal-lpc2106-cmucam3.a(mmc_driver.o)
row                                               lpc2106-cmucam3_buildfiles/main.o
setbuf                                            c:/program files/codesourcery/sourcery g++ lite/bin/../lib/gcc/arm-none-eabi/4.5.1/../../../../arm-none-eabi/lib\libc.a(lib_a-setbuf.o)
                                                  ../../hal/lpc2106-cmucam3\libhal-lpc2106-cmucam3.a(serial.o)
setjmp                                            c:/program files/codesourcery/sourcery g++ lite/bin/../lib/gcc/arm-none-eabi/4.5.1/../../../../arm-none-eabi/lib\libc.a(lib_a-setjmp.o)
                                                  ../../hal/lpc2106-cmucam3\libhal-lpc2106-cmucam3.a(rdcf2.o)
setlocale                                         c:/program files/codesourcery/sourcery g++ lite/bin/../lib/gcc/arm-none-eabi/4.5.1/../../../../arm-none-eabi/lib\libc.a(lib_a-locale.o)
setvbuf                                           c:/program files/codesourcery/sourcery g++ lite/bin/../lib/gcc/arm-none-eabi/4.5.1/../../../../arm-none-eabi/lib\libc.a(lib_a-setvbuf.o)
                                                  c:/program files/codesourcery/sourcery g++ lite/bin/../lib/gcc/arm-none-eabi/4.5.1/../../../../arm-none-eabi/lib\libc.a(lib_a-setbuf.o)
siprintf                                          c:/program files/codesourcery/sourcery g++ lite/bin/../lib/gcc/arm-none-eabi/4.5.1/../../../../arm-none-eabi/lib\libc.a(lib_a-siprintf.o)
                                                  ../../lib/jpeg-6b\libjpeg-6b_lpc2106-cmucam3.a(jerror.o)
sniprintf                                         c:/program files/codesourcery/sourcery g++ lite/bin/../lib/gcc/arm-none-eabi/4.5.1/../../../../arm-none-eabi/lib\libc.a(lib_a-sniprintf.o)
                                                  ../../hal/lpc2106-cmucam3\libhal-lpc2106-cmucam3.a(serial.o)
                                                  lpc2106-cmucam3_buildfiles/main.o
start                                             ../../hal/lpc2106-cmucam3\libhal-lpc2106-cmucam3.a(startup.o)
strcmp                                            c:/program files/codesourcery/sourcery g++ lite/bin/../lib/gcc/arm-none-eabi/4.5.1/../../../../arm-none-eabi/lib\libc.a(lib_a-strcmp.o)
                                                  c:/program files/codesourcery/sourcery g++ lite/bin/../lib/gcc/arm-none-eabi/4.5.1/../../../../arm-none-eabi/lib\libc.a(lib_a-locale.o)
strdup                                            c:/program files/codesourcery/sourcery g++ lite/bin/../lib/gcc/arm-none-eabi/4.5.1/../../../../arm-none-eabi/lib\libc.a(lib_a-strdup.o)
                                                  ../../hal/lpc2106-cmucam3\libhal-lpc2106-cmucam3.a(syscalls.o)
strlen                                            c:/program files/codesourcery/sourcery g++ lite/bin/../lib/gcc/arm-none-eabi/4.5.1/../../../../arm-none-eabi/lib\libc.a(lib_a-strlen.o)
                                                  c:/program files/codesourcery/sourcery g++ lite/bin/../lib/gcc/arm-none-eabi/4.5.1/../../../../arm-none-eabi/lib\libc.a(lib_a-vfiprintf.o)
                                                  c:/program files/codesourcery/sourcery g++ lite/bin/../lib/gcc/arm-none-eabi/4.5.1/../../../../arm-none-eabi/lib\libc.a(lib_a-svfiprintf.o)
                                                  c:/program files/codesourcery/sourcery g++ lite/bin/../lib/gcc/arm-none-eabi/4.5.1/../../../../arm-none-eabi/lib\libc.a(lib_a-strdup_r.o)
strtol                                            c:/program files/codesourcery/sourcery g++ lite/bin/../lib/gcc/arm-none-eabi/4.5.1/../../../../arm-none-eabi/lib\libc.a(lib_a-strtol.o)
                                                  ../../hal/lpc2106-cmucam3\libhal-lpc2106-cmucam3.a(uart_driver.o)
swi                                               ../../hal/lpc2106-cmucam3\libhal-lpc2106-cmucam3.a(interrupt.o)
                                                  ../../hal/lpc2106-cmucam3\libhal-lpc2106-cmucam3.a(startup.o)
uart0_getc                                        ../../hal/lpc2106-cmucam3\libhal-lpc2106-cmucam3.a(serial.o)
                                                  ../../hal/lpc2106-cmucam3\libhal-lpc2106-cmucam3.a(uart_driver.o)
uart0_getc_nb                                     ../../hal/lpc2106-cmucam3\libhal-lpc2106-cmucam3.a(serial.o)
uart0_putc                                        ../../hal/lpc2106-cmucam3\libhal-lpc2106-cmucam3.a(serial.o)
                                                  ../../hal/lpc2106-cmucam3\libhal-lpc2106-cmucam3.a(uart_driver.o)
uart0_write                                       ../../hal/lpc2106-cmucam3\libhal-lpc2106-cmucam3.a(serial.o)
                                                  ../../hal/lpc2106-cmucam3\libhal-lpc2106-cmucam3.a(interrupt.o)
uart0_write_hex                                   ../../hal/lpc2106-cmucam3\libhal-lpc2106-cmucam3.a(serial.o)
                                                  ../../hal/lpc2106-cmucam3\libhal-lpc2106-cmucam3.a(interrupt.o)
uart1_getc                                        ../../hal/lpc2106-cmucam3\libhal-lpc2106-cmucam3.a(serial.o)
                                                  ../../hal/lpc2106-cmucam3\libhal-lpc2106-cmucam3.a(uart_driver.o)
uart1_getc_nb                                     ../../hal/lpc2106-cmucam3\libhal-lpc2106-cmucam3.a(serial.o)
uart1_putc                                        ../../hal/lpc2106-cmucam3\libhal-lpc2106-cmucam3.a(serial.o)
                                                  ../../hal/lpc2106-cmucam3\libhal-lpc2106-cmucam3.a(uart_driver.o)
undefined                                         ../../hal/lpc2106-cmucam3\libhal-lpc2106-cmucam3.a(interrupt.o)
                                                  ../../hal/lpc2106-cmucam3\libhal-lpc2106-cmucam3.a(startup.o)
vfiprintf                                         c:/program files/codesourcery/sourcery g++ lite/bin/../lib/gcc/arm-none-eabi/4.5.1/../../../../arm-none-eabi/lib\libc.a(lib_a-vfiprintf.o)
wcrtomb                                           c:/program files/codesourcery/sourcery g++ lite/bin/../lib/gcc/arm-none-eabi/4.5.1/../../../../arm-none-eabi/lib\libc.a(lib_a-wcrtomb.o)
