Archive member included because of file (symbol)

../../lib/cc3-ilp\libcc3-ilp_lpc2106-cmucam3.a(cc3_img_writer.o)
                              lpc2106-cmucam3_buildfiles/main.o (cc3_ppm_img_write)
../../lib/cc3-ilp\libcc3-ilp_lpc2106-cmucam3.a(cc3_hsv.o)
                              lpc2106-cmucam3_buildfiles/main.o (cc3_rgb2hsv_row)
../../lib/cc3-ilp\libcc3-ilp_lpc2106-cmucam3.a(cc3_ilp.o)
                              ../../lib/cc3-ilp\libcc3-ilp_lpc2106-cmucam3.a(cc3_img_writer.o) (cc3_get_pixel)
../../hal/lpc2106-cmucam3\libhal-lpc2106-cmucam3.a(interrupt.o)
                              (--whole-archive)
../../hal/lpc2106-cmucam3\libhal-lpc2106-cmucam3.a(cc3.o)
                              (--whole-archive)
../../hal/lpc2106-cmucam3\libhal-lpc2106-cmucam3.a(cc3_hal.o)
                              (--whole-archive)
../../hal/lpc2106-cmucam3\libhal-lpc2106-cmucam3.a(syscalls.o)
                              (--whole-archive)
../../hal/lpc2106-cmucam3\libhal-lpc2106-cmucam3.a(serial.o)
                              (--whole-archive)
../../hal/lpc2106-cmucam3\libhal-lpc2106-cmucam3.a(servo.o)
                              (--whole-archive)
../../hal/lpc2106-cmucam3\libhal-lpc2106-cmucam3.a(rdcf2.o)
                              (--whole-archive)
../../hal/lpc2106-cmucam3\libhal-lpc2106-cmucam3.a(mmc_hardware.o)
                              (--whole-archive)
../../hal/lpc2106-cmucam3\libhal-lpc2106-cmucam3.a(mmc_driver.o)
                              (--whole-archive)
../../hal/lpc2106-cmucam3\libhal-lpc2106-cmucam3.a(gpio.o)
                              (--whole-archive)
../../hal/lpc2106-cmucam3\libhal-lpc2106-cmucam3.a(devices.o)
                              (--whole-archive)
../../hal/lpc2106-cmucam3\libhal-lpc2106-cmucam3.a(uart_driver.o)
                              (--whole-archive)
../../hal/lpc2106-cmucam3\libhal-lpc2106-cmucam3.a(startup.o)
                              (--whole-archive)
c:/program files (x86)/codesourcery/sourcery g++ lite/bin/../lib/gcc/arm-none-eabi/4.2.3\libgcc.a(_udivsi3.o)
                              ../../hal/lpc2106-cmucam3\libhal-lpc2106-cmucam3.a(serial.o) (__aeabi_uidiv)
c:/program files (x86)/codesourcery/sourcery g++ lite/bin/../lib/gcc/arm-none-eabi/4.2.3\libgcc.a(_divsi3.o)
                              ../../lib/cc3-ilp\libcc3-ilp_lpc2106-cmucam3.a(cc3_hsv.o) (__aeabi_idiv)
c:/program files (x86)/codesourcery/sourcery g++ lite/bin/../lib/gcc/arm-none-eabi/4.2.3\libgcc.a(_dvmd_tls.o)
                              c:/program files (x86)/codesourcery/sourcery g++ lite/bin/../lib/gcc/arm-none-eabi/4.2.3\libgcc.a(_udivsi3.o) (__aeabi_idiv0)
c:/program files (x86)/codesourcery/sourcery g++ lite/bin/../lib/gcc/arm-none-eabi/4.2.3/../../../../arm-none-eabi/lib\libc.a(lib_a-calloc.o)
                              ../../hal/lpc2106-cmucam3\libhal-lpc2106-cmucam3.a(mmc_hardware.o) (calloc)
c:/program files (x86)/codesourcery/sourcery g++ lite/bin/../lib/gcc/arm-none-eabi/4.2.3/../../../../arm-none-eabi/lib\libc.a(lib_a-callocr.o)
                              c:/program files (x86)/codesourcery/sourcery g++ lite/bin/../lib/gcc/arm-none-eabi/4.2.3/../../../../arm-none-eabi/lib\libc.a(lib_a-calloc.o) (_calloc_r)
c:/program files (x86)/codesourcery/sourcery g++ lite/bin/../lib/gcc/arm-none-eabi/4.2.3/../../../../arm-none-eabi/lib\libc.a(lib_a-ctype_.o)
                              ../../hal/lpc2106-cmucam3\libhal-lpc2106-cmucam3.a(syscalls.o) (__ctype_ptr)
c:/program files (x86)/codesourcery/sourcery g++ lite/bin/../lib/gcc/arm-none-eabi/4.2.3/../../../../arm-none-eabi/lib\libc.a(lib_a-exit.o)
                              lpc2106-cmucam3_buildfiles/main.o (exit)
c:/program files (x86)/codesourcery/sourcery g++ lite/bin/../lib/gcc/arm-none-eabi/4.2.3/../../../../arm-none-eabi/lib\libc.a(lib_a-fclose.o)
                              ../../lib/cc3-ilp\libcc3-ilp_lpc2106-cmucam3.a(cc3_img_writer.o) (fclose)
c:/program files (x86)/codesourcery/sourcery g++ lite/bin/../lib/gcc/arm-none-eabi/4.2.3/../../../../arm-none-eabi/lib\libc.a(lib_a-fflush.o)
                              c:/program files (x86)/codesourcery/sourcery g++ lite/bin/../lib/gcc/arm-none-eabi/4.2.3/../../../../arm-none-eabi/lib\libc.a(lib_a-fclose.o) (_fflush_r)
c:/program files (x86)/codesourcery/sourcery g++ lite/bin/../lib/gcc/arm-none-eabi/4.2.3/../../../../arm-none-eabi/lib\libc.a(lib_a-findfp.o)
                              c:/program files (x86)/codesourcery/sourcery g++ lite/bin/../lib/gcc/arm-none-eabi/4.2.3/../../../../arm-none-eabi/lib\libc.a(lib_a-fclose.o) (__sfp_lock_acquire)
c:/program files (x86)/codesourcery/sourcery g++ lite/bin/../lib/gcc/arm-none-eabi/4.2.3/../../../../arm-none-eabi/lib\libc.a(lib_a-fiprintf.o)
                              ../../lib/cc3-ilp\libcc3-ilp_lpc2106-cmucam3.a(cc3_img_writer.o) (fiprintf)
c:/program files (x86)/codesourcery/sourcery g++ lite/bin/../lib/gcc/arm-none-eabi/4.2.3/../../../../arm-none-eabi/lib\libc.a(lib_a-fopen.o)
                              ../../lib/cc3-ilp\libcc3-ilp_lpc2106-cmucam3.a(cc3_img_writer.o) (fopen)
c:/program files (x86)/codesourcery/sourcery g++ lite/bin/../lib/gcc/arm-none-eabi/4.2.3/../../../../arm-none-eabi/lib\libc.a(lib_a-freer.o)
                              c:/program files (x86)/codesourcery/sourcery g++ lite/bin/../lib/gcc/arm-none-eabi/4.2.3/../../../../arm-none-eabi/lib\libc.a(lib_a-fclose.o) (_free_r)
c:/program files (x86)/codesourcery/sourcery g++ lite/bin/../lib/gcc/arm-none-eabi/4.2.3/../../../../arm-none-eabi/lib\libc.a(lib_a-fseek.o)
                              c:/program files (x86)/codesourcery/sourcery g++ lite/bin/../lib/gcc/arm-none-eabi/4.2.3/../../../../arm-none-eabi/lib\libc.a(lib_a-fopen.o) (_fseek_r)
c:/program files (x86)/codesourcery/sourcery g++ lite/bin/../lib/gcc/arm-none-eabi/4.2.3/../../../../arm-none-eabi/lib\libc.a(lib_a-fstatr.o)
                              c:/program files (x86)/codesourcery/sourcery g++ lite/bin/../lib/gcc/arm-none-eabi/4.2.3/../../../../arm-none-eabi/lib\libc.a(lib_a-fseek.o) (_fstat_r)
c:/program files (x86)/codesourcery/sourcery g++ lite/bin/../lib/gcc/arm-none-eabi/4.2.3/../../../../arm-none-eabi/lib\libc.a(lib_a-fwalk.o)
                              c:/program files (x86)/codesourcery/sourcery g++ lite/bin/../lib/gcc/arm-none-eabi/4.2.3/../../../../arm-none-eabi/lib\libc.a(lib_a-fflush.o) (_fwalk_reent)
c:/program files (x86)/codesourcery/sourcery g++ lite/bin/../lib/gcc/arm-none-eabi/4.2.3/../../../../arm-none-eabi/lib\libc.a(lib_a-gets.o)
                              lpc2106-cmucam3_buildfiles/main.o (gets)
c:/program files (x86)/codesourcery/sourcery g++ lite/bin/../lib/gcc/arm-none-eabi/4.2.3/../../../../arm-none-eabi/lib\libc.a(lib_a-impure.o)
                              lpc2106-cmucam3_buildfiles/main.o (_impure_ptr)
c:/program files (x86)/codesourcery/sourcery g++ lite/bin/../lib/gcc/arm-none-eabi/4.2.3/../../../../arm-none-eabi/lib\libc.a(lib_a-iprintf.o)
                              lpc2106-cmucam3_buildfiles/main.o (iprintf)
c:/program files (x86)/codesourcery/sourcery g++ lite/bin/../lib/gcc/arm-none-eabi/4.2.3/../../../../arm-none-eabi/lib\libc.a(lib_a-lcltime_r.o)
                              ../../hal/lpc2106-cmucam3\libhal-lpc2106-cmucam3.a(rdcf2.o) (localtime_r)
c:/program files (x86)/codesourcery/sourcery g++ lite/bin/../lib/gcc/arm-none-eabi/4.2.3/../../../../arm-none-eabi/lib\libc.a(lib_a-makebuf.o)
                              c:/program files (x86)/codesourcery/sourcery g++ lite/bin/../lib/gcc/arm-none-eabi/4.2.3/../../../../arm-none-eabi/lib\libc.a(lib_a-fseek.o) (__smakebuf_r)
c:/program files (x86)/codesourcery/sourcery g++ lite/bin/../lib/gcc/arm-none-eabi/4.2.3/../../../../arm-none-eabi/lib\libc.a(lib_a-malloc.o)
                              lpc2106-cmucam3_buildfiles/main.o (free)
c:/program files (x86)/codesourcery/sourcery g++ lite/bin/../lib/gcc/arm-none-eabi/4.2.3/../../../../arm-none-eabi/lib\libc.a(lib_a-mallocr.o)
                              c:/program files (x86)/codesourcery/sourcery g++ lite/bin/../lib/gcc/arm-none-eabi/4.2.3/../../../../arm-none-eabi/lib\libc.a(lib_a-callocr.o) (_malloc_r)
c:/program files (x86)/codesourcery/sourcery g++ lite/bin/../lib/gcc/arm-none-eabi/4.2.3/../../../../arm-none-eabi/lib\libc.a(lib_a-memcmp.o)
                              ../../hal/lpc2106-cmucam3\libhal-lpc2106-cmucam3.a(rdcf2.o) (memcmp)
c:/program files (x86)/codesourcery/sourcery g++ lite/bin/../lib/gcc/arm-none-eabi/4.2.3/../../../../arm-none-eabi/lib\libc.a(lib_a-memcpy.o)
                              ../../hal/lpc2106-cmucam3\libhal-lpc2106-cmucam3.a(rdcf2.o) (memcpy)
c:/program files (x86)/codesourcery/sourcery g++ lite/bin/../lib/gcc/arm-none-eabi/4.2.3/../../../../arm-none-eabi/lib\libc.a(lib_a-memset.o)
                              ../../hal/lpc2106-cmucam3\libhal-lpc2106-cmucam3.a(rdcf2.o) (memset)
c:/program files (x86)/codesourcery/sourcery g++ lite/bin/../lib/gcc/arm-none-eabi/4.2.3/../../../../arm-none-eabi/lib\libc.a(lib_a-mktm_r.o)
                              c:/program files (x86)/codesourcery/sourcery g++ lite/bin/../lib/gcc/arm-none-eabi/4.2.3/../../../../arm-none-eabi/lib\libc.a(lib_a-lcltime_r.o) (_mktm_r)
c:/program files (x86)/codesourcery/sourcery g++ lite/bin/../lib/gcc/arm-none-eabi/4.2.3/../../../../arm-none-eabi/lib\libc.a(lib_a-mlock.o)
                              c:/program files (x86)/codesourcery/sourcery g++ lite/bin/../lib/gcc/arm-none-eabi/4.2.3/../../../../arm-none-eabi/lib\libc.a(lib_a-freer.o) (__malloc_lock)
c:/program files (x86)/codesourcery/sourcery g++ lite/bin/../lib/gcc/arm-none-eabi/4.2.3/../../../../arm-none-eabi/lib\libc.a(lib_a-openr.o)
                              c:/program files (x86)/codesourcery/sourcery g++ lite/bin/../lib/gcc/arm-none-eabi/4.2.3/../../../../arm-none-eabi/lib\libc.a(lib_a-fopen.o) (_open_r)
c:/program files (x86)/codesourcery/sourcery g++ lite/bin/../lib/gcc/arm-none-eabi/4.2.3/../../../../arm-none-eabi/lib\libc.a(lib_a-reent.o)
                              ../../hal/lpc2106-cmucam3\libhal-lpc2106-cmucam3.a(syscalls.o) (errno)
c:/program files (x86)/codesourcery/sourcery g++ lite/bin/../lib/gcc/arm-none-eabi/4.2.3/../../../../arm-none-eabi/lib\libc.a(lib_a-refill.o)
                              c:/program files (x86)/codesourcery/sourcery g++ lite/bin/../lib/gcc/arm-none-eabi/4.2.3/../../../../arm-none-eabi/lib\libc.a(lib_a-fseek.o) (__srefill_r)
c:/program files (x86)/codesourcery/sourcery g++ lite/bin/../lib/gcc/arm-none-eabi/4.2.3/../../../../arm-none-eabi/lib\libc.a(lib_a-rget.o)
                              lpc2106-cmucam3_buildfiles/main.o (__srget_r)
c:/program files (x86)/codesourcery/sourcery g++ lite/bin/../lib/gcc/arm-none-eabi/4.2.3/../../../../arm-none-eabi/lib\libc.a(lib_a-sbrkr.o)
                              c:/program files (x86)/codesourcery/sourcery g++ lite/bin/../lib/gcc/arm-none-eabi/4.2.3/../../../../arm-none-eabi/lib\libc.a(lib_a-freer.o) (_sbrk_r)
c:/program files (x86)/codesourcery/sourcery g++ lite/bin/../lib/gcc/arm-none-eabi/4.2.3/../../../../arm-none-eabi/lib\libc.a(lib_a-setbuf.o)
                              ../../hal/lpc2106-cmucam3\libhal-lpc2106-cmucam3.a(serial.o) (setbuf)
c:/program files (x86)/codesourcery/sourcery g++ lite/bin/../lib/gcc/arm-none-eabi/4.2.3/../../../../arm-none-eabi/lib\libc.a(lib_a-setjmp.o)
                              ../../hal/lpc2106-cmucam3\libhal-lpc2106-cmucam3.a(rdcf2.o) (setjmp)
c:/program files (x86)/codesourcery/sourcery g++ lite/bin/../lib/gcc/arm-none-eabi/4.2.3/../../../../arm-none-eabi/lib\libc.a(lib_a-setvbuf.o)
                              lpc2106-cmucam3_buildfiles/main.o (setvbuf)
c:/program files (x86)/codesourcery/sourcery g++ lite/bin/../lib/gcc/arm-none-eabi/4.2.3/../../../../arm-none-eabi/lib\libc.a(lib_a-siprintf.o)
                              lpc2106-cmucam3_buildfiles/main.o (siprintf)
c:/program files (x86)/codesourcery/sourcery g++ lite/bin/../lib/gcc/arm-none-eabi/4.2.3/../../../../arm-none-eabi/lib\libc.a(lib_a-sniprintf.o)
                              ../../hal/lpc2106-cmucam3\libhal-lpc2106-cmucam3.a(serial.o) (sniprintf)
c:/program files (x86)/codesourcery/sourcery g++ lite/bin/../lib/gcc/arm-none-eabi/4.2.3/../../../../arm-none-eabi/lib\libc.a(lib_a-stdio.o)
                              c:/program files (x86)/codesourcery/sourcery g++ lite/bin/../lib/gcc/arm-none-eabi/4.2.3/../../../../arm-none-eabi/lib\libc.a(lib_a-findfp.o) (__sclose)
c:/program files (x86)/codesourcery/sourcery g++ lite/bin/../lib/gcc/arm-none-eabi/4.2.3/../../../../arm-none-eabi/lib\libc.a(lib_a-strdup.o)
                              ../../hal/lpc2106-cmucam3\libhal-lpc2106-cmucam3.a(syscalls.o) (strdup)
c:/program files (x86)/codesourcery/sourcery g++ lite/bin/../lib/gcc/arm-none-eabi/4.2.3/../../../../arm-none-eabi/lib\libc.a(lib_a-strdup_r.o)
                              c:/program files (x86)/codesourcery/sourcery g++ lite/bin/../lib/gcc/arm-none-eabi/4.2.3/../../../../arm-none-eabi/lib\libc.a(lib_a-strdup.o) (_strdup_r)
c:/program files (x86)/codesourcery/sourcery g++ lite/bin/../lib/gcc/arm-none-eabi/4.2.3/../../../../arm-none-eabi/lib\libc.a(lib_a-strlen.o)
                              c:/program files (x86)/codesourcery/sourcery g++ lite/bin/../lib/gcc/arm-none-eabi/4.2.3/../../../../arm-none-eabi/lib\libc.a(lib_a-strdup_r.o) (strlen)
c:/program files (x86)/codesourcery/sourcery g++ lite/bin/../lib/gcc/arm-none-eabi/4.2.3/../../../../arm-none-eabi/lib\libc.a(lib_a-strtol.o)
                              ../../hal/lpc2106-cmucam3\libhal-lpc2106-cmucam3.a(uart_driver.o) (strtol)
c:/program files (x86)/codesourcery/sourcery g++ lite/bin/../lib/gcc/arm-none-eabi/4.2.3/../../../../arm-none-eabi/lib\libc.a(lib_a-sysgettod.o)
                              ../../hal/lpc2106-cmucam3\libhal-lpc2106-cmucam3.a(rdcf2.o) (gettimeofday)
c:/program files (x86)/codesourcery/sourcery g++ lite/bin/../lib/gcc/arm-none-eabi/4.2.3/../../../../arm-none-eabi/lib\libc.a(lib_a-tzlock.o)
                              c:/program files (x86)/codesourcery/sourcery g++ lite/bin/../lib/gcc/arm-none-eabi/4.2.3/../../../../arm-none-eabi/lib\libc.a(lib_a-mktm_r.o) (__tz_lock)
c:/program files (x86)/codesourcery/sourcery g++ lite/bin/../lib/gcc/arm-none-eabi/4.2.3/../../../../arm-none-eabi/lib\libc.a(lib_a-tzvars.o)
                              c:/program files (x86)/codesourcery/sourcery g++ lite/bin/../lib/gcc/arm-none-eabi/4.2.3/../../../../arm-none-eabi/lib\libc.a(lib_a-mktm_r.o) (_daylight)
c:/program files (x86)/codesourcery/sourcery g++ lite/bin/../lib/gcc/arm-none-eabi/4.2.3/../../../../arm-none-eabi/lib\libc.a(lib_a-vfiprintf.o)
                              c:/program files (x86)/codesourcery/sourcery g++ lite/bin/../lib/gcc/arm-none-eabi/4.2.3/../../../../arm-none-eabi/lib\libc.a(lib_a-fiprintf.o) (_vfiprintf_r)
c:/program files (x86)/codesourcery/sourcery g++ lite/bin/../lib/gcc/arm-none-eabi/4.2.3/../../../../arm-none-eabi/lib\libc.a(lib_a-writer.o)
                              c:/program files (x86)/codesourcery/sourcery g++ lite/bin/../lib/gcc/arm-none-eabi/4.2.3/../../../../arm-none-eabi/lib\libc.a(lib_a-stdio.o) (_write_r)
c:/program files (x86)/codesourcery/sourcery g++ lite/bin/../lib/gcc/arm-none-eabi/4.2.3/../../../../arm-none-eabi/lib\libc.a(lib_a-wsetup.o)
                              c:/program files (x86)/codesourcery/sourcery g++ lite/bin/../lib/gcc/arm-none-eabi/4.2.3/../../../../arm-none-eabi/lib\libc.a(lib_a-vfiprintf.o) (__swsetup_r)
c:/program files (x86)/codesourcery/sourcery g++ lite/bin/../lib/gcc/arm-none-eabi/4.2.3/../../../../arm-none-eabi/lib\libc.a(lib_a-__call_atexit.o)
                              c:/program files (x86)/codesourcery/sourcery g++ lite/bin/../lib/gcc/arm-none-eabi/4.2.3/../../../../arm-none-eabi/lib\libc.a(lib_a-exit.o) (__call_exitprocs)
c:/program files (x86)/codesourcery/sourcery g++ lite/bin/../lib/gcc/arm-none-eabi/4.2.3/../../../../arm-none-eabi/lib\libc.a(lib_a-atexit.o)
                              c:/program files (x86)/codesourcery/sourcery g++ lite/bin/../lib/gcc/arm-none-eabi/4.2.3/../../../../arm-none-eabi/lib\libc.a(lib_a-__call_atexit.o) (atexit)
c:/program files (x86)/codesourcery/sourcery g++ lite/bin/../lib/gcc/arm-none-eabi/4.2.3/../../../../arm-none-eabi/lib\libc.a(lib_a-closer.o)
                              c:/program files (x86)/codesourcery/sourcery g++ lite/bin/../lib/gcc/arm-none-eabi/4.2.3/../../../../arm-none-eabi/lib\libc.a(lib_a-stdio.o) (_close_r)
c:/program files (x86)/codesourcery/sourcery g++ lite/bin/../lib/gcc/arm-none-eabi/4.2.3/../../../../arm-none-eabi/lib\libc.a(lib_a-fini.o)
                              c:/program files (x86)/codesourcery/sourcery g++ lite/bin/../lib/gcc/arm-none-eabi/4.2.3/../../../../arm-none-eabi/lib\libc.a(lib_a-__call_atexit.o) (__libc_fini_array)
c:/program files (x86)/codesourcery/sourcery g++ lite/bin/../lib/gcc/arm-none-eabi/4.2.3/../../../../arm-none-eabi/lib\libc.a(lib_a-flags.o)
                              c:/program files (x86)/codesourcery/sourcery g++ lite/bin/../lib/gcc/arm-none-eabi/4.2.3/../../../../arm-none-eabi/lib\libc.a(lib_a-fopen.o) (__sflags)
c:/program files (x86)/codesourcery/sourcery g++ lite/bin/../lib/gcc/arm-none-eabi/4.2.3/../../../../arm-none-eabi/lib\libc.a(lib_a-fvwrite.o)
                              c:/program files (x86)/codesourcery/sourcery g++ lite/bin/../lib/gcc/arm-none-eabi/4.2.3/../../../../arm-none-eabi/lib\libc.a(lib_a-vfiprintf.o) (__sfvwrite_r)
c:/program files (x86)/codesourcery/sourcery g++ lite/bin/../lib/gcc/arm-none-eabi/4.2.3/../../../../arm-none-eabi/lib\libc.a(lib_a-getchar.o)
                              c:/program files (x86)/codesourcery/sourcery g++ lite/bin/../lib/gcc/arm-none-eabi/4.2.3/../../../../arm-none-eabi/lib\libc.a(lib_a-gets.o) (_getchar_r)
c:/program files (x86)/codesourcery/sourcery g++ lite/bin/../lib/gcc/arm-none-eabi/4.2.3/../../../../arm-none-eabi/lib\libc.a(lib_a-gettimeofdayr.o)
                              c:/program files (x86)/codesourcery/sourcery g++ lite/bin/../lib/gcc/arm-none-eabi/4.2.3/../../../../arm-none-eabi/lib\libc.a(lib_a-sysgettod.o) (_gettimeofday_r)
c:/program files (x86)/codesourcery/sourcery g++ lite/bin/../lib/gcc/arm-none-eabi/4.2.3/../../../../arm-none-eabi/lib\libc.a(lib_a-gettzinfo.o)
                              c:/program files (x86)/codesourcery/sourcery g++ lite/bin/../lib/gcc/arm-none-eabi/4.2.3/../../../../arm-none-eabi/lib\libc.a(lib_a-mktm_r.o) (__gettzinfo)
c:/program files (x86)/codesourcery/sourcery g++ lite/bin/../lib/gcc/arm-none-eabi/4.2.3/../../../../arm-none-eabi/lib\libc.a(lib_a-isattyr.o)
                              c:/program files (x86)/codesourcery/sourcery g++ lite/bin/../lib/gcc/arm-none-eabi/4.2.3/../../../../arm-none-eabi/lib\libc.a(lib_a-makebuf.o) (_isatty_r)
c:/program files (x86)/codesourcery/sourcery g++ lite/bin/../lib/gcc/arm-none-eabi/4.2.3/../../../../arm-none-eabi/lib\libc.a(lib_a-lseekr.o)
                              c:/program files (x86)/codesourcery/sourcery g++ lite/bin/../lib/gcc/arm-none-eabi/4.2.3/../../../../arm-none-eabi/lib\libc.a(lib_a-stdio.o) (_lseek_r)
c:/program files (x86)/codesourcery/sourcery g++ lite/bin/../lib/gcc/arm-none-eabi/4.2.3/../../../../arm-none-eabi/lib\libc.a(lib_a-memchr.o)
                              c:/program files (x86)/codesourcery/sourcery g++ lite/bin/../lib/gcc/arm-none-eabi/4.2.3/../../../../arm-none-eabi/lib\libc.a(lib_a-vfiprintf.o) (memchr)
c:/program files (x86)/codesourcery/sourcery g++ lite/bin/../lib/gcc/arm-none-eabi/4.2.3/../../../../arm-none-eabi/lib\libc.a(lib_a-memmove.o)
                              c:/program files (x86)/codesourcery/sourcery g++ lite/bin/../lib/gcc/arm-none-eabi/4.2.3/../../../../arm-none-eabi/lib\libc.a(lib_a-fvwrite.o) (memmove)
c:/program files (x86)/codesourcery/sourcery g++ lite/bin/../lib/gcc/arm-none-eabi/4.2.3/../../../../arm-none-eabi/lib\libc.a(lib_a-readr.o)
                              c:/program files (x86)/codesourcery/sourcery g++ lite/bin/../lib/gcc/arm-none-eabi/4.2.3/../../../../arm-none-eabi/lib\libc.a(lib_a-stdio.o) (_read_r)
c:/program files (x86)/codesourcery/sourcery g++ lite/bin/../lib/gcc/arm-none-eabi/4.2.3/../../../../arm-none-eabi/lib\libc.a(lib_a-reallocr.o)
                              c:/program files (x86)/codesourcery/sourcery g++ lite/bin/../lib/gcc/arm-none-eabi/4.2.3/../../../../arm-none-eabi/lib\libc.a(lib_a-fvwrite.o) (_realloc_r)
c:/program files (x86)/codesourcery/sourcery g++ lite/bin/../lib/gcc/arm-none-eabi/4.2.3/../../../../arm-none-eabi/lib\libc.a(lib_a-__atexit.o)
                              c:/program files (x86)/codesourcery/sourcery g++ lite/bin/../lib/gcc/arm-none-eabi/4.2.3/../../../../arm-none-eabi/lib\libc.a(lib_a-atexit.o) (__register_exitproc)
c:/program files (x86)/codesourcery/sourcery g++ lite/bin/../lib/gcc/arm-none-eabi/4.2.3/../../../../arm-none-eabi/lib\libc.a(lib_a-getc.o)
                              c:/program files (x86)/codesourcery/sourcery g++ lite/bin/../lib/gcc/arm-none-eabi/4.2.3/../../../../arm-none-eabi/lib\libc.a(lib_a-getchar.o) (_getc_r)
c:/program files (x86)/codesourcery/sourcery g++ lite/bin/../lib/gcc/arm-none-eabi/4.2.3\libgcc.a(_aeabi_uldivmod.o)
                              c:/program files (x86)/codesourcery/sourcery g++ lite/bin/../lib/gcc/arm-none-eabi/4.2.3/../../../../arm-none-eabi/lib\libc.a(lib_a-vfiprintf.o) (__aeabi_uldivmod)
c:/program files (x86)/codesourcery/sourcery g++ lite/bin/../lib/gcc/arm-none-eabi/4.2.3\libgcc.a(bpabi.o)
                              c:/program files (x86)/codesourcery/sourcery g++ lite/bin/../lib/gcc/arm-none-eabi/4.2.3\libgcc.a(_aeabi_uldivmod.o) (__gnu_uldivmod_helper)
c:/program files (x86)/codesourcery/sourcery g++ lite/bin/../lib/gcc/arm-none-eabi/4.2.3\libgcc.a(_divdi3.o)
                              c:/program files (x86)/codesourcery/sourcery g++ lite/bin/../lib/gcc/arm-none-eabi/4.2.3\libgcc.a(bpabi.o) (__divdi3)
c:/program files (x86)/codesourcery/sourcery g++ lite/bin/../lib/gcc/arm-none-eabi/4.2.3\libgcc.a(_udivdi3.o)
                              c:/program files (x86)/codesourcery/sourcery g++ lite/bin/../lib/gcc/arm-none-eabi/4.2.3\libgcc.a(bpabi.o) (__udivdi3)
c:/program files (x86)/codesourcery/sourcery g++ lite/bin/../lib/gcc/arm-none-eabi/4.2.3\libgcc.a(_clz.o)
                              c:/program files (x86)/codesourcery/sourcery g++ lite/bin/../lib/gcc/arm-none-eabi/4.2.3\libgcc.a(_divdi3.o) (__clz_tab)

Allocating common symbols
Common symbol       size              file

errno               0x4               c:/program files (x86)/codesourcery/sourcery g++ lite/bin/../lib/gcc/arm-none-eabi/4.2.3/../../../../arm-none-eabi/lib\libc.a(lib_a-reent.o)

Discarded input sections

 .text          0x00000000        0x0 c:/program files (x86)/codesourcery/sourcery g++ lite/bin/../lib/gcc/arm-none-eabi/4.2.3/crti.o
 .data          0x00000000        0x0 c:/program files (x86)/codesourcery/sourcery g++ lite/bin/../lib/gcc/arm-none-eabi/4.2.3/crti.o
 .bss           0x00000000        0x0 c:/program files (x86)/codesourcery/sourcery g++ lite/bin/../lib/gcc/arm-none-eabi/4.2.3/crti.o
 .data          0x00000000        0x0 c:/program files (x86)/codesourcery/sourcery g++ lite/bin/../lib/gcc/arm-none-eabi/4.2.3/crtbegin.o
 .text          0x00000000        0x0 lpc2106-cmucam3_buildfiles/main.o
 .data          0x00000000        0x0 lpc2106-cmucam3_buildfiles/main.o
 .bss           0x00000000        0x0 lpc2106-cmucam3_buildfiles/main.o
 .text.GetHistogram
                0x00000000        0x0 lpc2106-cmucam3_buildfiles/main.o
 .text.Thresholding
                0x00000000        0x0 lpc2106-cmucam3_buildfiles/main.o
 .text.ImageProcessing
                0x00000000        0x0 lpc2106-cmucam3_buildfiles/main.o
 .text          0x00000000        0x0 ../../lib/cc3-ilp\libcc3-ilp_lpc2106-cmucam3.a(cc3_img_writer.o)
 .data          0x00000000        0x0 ../../lib/cc3-ilp\libcc3-ilp_lpc2106-cmucam3.a(cc3_img_writer.o)
 .bss           0x00000000        0x0 ../../lib/cc3-ilp\libcc3-ilp_lpc2106-cmucam3.a(cc3_img_writer.o)
 .text.cc3_pgm_img_write
                0x00000000        0x0 ../../lib/cc3-ilp\libcc3-ilp_lpc2106-cmucam3.a(cc3_img_writer.o)
 .text.cc3_img_write_file_create
                0x00000000        0x0 ../../lib/cc3-ilp\libcc3-ilp_lpc2106-cmucam3.a(cc3_img_writer.o)
 .bss.ppm_cnt.2289
                0x00000000        0x0 ../../lib/cc3-ilp\libcc3-ilp_lpc2106-cmucam3.a(cc3_img_writer.o)
 .text          0x00000000        0x0 ../../lib/cc3-ilp\libcc3-ilp_lpc2106-cmucam3.a(cc3_hsv.o)
 .data          0x00000000        0x0 ../../lib/cc3-ilp\libcc3-ilp_lpc2106-cmucam3.a(cc3_hsv.o)
 .bss           0x00000000        0x0 ../../lib/cc3-ilp\libcc3-ilp_lpc2106-cmucam3.a(cc3_hsv.o)
 .text.cc3_rgb2hsv
                0x00000000        0x0 ../../lib/cc3-ilp\libcc3-ilp_lpc2106-cmucam3.a(cc3_hsv.o)
 .text.cc3_rgb2hsv_row
                0x00000000        0x0 ../../lib/cc3-ilp\libcc3-ilp_lpc2106-cmucam3.a(cc3_hsv.o)
 .text          0x00000000        0x0 ../../lib/cc3-ilp\libcc3-ilp_lpc2106-cmucam3.a(cc3_ilp.o)
 .data          0x00000000        0x0 ../../lib/cc3-ilp\libcc3-ilp_lpc2106-cmucam3.a(cc3_ilp.o)
 .bss           0x00000000        0x0 ../../lib/cc3-ilp\libcc3-ilp_lpc2106-cmucam3.a(cc3_ilp.o)
 .text.cc3_load_img_rows
                0x00000000        0x0 ../../lib/cc3-ilp\libcc3-ilp_lpc2106-cmucam3.a(cc3_ilp.o)
 .text.cc3_set_pixel
                0x00000000        0x0 ../../lib/cc3-ilp\libcc3-ilp_lpc2106-cmucam3.a(cc3_ilp.o)
 .text          0x00000000        0x0 ../../hal/lpc2106-cmucam3\libhal-lpc2106-cmucam3.a(interrupt.o)
 .data          0x00000000        0x0 ../../hal/lpc2106-cmucam3\libhal-lpc2106-cmucam3.a(interrupt.o)
 .bss           0x00000000        0x0 ../../hal/lpc2106-cmucam3\libhal-lpc2106-cmucam3.a(interrupt.o)
 .text.enable_servo_interrupt
                0x00000000        0x0 ../../hal/lpc2106-cmucam3\libhal-lpc2106-cmucam3.a(interrupt.o)
 .text.disable_servo_interrupt
                0x00000000        0x0 ../../hal/lpc2106-cmucam3\libhal-lpc2106-cmucam3.a(interrupt.o)
 .text          0x00000000        0x0 ../../hal/lpc2106-cmucam3\libhal-lpc2106-cmucam3.a(cc3.o)
 .data          0x00000000        0x0 ../../hal/lpc2106-cmucam3\libhal-lpc2106-cmucam3.a(cc3.o)
 .bss           0x00000000        0x0 ../../hal/lpc2106-cmucam3\libhal-lpc2106-cmucam3.a(cc3.o)
 .text.cc3_pixbuf_frame_set_roi
                0x00000000        0x0 ../../hal/lpc2106-cmucam3\libhal-lpc2106-cmucam3.a(cc3.o)
 .text.cc3_button_get_state
                0x00000000        0x0 ../../hal/lpc2106-cmucam3\libhal-lpc2106-cmucam3.a(cc3.o)
 .text.cc3_button_get_and_reset_trigger
                0x00000000        0x0 ../../hal/lpc2106-cmucam3\libhal-lpc2106-cmucam3.a(cc3.o)
 .text.cc3_camera_set_contrast
                0x00000000        0x0 ../../hal/lpc2106-cmucam3\libhal-lpc2106-cmucam3.a(cc3.o)
 .text.cc3_camera_set_brightness
                0x00000000        0x0 ../../hal/lpc2106-cmucam3\libhal-lpc2106-cmucam3.a(cc3.o)
 .text.cc3_camera_set_framerate_divider
                0x00000000        0x0 ../../hal/lpc2106-cmucam3\libhal-lpc2106-cmucam3.a(cc3.o)
 .text.cc3_camera_set_power_state
                0x00000000        0x0 ../../hal/lpc2106-cmucam3\libhal-lpc2106-cmucam3.a(cc3.o)
 .bss.cc3_g_current_pixel
                0x00000000        0x0 ../../hal/lpc2106-cmucam3\libhal-lpc2106-cmucam3.a(cc3.o)
 .text          0x00000000        0x0 ../../hal/lpc2106-cmucam3\libhal-lpc2106-cmucam3.a(cc3_hal.o)
 .data          0x00000000        0x0 ../../hal/lpc2106-cmucam3\libhal-lpc2106-cmucam3.a(cc3_hal.o)
 .bss           0x00000000        0x0 ../../hal/lpc2106-cmucam3\libhal-lpc2106-cmucam3.a(cc3_hal.o)
 .text          0x00000000        0x0 ../../hal/lpc2106-cmucam3\libhal-lpc2106-cmucam3.a(syscalls.o)
 .data          0x00000000        0x0 ../../hal/lpc2106-cmucam3\libhal-lpc2106-cmucam3.a(syscalls.o)
 .bss           0x00000000        0x0 ../../hal/lpc2106-cmucam3\libhal-lpc2106-cmucam3.a(syscalls.o)
 .text.kill     0x00000000        0x0 ../../hal/lpc2106-cmucam3\libhal-lpc2106-cmucam3.a(syscalls.o)
 .text.abort    0x00000000        0x0 ../../hal/lpc2106-cmucam3\libhal-lpc2106-cmucam3.a(syscalls.o)
 .text._system  0x00000000        0x0 ../../hal/lpc2106-cmucam3\libhal-lpc2106-cmucam3.a(syscalls.o)
 .text._link    0x00000000        0x0 ../../hal/lpc2106-cmucam3\libhal-lpc2106-cmucam3.a(syscalls.o)
 .text._kill    0x00000000        0x0 ../../hal/lpc2106-cmucam3\libhal-lpc2106-cmucam3.a(syscalls.o)
 .text._getpid  0x00000000        0x0 ../../hal/lpc2106-cmucam3\libhal-lpc2106-cmucam3.a(syscalls.o)
 .text._times   0x00000000        0x0 ../../hal/lpc2106-cmucam3\libhal-lpc2106-cmucam3.a(syscalls.o)
 .text._raise   0x00000000        0x0 ../../hal/lpc2106-cmucam3\libhal-lpc2106-cmucam3.a(syscalls.o)
 .text._unlink  0x00000000        0x0 ../../hal/lpc2106-cmucam3\libhal-lpc2106-cmucam3.a(syscalls.o)
 .text._rename  0x00000000        0x0 ../../hal/lpc2106-cmucam3\libhal-lpc2106-cmucam3.a(syscalls.o)
 .text          0x00000000        0x0 ../../hal/lpc2106-cmucam3\libhal-lpc2106-cmucam3.a(serial.o)
 .data          0x00000000        0x0 ../../hal/lpc2106-cmucam3\libhal-lpc2106-cmucam3.a(serial.o)
 .bss           0x00000000        0x0 ../../hal/lpc2106-cmucam3\libhal-lpc2106-cmucam3.a(serial.o)
 .text.cc3_uart_has_data
                0x00000000        0x0 ../../hal/lpc2106-cmucam3\libhal-lpc2106-cmucam3.a(serial.o)
 .text.uart0_getc_nb
                0x00000000        0x0 ../../hal/lpc2106-cmucam3\libhal-lpc2106-cmucam3.a(serial.o)
 .text.uart1_getc_nb
                0x00000000        0x0 ../../hal/lpc2106-cmucam3\libhal-lpc2106-cmucam3.a(serial.o)
 .text.cc3_uart_fopen
                0x00000000        0x0 ../../hal/lpc2106-cmucam3\libhal-lpc2106-cmucam3.a(serial.o)
 .text          0x00000000        0x0 ../../hal/lpc2106-cmucam3\libhal-lpc2106-cmucam3.a(servo.o)
 .data          0x00000000        0x0 ../../hal/lpc2106-cmucam3\libhal-lpc2106-cmucam3.a(servo.o)
 .bss           0x00000000        0x0 ../../hal/lpc2106-cmucam3\libhal-lpc2106-cmucam3.a(servo.o)
 .text.cc3_gpio_set_servo_position
                0x00000000        0x0 ../../hal/lpc2106-cmucam3\libhal-lpc2106-cmucam3.a(servo.o)
 .text.cc3_gpio_get_servo_position
                0x00000000        0x0 ../../hal/lpc2106-cmucam3\libhal-lpc2106-cmucam3.a(servo.o)
 .text._cc3_servo_enable
                0x00000000        0x0 ../../hal/lpc2106-cmucam3\libhal-lpc2106-cmucam3.a(servo.o)
 .text          0x00000000        0x0 ../../hal/lpc2106-cmucam3\libhal-lpc2106-cmucam3.a(rdcf2.o)
 .data          0x00000000        0x0 ../../hal/lpc2106-cmucam3\libhal-lpc2106-cmucam3.a(rdcf2.o)
 .bss           0x00000000        0x0 ../../hal/lpc2106-cmucam3\libhal-lpc2106-cmucam3.a(rdcf2.o)
 .text.rdcf_flush_directory
                0x00000000        0x0 ../../hal/lpc2106-cmucam3\libhal-lpc2106-cmucam3.a(rdcf2.o)
 .text          0x00000000        0x0 ../../hal/lpc2106-cmucam3\libhal-lpc2106-cmucam3.a(mmc_hardware.o)
 .data          0x00000000        0x0 ../../hal/lpc2106-cmucam3\libhal-lpc2106-cmucam3.a(mmc_hardware.o)
 .bss           0x00000000        0x0 ../../hal/lpc2106-cmucam3\libhal-lpc2106-cmucam3.a(mmc_hardware.o)
 .text          0x00000000        0x0 ../../hal/lpc2106-cmucam3\libhal-lpc2106-cmucam3.a(mmc_driver.o)
 .data          0x00000000        0x0 ../../hal/lpc2106-cmucam3\libhal-lpc2106-cmucam3.a(mmc_driver.o)
 .bss           0x00000000        0x0 ../../hal/lpc2106-cmucam3\libhal-lpc2106-cmucam3.a(mmc_driver.o)
 .text          0x00000000        0x0 ../../hal/lpc2106-cmucam3\libhal-lpc2106-cmucam3.a(gpio.o)
 .data          0x00000000        0x0 ../../hal/lpc2106-cmucam3\libhal-lpc2106-cmucam3.a(gpio.o)
 .bss           0x00000000        0x0 ../../hal/lpc2106-cmucam3\libhal-lpc2106-cmucam3.a(gpio.o)
 .text.cc3_gpio_set_value
                0x00000000        0x0 ../../hal/lpc2106-cmucam3\libhal-lpc2106-cmucam3.a(gpio.o)
 .text.cc3_gpio_get_value
                0x00000000        0x0 ../../hal/lpc2106-cmucam3\libhal-lpc2106-cmucam3.a(gpio.o)
 .text.cc3_gpio_get_count
                0x00000000        0x0 ../../hal/lpc2106-cmucam3\libhal-lpc2106-cmucam3.a(gpio.o)
 .text.cc3_gpio_set_mode
                0x00000000        0x0 ../../hal/lpc2106-cmucam3\libhal-lpc2106-cmucam3.a(gpio.o)
 .text          0x00000000        0x0 ../../hal/lpc2106-cmucam3\libhal-lpc2106-cmucam3.a(devices.o)
 .data          0x00000000        0x0 ../../hal/lpc2106-cmucam3\libhal-lpc2106-cmucam3.a(devices.o)
 .bss           0x00000000        0x0 ../../hal/lpc2106-cmucam3\libhal-lpc2106-cmucam3.a(devices.o)
 .text          0x00000000        0x0 ../../hal/lpc2106-cmucam3\libhal-lpc2106-cmucam3.a(uart_driver.o)
 .data          0x00000000        0x0 ../../hal/lpc2106-cmucam3\libhal-lpc2106-cmucam3.a(uart_driver.o)
 .bss           0x00000000        0x0 ../../hal/lpc2106-cmucam3\libhal-lpc2106-cmucam3.a(uart_driver.o)
 .text          0x00000000        0x0 ../../hal/lpc2106-cmucam3\libhal-lpc2106-cmucam3.a(startup.o)
 .data          0x00000000        0x0 ../../hal/lpc2106-cmucam3\libhal-lpc2106-cmucam3.a(startup.o)
 .bss           0x00000000        0x0 ../../hal/lpc2106-cmucam3\libhal-lpc2106-cmucam3.a(startup.o)
 .data          0x00000000        0x0 c:/program files (x86)/codesourcery/sourcery g++ lite/bin/../lib/gcc/arm-none-eabi/4.2.3\libgcc.a(_udivsi3.o)
 .bss           0x00000000        0x0 c:/program files (x86)/codesourcery/sourcery g++ lite/bin/../lib/gcc/arm-none-eabi/4.2.3\libgcc.a(_udivsi3.o)
 .data          0x00000000        0x0 c:/program files (x86)/codesourcery/sourcery g++ lite/bin/../lib/gcc/arm-none-eabi/4.2.3\libgcc.a(_divsi3.o)
 .bss           0x00000000        0x0 c:/program files (x86)/codesourcery/sourcery g++ lite/bin/../lib/gcc/arm-none-eabi/4.2.3\libgcc.a(_divsi3.o)
 .data          0x00000000        0x0 c:/program files (x86)/codesourcery/sourcery g++ lite/bin/../lib/gcc/arm-none-eabi/4.2.3\libgcc.a(_dvmd_tls.o)
 .bss           0x00000000        0x0 c:/program files (x86)/codesourcery/sourcery g++ lite/bin/../lib/gcc/arm-none-eabi/4.2.3\libgcc.a(_dvmd_tls.o)
 .data          0x00000000        0x0 c:/program files (x86)/codesourcery/sourcery g++ lite/bin/../lib/gcc/arm-none-eabi/4.2.3/../../../../arm-none-eabi/lib\libc.a(lib_a-calloc.o)
 .bss           0x00000000        0x0 c:/program files (x86)/codesourcery/sourcery g++ lite/bin/../lib/gcc/arm-none-eabi/4.2.3/../../../../arm-none-eabi/lib\libc.a(lib_a-calloc.o)
 .data          0x00000000        0x0 c:/program files (x86)/codesourcery/sourcery g++ lite/bin/../lib/gcc/arm-none-eabi/4.2.3/../../../../arm-none-eabi/lib\libc.a(lib_a-callocr.o)
 .bss           0x00000000        0x0 c:/program files (x86)/codesourcery/sourcery g++ lite/bin/../lib/gcc/arm-none-eabi/4.2.3/../../../../arm-none-eabi/lib\libc.a(lib_a-callocr.o)
 .text          0x00000000        0x0 c:/program files (x86)/codesourcery/sourcery g++ lite/bin/../lib/gcc/arm-none-eabi/4.2.3/../../../../arm-none-eabi/lib\libc.a(lib_a-ctype_.o)
 .bss           0x00000000        0x0 c:/program files (x86)/codesourcery/sourcery g++ lite/bin/../lib/gcc/arm-none-eabi/4.2.3/../../../../arm-none-eabi/lib\libc.a(lib_a-ctype_.o)
 .data          0x00000000        0x0 c:/program files (x86)/codesourcery/sourcery g++ lite/bin/../lib/gcc/arm-none-eabi/4.2.3/../../../../arm-none-eabi/lib\libc.a(lib_a-exit.o)
 .bss           0x00000000        0x0 c:/program files (x86)/codesourcery/sourcery g++ lite/bin/../lib/gcc/arm-none-eabi/4.2.3/../../../../arm-none-eabi/lib\libc.a(lib_a-exit.o)
 .data          0x00000000        0x0 c:/program files (x86)/codesourcery/sourcery g++ lite/bin/../lib/gcc/arm-none-eabi/4.2.3/../../../../arm-none-eabi/lib\libc.a(lib_a-fclose.o)
 .bss           0x00000000        0x0 c:/program files (x86)/codesourcery/sourcery g++ lite/bin/../lib/gcc/arm-none-eabi/4.2.3/../../../../arm-none-eabi/lib\libc.a(lib_a-fclose.o)
 .data          0x00000000        0x0 c:/program files (x86)/codesourcery/sourcery g++ lite/bin/../lib/gcc/arm-none-eabi/4.2.3/../../../../arm-none-eabi/lib\libc.a(lib_a-fflush.o)
 .bss           0x00000000        0x0 c:/program files (x86)/codesourcery/sourcery g++ lite/bin/../lib/gcc/arm-none-eabi/4.2.3/../../../../arm-none-eabi/lib\libc.a(lib_a-fflush.o)
 .data          0x00000000        0x0 c:/program files (x86)/codesourcery/sourcery g++ lite/bin/../lib/gcc/arm-none-eabi/4.2.3/../../../../arm-none-eabi/lib\libc.a(lib_a-findfp.o)
 .bss           0x00000000        0x0 c:/program files (x86)/codesourcery/sourcery g++ lite/bin/../lib/gcc/arm-none-eabi/4.2.3/../../../../arm-none-eabi/lib\libc.a(lib_a-findfp.o)
 .data          0x00000000        0x0 c:/program files (x86)/codesourcery/sourcery g++ lite/bin/../lib/gcc/arm-none-eabi/4.2.3/../../../../arm-none-eabi/lib\libc.a(lib_a-fiprintf.o)
 .bss           0x00000000        0x0 c:/program files (x86)/codesourcery/sourcery g++ lite/bin/../lib/gcc/arm-none-eabi/4.2.3/../../../../arm-none-eabi/lib\libc.a(lib_a-fiprintf.o)
 .data          0x00000000        0x0 c:/program files (x86)/codesourcery/sourcery g++ lite/bin/../lib/gcc/arm-none-eabi/4.2.3/../../../../arm-none-eabi/lib\libc.a(lib_a-fopen.o)
 .bss           0x00000000        0x0 c:/program files (x86)/codesourcery/sourcery g++ lite/bin/../lib/gcc/arm-none-eabi/4.2.3/../../../../arm-none-eabi/lib\libc.a(lib_a-fopen.o)
 .data          0x00000000        0x0 c:/program files (x86)/codesourcery/sourcery g++ lite/bin/../lib/gcc/arm-none-eabi/4.2.3/../../../../arm-none-eabi/lib\libc.a(lib_a-freer.o)
 .bss           0x00000000        0x0 c:/program files (x86)/codesourcery/sourcery g++ lite/bin/../lib/gcc/arm-none-eabi/4.2.3/../../../../arm-none-eabi/lib\libc.a(lib_a-freer.o)
 .data          0x00000000        0x0 c:/program files (x86)/codesourcery/sourcery g++ lite/bin/../lib/gcc/arm-none-eabi/4.2.3/../../../../arm-none-eabi/lib\libc.a(lib_a-fseek.o)
 .bss           0x00000000        0x0 c:/program files (x86)/codesourcery/sourcery g++ lite/bin/../lib/gcc/arm-none-eabi/4.2.3/../../../../arm-none-eabi/lib\libc.a(lib_a-fseek.o)
 .data          0x00000000        0x0 c:/program files (x86)/codesourcery/sourcery g++ lite/bin/../lib/gcc/arm-none-eabi/4.2.3/../../../../arm-none-eabi/lib\libc.a(lib_a-fstatr.o)
 .bss           0x00000000        0x0 c:/program files (x86)/codesourcery/sourcery g++ lite/bin/../lib/gcc/arm-none-eabi/4.2.3/../../../../arm-none-eabi/lib\libc.a(lib_a-fstatr.o)
 .data          0x00000000        0x0 c:/program files (x86)/codesourcery/sourcery g++ lite/bin/../lib/gcc/arm-none-eabi/4.2.3/../../../../arm-none-eabi/lib\libc.a(lib_a-fwalk.o)
 .bss           0x00000000        0x0 c:/program files (x86)/codesourcery/sourcery g++ lite/bin/../lib/gcc/arm-none-eabi/4.2.3/../../../../arm-none-eabi/lib\libc.a(lib_a-fwalk.o)
 .data          0x00000000        0x0 c:/program files (x86)/codesourcery/sourcery g++ lite/bin/../lib/gcc/arm-none-eabi/4.2.3/../../../../arm-none-eabi/lib\libc.a(lib_a-gets.o)
 .bss           0x00000000        0x0 c:/program files (x86)/codesourcery/sourcery g++ lite/bin/../lib/gcc/arm-none-eabi/4.2.3/../../../../arm-none-eabi/lib\libc.a(lib_a-gets.o)
 .text          0x00000000        0x0 c:/program files (x86)/codesourcery/sourcery g++ lite/bin/../lib/gcc/arm-none-eabi/4.2.3/../../../../arm-none-eabi/lib\libc.a(lib_a-impure.o)
 .bss           0x00000000        0x0 c:/program files (x86)/codesourcery/sourcery g++ lite/bin/../lib/gcc/arm-none-eabi/4.2.3/../../../../arm-none-eabi/lib\libc.a(lib_a-impure.o)
 .data          0x00000000        0x0 c:/program files (x86)/codesourcery/sourcery g++ lite/bin/../lib/gcc/arm-none-eabi/4.2.3/../../../../arm-none-eabi/lib\libc.a(lib_a-iprintf.o)
 .bss           0x00000000        0x0 c:/program files (x86)/codesourcery/sourcery g++ lite/bin/../lib/gcc/arm-none-eabi/4.2.3/../../../../arm-none-eabi/lib\libc.a(lib_a-iprintf.o)
 .data          0x00000000        0x0 c:/program files (x86)/codesourcery/sourcery g++ lite/bin/../lib/gcc/arm-none-eabi/4.2.3/../../../../arm-none-eabi/lib\libc.a(lib_a-lcltime_r.o)
 .bss           0x00000000        0x0 c:/program files (x86)/codesourcery/sourcery g++ lite/bin/../lib/gcc/arm-none-eabi/4.2.3/../../../../arm-none-eabi/lib\libc.a(lib_a-lcltime_r.o)
 .data          0x00000000        0x0 c:/program files (x86)/codesourcery/sourcery g++ lite/bin/../lib/gcc/arm-none-eabi/4.2.3/../../../../arm-none-eabi/lib\libc.a(lib_a-makebuf.o)
 .bss           0x00000000        0x0 c:/program files (x86)/codesourcery/sourcery g++ lite/bin/../lib/gcc/arm-none-eabi/4.2.3/../../../../arm-none-eabi/lib\libc.a(lib_a-makebuf.o)
 .data          0x00000000        0x0 c:/program files (x86)/codesourcery/sourcery g++ lite/bin/../lib/gcc/arm-none-eabi/4.2.3/../../../../arm-none-eabi/lib\libc.a(lib_a-malloc.o)
 .bss           0x00000000        0x0 c:/program files (x86)/codesourcery/sourcery g++ lite/bin/../lib/gcc/arm-none-eabi/4.2.3/../../../../arm-none-eabi/lib\libc.a(lib_a-malloc.o)
 .data          0x00000000        0x0 c:/program files (x86)/codesourcery/sourcery g++ lite/bin/../lib/gcc/arm-none-eabi/4.2.3/../../../../arm-none-eabi/lib\libc.a(lib_a-memcmp.o)
 .bss           0x00000000        0x0 c:/program files (x86)/codesourcery/sourcery g++ lite/bin/../lib/gcc/arm-none-eabi/4.2.3/../../../../arm-none-eabi/lib\libc.a(lib_a-memcmp.o)
 .data          0x00000000        0x0 c:/program files (x86)/codesourcery/sourcery g++ lite/bin/../lib/gcc/arm-none-eabi/4.2.3/../../../../arm-none-eabi/lib\libc.a(lib_a-memcpy.o)
 .bss           0x00000000        0x0 c:/program files (x86)/codesourcery/sourcery g++ lite/bin/../lib/gcc/arm-none-eabi/4.2.3/../../../../arm-none-eabi/lib\libc.a(lib_a-memcpy.o)
 .data          0x00000000        0x0 c:/program files (x86)/codesourcery/sourcery g++ lite/bin/../lib/gcc/arm-none-eabi/4.2.3/../../../../arm-none-eabi/lib\libc.a(lib_a-memset.o)
 .bss           0x00000000        0x0 c:/program files (x86)/codesourcery/sourcery g++ lite/bin/../lib/gcc/arm-none-eabi/4.2.3/../../../../arm-none-eabi/lib\libc.a(lib_a-memset.o)
 .data          0x00000000        0x0 c:/program files (x86)/codesourcery/sourcery g++ lite/bin/../lib/gcc/arm-none-eabi/4.2.3/../../../../arm-none-eabi/lib\libc.a(lib_a-mktm_r.o)
 .bss           0x00000000        0x0 c:/program files (x86)/codesourcery/sourcery g++ lite/bin/../lib/gcc/arm-none-eabi/4.2.3/../../../../arm-none-eabi/lib\libc.a(lib_a-mktm_r.o)
 .data          0x00000000        0x0 c:/program files (x86)/codesourcery/sourcery g++ lite/bin/../lib/gcc/arm-none-eabi/4.2.3/../../../../arm-none-eabi/lib\libc.a(lib_a-mlock.o)
 .bss           0x00000000        0x0 c:/program files (x86)/codesourcery/sourcery g++ lite/bin/../lib/gcc/arm-none-eabi/4.2.3/../../../../arm-none-eabi/lib\libc.a(lib_a-mlock.o)
 .data          0x00000000        0x0 c:/program files (x86)/codesourcery/sourcery g++ lite/bin/../lib/gcc/arm-none-eabi/4.2.3/../../../../arm-none-eabi/lib\libc.a(lib_a-openr.o)
 .bss           0x00000000        0x0 c:/program files (x86)/codesourcery/sourcery g++ lite/bin/../lib/gcc/arm-none-eabi/4.2.3/../../../../arm-none-eabi/lib\libc.a(lib_a-openr.o)
 .text          0x00000000        0x0 c:/program files (x86)/codesourcery/sourcery g++ lite/bin/../lib/gcc/arm-none-eabi/4.2.3/../../../../arm-none-eabi/lib\libc.a(lib_a-reent.o)
 .data          0x00000000        0x0 c:/program files (x86)/codesourcery/sourcery g++ lite/bin/../lib/gcc/arm-none-eabi/4.2.3/../../../../arm-none-eabi/lib\libc.a(lib_a-reent.o)
 .bss           0x00000000        0x0 c:/program files (x86)/codesourcery/sourcery g++ lite/bin/../lib/gcc/arm-none-eabi/4.2.3/../../../../arm-none-eabi/lib\libc.a(lib_a-reent.o)
 .data          0x00000000        0x0 c:/program files (x86)/codesourcery/sourcery g++ lite/bin/../lib/gcc/arm-none-eabi/4.2.3/../../../../arm-none-eabi/lib\libc.a(lib_a-refill.o)
 .bss           0x00000000        0x0 c:/program files (x86)/codesourcery/sourcery g++ lite/bin/../lib/gcc/arm-none-eabi/4.2.3/../../../../arm-none-eabi/lib\libc.a(lib_a-refill.o)
 .data          0x00000000        0x0 c:/program files (x86)/codesourcery/sourcery g++ lite/bin/../lib/gcc/arm-none-eabi/4.2.3/../../../../arm-none-eabi/lib\libc.a(lib_a-rget.o)
 .bss           0x00000000        0x0 c:/program files (x86)/codesourcery/sourcery g++ lite/bin/../lib/gcc/arm-none-eabi/4.2.3/../../../../arm-none-eabi/lib\libc.a(lib_a-rget.o)
 .data          0x00000000        0x0 c:/program files (x86)/codesourcery/sourcery g++ lite/bin/../lib/gcc/arm-none-eabi/4.2.3/../../../../arm-none-eabi/lib\libc.a(lib_a-sbrkr.o)
 .bss           0x00000000        0x0 c:/program files (x86)/codesourcery/sourcery g++ lite/bin/../lib/gcc/arm-none-eabi/4.2.3/../../../../arm-none-eabi/lib\libc.a(lib_a-sbrkr.o)
 .data          0x00000000        0x0 c:/program files (x86)/codesourcery/sourcery g++ lite/bin/../lib/gcc/arm-none-eabi/4.2.3/../../../../arm-none-eabi/lib\libc.a(lib_a-setbuf.o)
 .bss           0x00000000        0x0 c:/program files (x86)/codesourcery/sourcery g++ lite/bin/../lib/gcc/arm-none-eabi/4.2.3/../../../../arm-none-eabi/lib\libc.a(lib_a-setbuf.o)
 .data          0x00000000        0x0 c:/program files (x86)/codesourcery/sourcery g++ lite/bin/../lib/gcc/arm-none-eabi/4.2.3/../../../../arm-none-eabi/lib\libc.a(lib_a-setjmp.o)
 .bss           0x00000000        0x0 c:/program files (x86)/codesourcery/sourcery g++ lite/bin/../lib/gcc/arm-none-eabi/4.2.3/../../../../arm-none-eabi/lib\libc.a(lib_a-setjmp.o)
 .data          0x00000000        0x0 c:/program files (x86)/codesourcery/sourcery g++ lite/bin/../lib/gcc/arm-none-eabi/4.2.3/../../../../arm-none-eabi/lib\libc.a(lib_a-setvbuf.o)
 .bss           0x00000000        0x0 c:/program files (x86)/codesourcery/sourcery g++ lite/bin/../lib/gcc/arm-none-eabi/4.2.3/../../../../arm-none-eabi/lib\libc.a(lib_a-setvbuf.o)
 .data          0x00000000        0x0 c:/program files (x86)/codesourcery/sourcery g++ lite/bin/../lib/gcc/arm-none-eabi/4.2.3/../../../../arm-none-eabi/lib\libc.a(lib_a-siprintf.o)
 .bss           0x00000000        0x0 c:/program files (x86)/codesourcery/sourcery g++ lite/bin/../lib/gcc/arm-none-eabi/4.2.3/../../../../arm-none-eabi/lib\libc.a(lib_a-siprintf.o)
 .text          0x00000000        0x0 c:/program files (x86)/codesourcery/sourcery g++ lite/bin/../lib/gcc/arm-none-eabi/4.2.3/../../../../arm-none-eabi/lib\libc.a(lib_a-sniprintf.o)
 .data          0x00000000        0x0 c:/program files (x86)/codesourcery/sourcery g++ lite/bin/../lib/gcc/arm-none-eabi/4.2.3/../../../../arm-none-eabi/lib\libc.a(lib_a-sniprintf.o)
 .bss           0x00000000        0x0 c:/program files (x86)/codesourcery/sourcery g++ lite/bin/../lib/gcc/arm-none-eabi/4.2.3/../../../../arm-none-eabi/lib\libc.a(lib_a-sniprintf.o)
 .data          0x00000000        0x0 c:/program files (x86)/codesourcery/sourcery g++ lite/bin/../lib/gcc/arm-none-eabi/4.2.3/../../../../arm-none-eabi/lib\libc.a(lib_a-stdio.o)
 .bss           0x00000000        0x0 c:/program files (x86)/codesourcery/sourcery g++ lite/bin/../lib/gcc/arm-none-eabi/4.2.3/../../../../arm-none-eabi/lib\libc.a(lib_a-stdio.o)
 .data          0x00000000        0x0 c:/program files (x86)/codesourcery/sourcery g++ lite/bin/../lib/gcc/arm-none-eabi/4.2.3/../../../../arm-none-eabi/lib\libc.a(lib_a-strdup.o)
 .bss           0x00000000        0x0 c:/program files (x86)/codesourcery/sourcery g++ lite/bin/../lib/gcc/arm-none-eabi/4.2.3/../../../../arm-none-eabi/lib\libc.a(lib_a-strdup.o)
 .data          0x00000000        0x0 c:/program files (x86)/codesourcery/sourcery g++ lite/bin/../lib/gcc/arm-none-eabi/4.2.3/../../../../arm-none-eabi/lib\libc.a(lib_a-strdup_r.o)
 .bss           0x00000000        0x0 c:/program files (x86)/codesourcery/sourcery g++ lite/bin/../lib/gcc/arm-none-eabi/4.2.3/../../../../arm-none-eabi/lib\libc.a(lib_a-strdup_r.o)
 .data          0x00000000        0x0 c:/program files (x86)/codesourcery/sourcery g++ lite/bin/../lib/gcc/arm-none-eabi/4.2.3/../../../../arm-none-eabi/lib\libc.a(lib_a-strlen.o)
 .bss           0x00000000        0x0 c:/program files (x86)/codesourcery/sourcery g++ lite/bin/../lib/gcc/arm-none-eabi/4.2.3/../../../../arm-none-eabi/lib\libc.a(lib_a-strlen.o)
 .data          0x00000000        0x0 c:/program files (x86)/codesourcery/sourcery g++ lite/bin/../lib/gcc/arm-none-eabi/4.2.3/../../../../arm-none-eabi/lib\libc.a(lib_a-strtol.o)
 .bss           0x00000000        0x0 c:/program files (x86)/codesourcery/sourcery g++ lite/bin/../lib/gcc/arm-none-eabi/4.2.3/../../../../arm-none-eabi/lib\libc.a(lib_a-strtol.o)
 .data          0x00000000        0x0 c:/program files (x86)/codesourcery/sourcery g++ lite/bin/../lib/gcc/arm-none-eabi/4.2.3/../../../../arm-none-eabi/lib\libc.a(lib_a-sysgettod.o)
 .bss           0x00000000        0x0 c:/program files (x86)/codesourcery/sourcery g++ lite/bin/../lib/gcc/arm-none-eabi/4.2.3/../../../../arm-none-eabi/lib\libc.a(lib_a-sysgettod.o)
 .data          0x00000000        0x0 c:/program files (x86)/codesourcery/sourcery g++ lite/bin/../lib/gcc/arm-none-eabi/4.2.3/../../../../arm-none-eabi/lib\libc.a(lib_a-tzlock.o)
 .bss           0x00000000        0x0 c:/program files (x86)/codesourcery/sourcery g++ lite/bin/../lib/gcc/arm-none-eabi/4.2.3/../../../../arm-none-eabi/lib\libc.a(lib_a-tzlock.o)
 .text          0x00000000        0x0 c:/program files (x86)/codesourcery/sourcery g++ lite/bin/../lib/gcc/arm-none-eabi/4.2.3/../../../../arm-none-eabi/lib\libc.a(lib_a-tzvars.o)
 .data          0x00000000        0x0 c:/program files (x86)/codesourcery/sourcery g++ lite/bin/../lib/gcc/arm-none-eabi/4.2.3/../../../../arm-none-eabi/lib\libc.a(lib_a-tzvars.o)
 .rodata.str1.4
                0x00000000        0x0 c:/program files (x86)/codesourcery/sourcery g++ lite/bin/../lib/gcc/arm-none-eabi/4.2.3/../../../../arm-none-eabi/lib\libc.a(lib_a-tzvars.o)
 .data          0x00000000        0x0 c:/program files (x86)/codesourcery/sourcery g++ lite/bin/../lib/gcc/arm-none-eabi/4.2.3/../../../../arm-none-eabi/lib\libc.a(lib_a-vfiprintf.o)
 .bss           0x00000000        0x0 c:/program files (x86)/codesourcery/sourcery g++ lite/bin/../lib/gcc/arm-none-eabi/4.2.3/../../../../arm-none-eabi/lib\libc.a(lib_a-vfiprintf.o)
 .data          0x00000000        0x0 c:/program files (x86)/codesourcery/sourcery g++ lite/bin/../lib/gcc/arm-none-eabi/4.2.3/../../../../arm-none-eabi/lib\libc.a(lib_a-writer.o)
 .bss           0x00000000        0x0 c:/program files (x86)/codesourcery/sourcery g++ lite/bin/../lib/gcc/arm-none-eabi/4.2.3/../../../../arm-none-eabi/lib\libc.a(lib_a-writer.o)
 .data          0x00000000        0x0 c:/program files (x86)/codesourcery/sourcery g++ lite/bin/../lib/gcc/arm-none-eabi/4.2.3/../../../../arm-none-eabi/lib\libc.a(lib_a-wsetup.o)
 .bss           0x00000000        0x0 c:/program files (x86)/codesourcery/sourcery g++ lite/bin/../lib/gcc/arm-none-eabi/4.2.3/../../../../arm-none-eabi/lib\libc.a(lib_a-wsetup.o)
 .data          0x00000000        0x0 c:/program files (x86)/codesourcery/sourcery g++ lite/bin/../lib/gcc/arm-none-eabi/4.2.3/../../../../arm-none-eabi/lib\libc.a(lib_a-__call_atexit.o)
 .bss           0x00000000        0x0 c:/program files (x86)/codesourcery/sourcery g++ lite/bin/../lib/gcc/arm-none-eabi/4.2.3/../../../../arm-none-eabi/lib\libc.a(lib_a-__call_atexit.o)
 .data          0x00000000        0x0 c:/program files (x86)/codesourcery/sourcery g++ lite/bin/../lib/gcc/arm-none-eabi/4.2.3/../../../../arm-none-eabi/lib\libc.a(lib_a-atexit.o)
 .bss           0x00000000        0x0 c:/program files (x86)/codesourcery/sourcery g++ lite/bin/../lib/gcc/arm-none-eabi/4.2.3/../../../../arm-none-eabi/lib\libc.a(lib_a-atexit.o)
 .data          0x00000000        0x0 c:/program files (x86)/codesourcery/sourcery g++ lite/bin/../lib/gcc/arm-none-eabi/4.2.3/../../../../arm-none-eabi/lib\libc.a(lib_a-closer.o)
 .bss           0x00000000        0x0 c:/program files (x86)/codesourcery/sourcery g++ lite/bin/../lib/gcc/arm-none-eabi/4.2.3/../../../../arm-none-eabi/lib\libc.a(lib_a-closer.o)
 .data          0x00000000        0x0 c:/program files (x86)/codesourcery/sourcery g++ lite/bin/../lib/gcc/arm-none-eabi/4.2.3/../../../../arm-none-eabi/lib\libc.a(lib_a-fini.o)
 .bss           0x00000000        0x0 c:/program files (x86)/codesourcery/sourcery g++ lite/bin/../lib/gcc/arm-none-eabi/4.2.3/../../../../arm-none-eabi/lib\libc.a(lib_a-fini.o)
 .data          0x00000000        0x0 c:/program files (x86)/codesourcery/sourcery g++ lite/bin/../lib/gcc/arm-none-eabi/4.2.3/../../../../arm-none-eabi/lib\libc.a(lib_a-flags.o)
 .bss           0x00000000        0x0 c:/program files (x86)/codesourcery/sourcery g++ lite/bin/../lib/gcc/arm-none-eabi/4.2.3/../../../../arm-none-eabi/lib\libc.a(lib_a-flags.o)
 .data          0x00000000        0x0 c:/program files (x86)/codesourcery/sourcery g++ lite/bin/../lib/gcc/arm-none-eabi/4.2.3/../../../../arm-none-eabi/lib\libc.a(lib_a-fvwrite.o)
 .bss           0x00000000        0x0 c:/program files (x86)/codesourcery/sourcery g++ lite/bin/../lib/gcc/arm-none-eabi/4.2.3/../../../../arm-none-eabi/lib\libc.a(lib_a-fvwrite.o)
 .data          0x00000000        0x0 c:/program files (x86)/codesourcery/sourcery g++ lite/bin/../lib/gcc/arm-none-eabi/4.2.3/../../../../arm-none-eabi/lib\libc.a(lib_a-getchar.o)
 .bss           0x00000000        0x0 c:/program files (x86)/codesourcery/sourcery g++ lite/bin/../lib/gcc/arm-none-eabi/4.2.3/../../../../arm-none-eabi/lib\libc.a(lib_a-getchar.o)
 .data          0x00000000        0x0 c:/program files (x86)/codesourcery/sourcery g++ lite/bin/../lib/gcc/arm-none-eabi/4.2.3/../../../../arm-none-eabi/lib\libc.a(lib_a-gettimeofdayr.o)
 .bss           0x00000000        0x0 c:/program files (x86)/codesourcery/sourcery g++ lite/bin/../lib/gcc/arm-none-eabi/4.2.3/../../../../arm-none-eabi/lib\libc.a(lib_a-gettimeofdayr.o)
 .bss           0x00000000        0x0 c:/program files (x86)/codesourcery/sourcery g++ lite/bin/../lib/gcc/arm-none-eabi/4.2.3/../../../../arm-none-eabi/lib\libc.a(lib_a-gettzinfo.o)
 .data          0x00000000        0x0 c:/program files (x86)/codesourcery/sourcery g++ lite/bin/../lib/gcc/arm-none-eabi/4.2.3/../../../../arm-none-eabi/lib\libc.a(lib_a-isattyr.o)
 .bss           0x00000000        0x0 c:/program files (x86)/codesourcery/sourcery g++ lite/bin/../lib/gcc/arm-none-eabi/4.2.3/../../../../arm-none-eabi/lib\libc.a(lib_a-isattyr.o)
 .data          0x00000000        0x0 c:/program files (x86)/codesourcery/sourcery g++ lite/bin/../lib/gcc/arm-none-eabi/4.2.3/../../../../arm-none-eabi/lib\libc.a(lib_a-lseekr.o)
 .bss           0x00000000        0x0 c:/program files (x86)/codesourcery/sourcery g++ lite/bin/../lib/gcc/arm-none-eabi/4.2.3/../../../../arm-none-eabi/lib\libc.a(lib_a-lseekr.o)
 .data          0x00000000        0x0 c:/program files (x86)/codesourcery/sourcery g++ lite/bin/../lib/gcc/arm-none-eabi/4.2.3/../../../../arm-none-eabi/lib\libc.a(lib_a-memchr.o)
 .bss           0x00000000        0x0 c:/program files (x86)/codesourcery/sourcery g++ lite/bin/../lib/gcc/arm-none-eabi/4.2.3/../../../../arm-none-eabi/lib\libc.a(lib_a-memchr.o)
 .data          0x00000000        0x0 c:/program files (x86)/codesourcery/sourcery g++ lite/bin/../lib/gcc/arm-none-eabi/4.2.3/../../../../arm-none-eabi/lib\libc.a(lib_a-memmove.o)
 .bss           0x00000000        0x0 c:/program files (x86)/codesourcery/sourcery g++ lite/bin/../lib/gcc/arm-none-eabi/4.2.3/../../../../arm-none-eabi/lib\libc.a(lib_a-memmove.o)
 .data          0x00000000        0x0 c:/program files (x86)/codesourcery/sourcery g++ lite/bin/../lib/gcc/arm-none-eabi/4.2.3/../../../../arm-none-eabi/lib\libc.a(lib_a-readr.o)
 .bss           0x00000000        0x0 c:/program files (x86)/codesourcery/sourcery g++ lite/bin/../lib/gcc/arm-none-eabi/4.2.3/../../../../arm-none-eabi/lib\libc.a(lib_a-readr.o)
 .data          0x00000000        0x0 c:/program files (x86)/codesourcery/sourcery g++ lite/bin/../lib/gcc/arm-none-eabi/4.2.3/../../../../arm-none-eabi/lib\libc.a(lib_a-reallocr.o)
 .bss           0x00000000        0x0 c:/program files (x86)/codesourcery/sourcery g++ lite/bin/../lib/gcc/arm-none-eabi/4.2.3/../../../../arm-none-eabi/lib\libc.a(lib_a-reallocr.o)
 .data          0x00000000        0x0 c:/program files (x86)/codesourcery/sourcery g++ lite/bin/../lib/gcc/arm-none-eabi/4.2.3/../../../../arm-none-eabi/lib\libc.a(lib_a-__atexit.o)
 .bss           0x00000000        0x0 c:/program files (x86)/codesourcery/sourcery g++ lite/bin/../lib/gcc/arm-none-eabi/4.2.3/../../../../arm-none-eabi/lib\libc.a(lib_a-__atexit.o)
 .data          0x00000000        0x0 c:/program files (x86)/codesourcery/sourcery g++ lite/bin/../lib/gcc/arm-none-eabi/4.2.3/../../../../arm-none-eabi/lib\libc.a(lib_a-getc.o)
 .bss           0x00000000        0x0 c:/program files (x86)/codesourcery/sourcery g++ lite/bin/../lib/gcc/arm-none-eabi/4.2.3/../../../../arm-none-eabi/lib\libc.a(lib_a-getc.o)
 .data          0x00000000        0x0 c:/program files (x86)/codesourcery/sourcery g++ lite/bin/../lib/gcc/arm-none-eabi/4.2.3\libgcc.a(_aeabi_uldivmod.o)
 .bss           0x00000000        0x0 c:/program files (x86)/codesourcery/sourcery g++ lite/bin/../lib/gcc/arm-none-eabi/4.2.3\libgcc.a(_aeabi_uldivmod.o)
 .data          0x00000000        0x0 c:/program files (x86)/codesourcery/sourcery g++ lite/bin/../lib/gcc/arm-none-eabi/4.2.3\libgcc.a(bpabi.o)
 .bss           0x00000000        0x0 c:/program files (x86)/codesourcery/sourcery g++ lite/bin/../lib/gcc/arm-none-eabi/4.2.3\libgcc.a(bpabi.o)
 .data          0x00000000        0x0 c:/program files (x86)/codesourcery/sourcery g++ lite/bin/../lib/gcc/arm-none-eabi/4.2.3\libgcc.a(_divdi3.o)
 .bss           0x00000000        0x0 c:/program files (x86)/codesourcery/sourcery g++ lite/bin/../lib/gcc/arm-none-eabi/4.2.3\libgcc.a(_divdi3.o)
 .ARM.extab     0x00000000        0x0 c:/program files (x86)/codesourcery/sourcery g++ lite/bin/../lib/gcc/arm-none-eabi/4.2.3\libgcc.a(_divdi3.o)
 .data          0x00000000        0x0 c:/program files (x86)/codesourcery/sourcery g++ lite/bin/../lib/gcc/arm-none-eabi/4.2.3\libgcc.a(_udivdi3.o)
 .bss           0x00000000        0x0 c:/program files (x86)/codesourcery/sourcery g++ lite/bin/../lib/gcc/arm-none-eabi/4.2.3\libgcc.a(_udivdi3.o)
 .ARM.extab     0x00000000        0x0 c:/program files (x86)/codesourcery/sourcery g++ lite/bin/../lib/gcc/arm-none-eabi/4.2.3\libgcc.a(_udivdi3.o)
 .text          0x00000000        0x0 c:/program files (x86)/codesourcery/sourcery g++ lite/bin/../lib/gcc/arm-none-eabi/4.2.3\libgcc.a(_clz.o)
 .data          0x00000000        0x0 c:/program files (x86)/codesourcery/sourcery g++ lite/bin/../lib/gcc/arm-none-eabi/4.2.3\libgcc.a(_clz.o)
 .bss           0x00000000        0x0 c:/program files (x86)/codesourcery/sourcery g++ lite/bin/../lib/gcc/arm-none-eabi/4.2.3\libgcc.a(_clz.o)
 .text          0x00000000        0x0 c:/program files (x86)/codesourcery/sourcery g++ lite/bin/../lib/gcc/arm-none-eabi/4.2.3/crtend.o
 .data          0x00000000        0x0 c:/program files (x86)/codesourcery/sourcery g++ lite/bin/../lib/gcc/arm-none-eabi/4.2.3/crtend.o
 .bss           0x00000000        0x0 c:/program files (x86)/codesourcery/sourcery g++ lite/bin/../lib/gcc/arm-none-eabi/4.2.3/crtend.o
 .eh_frame      0x00000000        0x0 c:/program files (x86)/codesourcery/sourcery g++ lite/bin/../lib/gcc/arm-none-eabi/4.2.3/crtend.o
 .text          0x00000000        0x0 c:/program files (x86)/codesourcery/sourcery g++ lite/bin/../lib/gcc/arm-none-eabi/4.2.3/crtn.o
 .data          0x00000000        0x0 c:/program files (x86)/codesourcery/sourcery g++ lite/bin/../lib/gcc/arm-none-eabi/4.2.3/crtn.o
 .bss           0x00000000        0x0 c:/program files (x86)/codesourcery/sourcery g++ lite/bin/../lib/gcc/arm-none-eabi/4.2.3/crtn.o

Memory Configuration

Name             Origin             Length             Attributes
ROM              0x00000000         0x0001e000         xr
RAM              0x40000000         0x00010000         rw
*default*        0x00000000         0xffffffff

Linker script and memory map

LOAD c:/program files (x86)/codesourcery/sourcery g++ lite/bin/../lib/gcc/arm-none-eabi/4.2.3/crti.o
LOAD c:/program files (x86)/codesourcery/sourcery g++ lite/bin/../lib/gcc/arm-none-eabi/4.2.3/crtbegin.o
LOAD lpc2106-cmucam3_buildfiles/main.o
LOAD ../../lib/cc3-ilp\libcc3-ilp_lpc2106-cmucam3.a
LOAD ../../lib/jpeg-6b\libjpeg-6b_lpc2106-cmucam3.a
LOAD ../../hal/lpc2106-cmucam3\libhal-lpc2106-cmucam3.a
LOAD c:/program files (x86)/codesourcery/sourcery g++ lite/bin/../lib/gcc/arm-none-eabi/4.2.3/../../../../arm-none-eabi/lib\libm.a
START GROUP
LOAD c:/program files (x86)/codesourcery/sourcery g++ lite/bin/../lib/gcc/arm-none-eabi/4.2.3\libgcc.a
LOAD c:/program files (x86)/codesourcery/sourcery g++ lite/bin/../lib/gcc/arm-none-eabi/4.2.3/../../../../arm-none-eabi/lib\libc.a
END GROUP
LOAD c:/program files (x86)/codesourcery/sourcery g++ lite/bin/../lib/gcc/arm-none-eabi/4.2.3/crtend.o
LOAD c:/program files (x86)/codesourcery/sourcery g++ lite/bin/../lib/gcc/arm-none-eabi/4.2.3/crtn.o
                0x00002400                STACK_SIZE = 0x2400

.text           0x00000000     0xae58
 *(.boot)
 .boot          0x00000000      0x140 ../../hal/lpc2106-cmucam3\libhal-lpc2106-cmucam3.a(startup.o)
                0x00000000                _boot
                0x0000006c                _mainCRTStartup
                0x0000006c                _start
                0x0000006c                start
 *(.text .text.* .gnu.linkonce.t.*)
 .text          0x00000140       0x94 c:/program files (x86)/codesourcery/sourcery g++ lite/bin/../lib/gcc/arm-none-eabi/4.2.3/crtbegin.o
 .text.GetImage
                0x000001d4       0x3c lpc2106-cmucam3_buildfiles/main.o
                0x000001d4                GetImage
 .text.main     0x00000210      0x210 lpc2106-cmucam3_buildfiles/main.o
                0x00000210                main
 .text.cc3_ppm_img_write
                0x00000420      0x130 ../../lib/cc3-ilp\libcc3-ilp_lpc2106-cmucam3.a(cc3_img_writer.o)
                0x00000420                cc3_ppm_img_write
 .text.cc3_get_pixel
                0x00000550       0xa0 ../../lib/cc3-ilp\libcc3-ilp_lpc2106-cmucam3.a(cc3_ilp.o)
                0x00000550                cc3_get_pixel
 .text.disable_ext_interrupt
                0x000005f0       0x2c ../../hal/lpc2106-cmucam3\libhal-lpc2106-cmucam3.a(interrupt.o)
                0x000005f0                disable_ext_interrupt
 .text.enable_ext_interrupt
                0x0000061c       0x20 ../../hal/lpc2106-cmucam3\libhal-lpc2106-cmucam3.a(interrupt.o)
                0x0000061c                enable_ext_interrupt
 .text.enable_button_interrupt
                0x0000063c       0x28 ../../hal/lpc2106-cmucam3\libhal-lpc2106-cmucam3.a(interrupt.o)
                0x0000063c                enable_button_interrupt
 .text.disable_button_interrupt
                0x00000664       0x30 ../../hal/lpc2106-cmucam3\libhal-lpc2106-cmucam3.a(interrupt.o)
                0x00000664                disable_button_interrupt
 .text.panic_blink
                0x00000694       0x94 ../../hal/lpc2106-cmucam3\libhal-lpc2106-cmucam3.a(interrupt.o)
 .text.data_abort
                0x00000728       0x28 ../../hal/lpc2106-cmucam3\libhal-lpc2106-cmucam3.a(interrupt.o)
                0x00000728                data_abort
 .text.prefetch_abort
                0x00000750       0x28 ../../hal/lpc2106-cmucam3\libhal-lpc2106-cmucam3.a(interrupt.o)
                0x00000750                prefetch_abort
 .text.undefined
                0x00000778        0x8 ../../hal/lpc2106-cmucam3\libhal-lpc2106-cmucam3.a(interrupt.o)
                0x00000778                undefined
 .text.swi      0x00000780       0x18 ../../hal/lpc2106-cmucam3\libhal-lpc2106-cmucam3.a(interrupt.o)
                0x00000780                swi
 .text.interrupt
                0x00000798       0x94 ../../hal/lpc2106-cmucam3\libhal-lpc2106-cmucam3.a(interrupt.o)
                0x00000798                interrupt
 .text.cc3_pixbuf_rewind
                0x0000082c       0x8c ../../hal/lpc2106-cmucam3\libhal-lpc2106-cmucam3.a(cc3.o)
                0x0000082c                cc3_pixbuf_rewind
 .text.cc3_led_set_state
                0x000008b8       0x90 ../../hal/lpc2106-cmucam3\libhal-lpc2106-cmucam3.a(cc3.o)
                0x000008b8                cc3_led_set_state
 .text.cc3_timer_get_current_ms
                0x00000948       0x10 ../../hal/lpc2106-cmucam3\libhal-lpc2106-cmucam3.a(cc3.o)
                0x00000948                cc3_timer_get_current_ms
 .text.cc3_timer_wait_ms
                0x00000958       0x24 ../../hal/lpc2106-cmucam3\libhal-lpc2106-cmucam3.a(cc3.o)
                0x00000958                cc3_timer_wait_ms
 .text.cc3_pixbuf_frame_set_coi
                0x0000097c       0x30 ../../hal/lpc2106-cmucam3\libhal-lpc2106-cmucam3.a(cc3.o)
                0x0000097c                cc3_pixbuf_frame_set_coi
 .text._cc3_update_frame_bounds
                0x000009ac       0x40 ../../hal/lpc2106-cmucam3\libhal-lpc2106-cmucam3.a(cc3.o)
 .text.cc3_pixbuf_frame_reset
                0x000009ec       0x50 ../../hal/lpc2106-cmucam3\libhal-lpc2106-cmucam3.a(cc3.o)
                0x000009ec                cc3_pixbuf_frame_reset
 .text.cc3_pixbuf_frame_set_subsample
                0x00000a3c       0x70 ../../hal/lpc2106-cmucam3\libhal-lpc2106-cmucam3.a(cc3.o)
                0x00000a3c                cc3_pixbuf_frame_set_subsample
 .text._cc3_set_cam_ddr
                0x00000aac       0x2c ../../hal/lpc2106-cmucam3\libhal-lpc2106-cmucam3.a(cc3.o)
 .text._cc3_set_cam_ddr_sccb_write
                0x00000ad8       0x24 ../../hal/lpc2106-cmucam3\libhal-lpc2106-cmucam3.a(cc3.o)
 .text._cc3_set_cam_ddr_sccb_idle
                0x00000afc       0x28 ../../hal/lpc2106-cmucam3\libhal-lpc2106-cmucam3.a(cc3.o)
 .text.cc3_camera_set_raw_register
                0x00000b24      0x174 ../../hal/lpc2106-cmucam3\libhal-lpc2106-cmucam3.a(cc3.o)
                0x00000b24                cc3_camera_set_raw_register
 .text._cc3_set_register_state
                0x00000c98      0x16c ../../hal/lpc2106-cmucam3\libhal-lpc2106-cmucam3.a(cc3.o)
 .text.cc3_camera_set_auto_white_balance
                0x00000e04       0x10 ../../hal/lpc2106-cmucam3\libhal-lpc2106-cmucam3.a(cc3.o)
                0x00000e04                cc3_camera_set_auto_white_balance
 .text.cc3_camera_set_auto_exposure
                0x00000e14       0x10 ../../hal/lpc2106-cmucam3\libhal-lpc2106-cmucam3.a(cc3.o)
                0x00000e14                cc3_camera_set_auto_exposure
 .text.cc3_camera_set_colorspace
                0x00000e24       0x10 ../../hal/lpc2106-cmucam3\libhal-lpc2106-cmucam3.a(cc3.o)
                0x00000e24                cc3_camera_set_colorspace
 .text.cc3_camera_set_resolution
                0x00000e34       0x10 ../../hal/lpc2106-cmucam3\libhal-lpc2106-cmucam3.a(cc3.o)
                0x00000e34                cc3_camera_set_resolution
 .text.cc3_camera_init
                0x00000e44       0x8c ../../hal/lpc2106-cmucam3\libhal-lpc2106-cmucam3.a(cc3.o)
                0x00000e44                cc3_camera_init
 .text.cc3_malloc_rows
                0x00000ed0       0x28 ../../hal/lpc2106-cmucam3\libhal-lpc2106-cmucam3.a(cc3.o)
                0x00000ed0                cc3_malloc_rows
 .text.cc3_pixbuf_load
                0x00000ef8       0xb8 ../../hal/lpc2106-cmucam3\libhal-lpc2106-cmucam3.a(cc3.o)
                0x00000ef8                cc3_pixbuf_load
 .text.cc3_pixbuf_read_rows
                0x00000fb0      0x698 ../../hal/lpc2106-cmucam3\libhal-lpc2106-cmucam3.a(cc3.o)
                0x00000fb0                cc3_pixbuf_read_rows
 .text._cc3_delay_us_4
                0x00001648       0x64 ../../hal/lpc2106-cmucam3\libhal-lpc2106-cmucam3.a(cc3_hal.o)
                0x00001648                _cc3_delay_us_4
 .text._cc3_fifo_reset
                0x000016ac       0x60 ../../hal/lpc2106-cmucam3\libhal-lpc2106-cmucam3.a(cc3_hal.o)
                0x000016ac                _cc3_fifo_reset
 .text._cc3_camera_reset
                0x0000170c       0x38 ../../hal/lpc2106-cmucam3\libhal-lpc2106-cmucam3.a(cc3_hal.o)
                0x0000170c                _cc3_camera_reset
 .text._cc3_delay_sccb
                0x00001744       0x38 ../../hal/lpc2106-cmucam3\libhal-lpc2106-cmucam3.a(cc3_hal.o)
                0x00001744                _cc3_delay_sccb
 .text._cc3_pixbuf_write_rewind
                0x0000177c       0x30 ../../hal/lpc2106-cmucam3\libhal-lpc2106-cmucam3.a(cc3_hal.o)
                0x0000177c                _cc3_pixbuf_write_rewind
 .text._cc3_system_setup
                0x000017ac       0xac ../../hal/lpc2106-cmucam3\libhal-lpc2106-cmucam3.a(cc3_hal.o)
                0x000017ac                _cc3_system_setup
 .text._exit    0x00001858        0x4 ../../hal/lpc2106-cmucam3\libhal-lpc2106-cmucam3.a(syscalls.o)
                0x00001858                _exit
 .text.normalize_filename
                0x0000185c       0x5c ../../hal/lpc2106-cmucam3\libhal-lpc2106-cmucam3.a(syscalls.o)
 .text._gettimeofday
                0x000018b8        0x8 ../../hal/lpc2106-cmucam3\libhal-lpc2106-cmucam3.a(syscalls.o)
                0x000018b8                _gettimeofday
 .text._sbrk    0x000018c0       0x50 ../../hal/lpc2106-cmucam3\libhal-lpc2106-cmucam3.a(syscalls.o)
                0x000018c0                _sbrk
 .text._open    0x00001910       0x8c ../../hal/lpc2106-cmucam3\libhal-lpc2106-cmucam3.a(syscalls.o)
                0x00001910                _open
 .text._isatty  0x0000199c       0x2c ../../hal/lpc2106-cmucam3\libhal-lpc2106-cmucam3.a(syscalls.o)
                0x0000199c                _isatty
 .text._fstat   0x000019c8       0x4c ../../hal/lpc2106-cmucam3\libhal-lpc2106-cmucam3.a(syscalls.o)
                0x000019c8                _fstat
 .text._lseek   0x00001a14       0x54 ../../hal/lpc2106-cmucam3\libhal-lpc2106-cmucam3.a(syscalls.o)
                0x00001a14                _lseek
 .text._close   0x00001a68       0x44 ../../hal/lpc2106-cmucam3\libhal-lpc2106-cmucam3.a(syscalls.o)
                0x00001a68                _close
 .text._read    0x00001aac       0x54 ../../hal/lpc2106-cmucam3\libhal-lpc2106-cmucam3.a(syscalls.o)
                0x00001aac                _read
 .text._write   0x00001b00       0x54 ../../hal/lpc2106-cmucam3\libhal-lpc2106-cmucam3.a(syscalls.o)
                0x00001b00                _write
 .text._cc3_uart0_setup
                0x00001b54       0x5c ../../hal/lpc2106-cmucam3\libhal-lpc2106-cmucam3.a(serial.o)
                0x00001b54                _cc3_uart0_setup
 .text._cc3_uart1_setup
                0x00001bb0       0x5c ../../hal/lpc2106-cmucam3\libhal-lpc2106-cmucam3.a(serial.o)
                0x00001bb0                _cc3_uart1_setup
 .text.cc3_uart_get_count
                0x00001c0c        0x8 ../../hal/lpc2106-cmucam3\libhal-lpc2106-cmucam3.a(serial.o)
                0x00001c0c                cc3_uart_get_count
 .text.uart0_putc
                0x00001c14       0x1c ../../hal/lpc2106-cmucam3\libhal-lpc2106-cmucam3.a(serial.o)
                0x00001c14                uart0_putc
 .text.uart1_putc
                0x00001c30       0x1c ../../hal/lpc2106-cmucam3\libhal-lpc2106-cmucam3.a(serial.o)
                0x00001c30                uart1_putc
 .text.uart0_getc
                0x00001c4c       0x1c ../../hal/lpc2106-cmucam3\libhal-lpc2106-cmucam3.a(serial.o)
                0x00001c4c                uart0_getc
 .text.uart1_getc
                0x00001c68       0x1c ../../hal/lpc2106-cmucam3\libhal-lpc2106-cmucam3.a(serial.o)
                0x00001c68                uart1_getc
 .text.uart0_write
                0x00001c84       0x30 ../../hal/lpc2106-cmucam3\libhal-lpc2106-cmucam3.a(serial.o)
                0x00001c84                uart0_write
 .text.uart0_write_hex
                0x00001cb4       0x78 ../../hal/lpc2106-cmucam3\libhal-lpc2106-cmucam3.a(serial.o)
                0x00001cb4                uart0_write_hex
 .text.cc3_uart_init
                0x00001d2c      0x16c ../../hal/lpc2106-cmucam3\libhal-lpc2106-cmucam3.a(serial.o)
                0x00001d2c                cc3_uart_init
 .text.servo_lo
                0x00001e98       0x1c ../../hal/lpc2106-cmucam3\libhal-lpc2106-cmucam3.a(servo.o)
 .text._cc3_servo_int
                0x00001eb4      0x134 ../../hal/lpc2106-cmucam3\libhal-lpc2106-cmucam3.a(servo.o)
                0x00001eb4                _cc3_servo_int
 .text.name_extension_to_spec
                0x00001fe8       0x68 ../../hal/lpc2106-cmucam3\libhal-lpc2106-cmucam3.a(rdcf2.o)
 .text.initialize_fcb
                0x00002050       0x98 ../../hal/lpc2106-cmucam3\libhal-lpc2106-cmucam3.a(rdcf2.o)
 .text.rdcf_get_date_and_time
                0x000020e8       0xa8 ../../hal/lpc2106-cmucam3\libhal-lpc2106-cmucam3.a(rdcf2.o)
 .text.error_exit
                0x00002190        0xc ../../hal/lpc2106-cmucam3\libhal-lpc2106-cmucam3.a(rdcf2.o)
 .text.check_write_access
                0x0000219c       0x14 ../../hal/lpc2106-cmucam3\libhal-lpc2106-cmucam3.a(rdcf2.o)
 .text.check_file_character
                0x000021b0       0x24 ../../hal/lpc2106-cmucam3\libhal-lpc2106-cmucam3.a(rdcf2.o)
 .text.spec_to_name_extension
                0x000021d4      0x134 ../../hal/lpc2106-cmucam3\libhal-lpc2106-cmucam3.a(rdcf2.o)
 .text.check_cluster
                0x00002308       0x20 ../../hal/lpc2106-cmucam3\libhal-lpc2106-cmucam3.a(rdcf2.o)
 .text.first_sector_in_cluster
                0x00002328       0x28 ../../hal/lpc2106-cmucam3\libhal-lpc2106-cmucam3.a(rdcf2.o)
 .text.write_sector
                0x00002350       0x44 ../../hal/lpc2106-cmucam3\libhal-lpc2106-cmucam3.a(rdcf2.o)
 .text.flush_buffer
                0x00002394       0x6c ../../hal/lpc2106-cmucam3\libhal-lpc2106-cmucam3.a(rdcf2.o)
 .text.read_sector
                0x00002400       0x44 ../../hal/lpc2106-cmucam3\libhal-lpc2106-cmucam3.a(rdcf2.o)
 .text.read_buffer
                0x00002444       0x4c ../../hal/lpc2106-cmucam3\libhal-lpc2106-cmucam3.a(rdcf2.o)
 .text.find_directory
                0x00002490       0x54 ../../hal/lpc2106-cmucam3\libhal-lpc2106-cmucam3.a(rdcf2.o)
 .text.update_directory_entry
                0x000024e4       0xd8 ../../hal/lpc2106-cmucam3\libhal-lpc2106-cmucam3.a(rdcf2.o)
 .text.rdcf_close
                0x000025bc       0xa4 ../../hal/lpc2106-cmucam3\libhal-lpc2106-cmucam3.a(rdcf2.o)
                0x000025bc                rdcf_close
 .text.set_FAT_entry
                0x00002660       0xf4 ../../hal/lpc2106-cmucam3\libhal-lpc2106-cmucam3.a(rdcf2.o)
 .text.FAT_entry
                0x00002754       0xa0 ../../hal/lpc2106-cmucam3\libhal-lpc2106-cmucam3.a(rdcf2.o)
 .text.rdcf_seek
                0x000027f4       0xe4 ../../hal/lpc2106-cmucam3\libhal-lpc2106-cmucam3.a(rdcf2.o)
                0x000027f4                rdcf_seek
 .text.rdcf_read
                0x000028d8      0x21c ../../hal/lpc2106-cmucam3\libhal-lpc2106-cmucam3.a(rdcf2.o)
                0x000028d8                rdcf_read
 .text.add_new_cluster
                0x00002af4       0xac ../../hal/lpc2106-cmucam3\libhal-lpc2106-cmucam3.a(rdcf2.o)
 .text.real_rdcf_write
                0x00002ba0      0x2d8 ../../hal/lpc2106-cmucam3\libhal-lpc2106-cmucam3.a(rdcf2.o)
 .text.rdcf_write
                0x00002e78       0x2c ../../hal/lpc2106-cmucam3\libhal-lpc2106-cmucam3.a(rdcf2.o)
                0x00002e78                rdcf_write
 .text.release_FAT_entries
                0x00002ea4       0xa0 ../../hal/lpc2106-cmucam3\libhal-lpc2106-cmucam3.a(rdcf2.o)
 .text.find_file_in_directory_or_find_volume
                0x00002f44      0x250 ../../hal/lpc2106-cmucam3\libhal-lpc2106-cmucam3.a(rdcf2.o)
 .text.find_file
                0x00003194       0x90 ../../hal/lpc2106-cmucam3\libhal-lpc2106-cmucam3.a(rdcf2.o)
 .text.rdcf_open
                0x00003224      0x2b8 ../../hal/lpc2106-cmucam3\libhal-lpc2106-cmucam3.a(rdcf2.o)
                0x00003224                rdcf_open
 .text.rdcf_rename
                0x000034dc      0x128 ../../hal/lpc2106-cmucam3\libhal-lpc2106-cmucam3.a(rdcf2.o)
                0x000034dc                rdcf_rename
 .text.rdcf_delete
                0x00003604      0x1a4 ../../hal/lpc2106-cmucam3\libhal-lpc2106-cmucam3.a(rdcf2.o)
                0x00003604                rdcf_delete
 .text.spiPutByte
                0x000037a8       0x28 ../../hal/lpc2106-cmucam3\libhal-lpc2106-cmucam3.a(mmc_hardware.o)
 .text.spiGetByte
                0x000037d0       0x30 ../../hal/lpc2106-cmucam3\libhal-lpc2106-cmucam3.a(mmc_hardware.o)
 .text.SPI_Send
                0x00003800       0x28 ../../hal/lpc2106-cmucam3\libhal-lpc2106-cmucam3.a(mmc_hardware.o)
 .text.mmcStatus
                0x00003828       0x4c ../../hal/lpc2106-cmucam3\libhal-lpc2106-cmucam3.a(mmc_hardware.o)
 .text._cc3_mmc_idle
                0x00003874       0x18 ../../hal/lpc2106-cmucam3\libhal-lpc2106-cmucam3.a(mmc_hardware.o)
                0x00003874                _cc3_mmc_idle
 .text.selectMMC
                0x0000388c       0x2c ../../hal/lpc2106-cmucam3\libhal-lpc2106-cmucam3.a(mmc_hardware.o)
 .text.unselectMMC
                0x000038b8       0x3c ../../hal/lpc2106-cmucam3\libhal-lpc2106-cmucam3.a(mmc_hardware.o)
 .text._cc3_mmc_block_write
                0x000038f4       0xe4 ../../hal/lpc2106-cmucam3\libhal-lpc2106-cmucam3.a(mmc_hardware.o)
                0x000038f4                _cc3_mmc_block_write
 .text._cc3_mmc_block_read
                0x000039d8       0xbc ../../hal/lpc2106-cmucam3\libhal-lpc2106-cmucam3.a(mmc_hardware.o)
                0x000039d8                _cc3_mmc_block_read
 .text._cc3_mmc_init
                0x00003a94      0x298 ../../hal/lpc2106-cmucam3\libhal-lpc2106-cmucam3.a(mmc_hardware.o)
                0x00003a94                _cc3_mmc_init
 .text.mmc_recognize
                0x00003d2c       0x34 ../../hal/lpc2106-cmucam3\libhal-lpc2106-cmucam3.a(mmc_driver.o)
 .text.remove_prefix
                0x00003d60        0x8 ../../hal/lpc2106-cmucam3\libhal-lpc2106-cmucam3.a(mmc_driver.o)
 .text.mmc_fstat
                0x00003d68       0x18 ../../hal/lpc2106-cmucam3\libhal-lpc2106-cmucam3.a(mmc_driver.o)
 .text.allocate_1_fcb
                0x00003d80       0x34 ../../hal/lpc2106-cmucam3\libhal-lpc2106-cmucam3.a(mmc_driver.o)
 .text.mmc_rename
                0x00003db4       0xb8 ../../hal/lpc2106-cmucam3\libhal-lpc2106-cmucam3.a(mmc_driver.o)
 .text.mmc_unlink
                0x00003e6c       0xa4 ../../hal/lpc2106-cmucam3\libhal-lpc2106-cmucam3.a(mmc_driver.o)
 .text.mmc_lseek
                0x00003f10       0xd0 ../../hal/lpc2106-cmucam3\libhal-lpc2106-cmucam3.a(mmc_driver.o)
 .text.mmc_write
                0x00003fe0       0x8c ../../hal/lpc2106-cmucam3\libhal-lpc2106-cmucam3.a(mmc_driver.o)
 .text.mmc_read
                0x0000406c       0x8c ../../hal/lpc2106-cmucam3\libhal-lpc2106-cmucam3.a(mmc_driver.o)
 .text.mmc_close
                0x000040f8       0xcc ../../hal/lpc2106-cmucam3\libhal-lpc2106-cmucam3.a(mmc_driver.o)
 .text.mmc_open
                0x000041c4       0xf8 ../../hal/lpc2106-cmucam3\libhal-lpc2106-cmucam3.a(mmc_driver.o)
 .text.cc3_filesystem_init
                0x000042bc       0x18 ../../hal/lpc2106-cmucam3\libhal-lpc2106-cmucam3.a(devices.o)
                0x000042bc                cc3_filesystem_init
 .text._cc3_get_driver_for_name
                0x000042d4       0x54 ../../hal/lpc2106-cmucam3\libhal-lpc2106-cmucam3.a(devices.o)
                0x000042d4                _cc3_get_driver_for_name
 .text._cc3_get_internal_file_number
                0x00004328        0x8 ../../hal/lpc2106-cmucam3\libhal-lpc2106-cmucam3.a(devices.o)
                0x00004328                _cc3_get_internal_file_number
 .text._cc3_get_driver_for_file_number
                0x00004330       0x20 ../../hal/lpc2106-cmucam3\libhal-lpc2106-cmucam3.a(devices.o)
                0x00004330                _cc3_get_driver_for_file_number
 .text._cc3_make_file_number
                0x00004350       0x14 ../../hal/lpc2106-cmucam3\libhal-lpc2106-cmucam3.a(devices.o)
                0x00004350                _cc3_make_file_number
 .text.uart_close
                0x00004364        0x8 ../../hal/lpc2106-cmucam3\libhal-lpc2106-cmucam3.a(uart_driver.o)
 .text.uart_read
                0x0000436c       0xe4 ../../hal/lpc2106-cmucam3\libhal-lpc2106-cmucam3.a(uart_driver.o)
 .text.uart_write
                0x00004450       0xf8 ../../hal/lpc2106-cmucam3\libhal-lpc2106-cmucam3.a(uart_driver.o)
 .text.uart_lseek
                0x00004548       0x18 ../../hal/lpc2106-cmucam3\libhal-lpc2106-cmucam3.a(uart_driver.o)
 .text.uart_fstat
                0x00004560       0x10 ../../hal/lpc2106-cmucam3\libhal-lpc2106-cmucam3.a(uart_driver.o)
 .text.uart_unlink
                0x00004570       0x18 ../../hal/lpc2106-cmucam3\libhal-lpc2106-cmucam3.a(uart_driver.o)
 .text.uart_rename
                0x00004588       0x18 ../../hal/lpc2106-cmucam3\libhal-lpc2106-cmucam3.a(uart_driver.o)
 .text.process_uart_filename
                0x000045a0       0x6c ../../hal/lpc2106-cmucam3\libhal-lpc2106-cmucam3.a(uart_driver.o)
 .text.uart_recognize
                0x0000460c       0x18 ../../hal/lpc2106-cmucam3\libhal-lpc2106-cmucam3.a(uart_driver.o)
 .text.uart_open
                0x00004624       0x40 ../../hal/lpc2106-cmucam3\libhal-lpc2106-cmucam3.a(uart_driver.o)
 .text          0x00004664      0x114 c:/program files (x86)/codesourcery/sourcery g++ lite/bin/../lib/gcc/arm-none-eabi/4.2.3\libgcc.a(_udivsi3.o)
                0x00004664                __udivsi3
                0x00004664                __aeabi_uidiv
                0x00004758                __aeabi_uidivmod
 .text          0x00004778      0x148 c:/program files (x86)/codesourcery/sourcery g++ lite/bin/../lib/gcc/arm-none-eabi/4.2.3\libgcc.a(_divsi3.o)
                0x00004778                __aeabi_idiv
                0x00004778                __divsi3
                0x000048a0                __aeabi_idivmod
 .text          0x000048c0        0x4 c:/program files (x86)/codesourcery/sourcery g++ lite/bin/../lib/gcc/arm-none-eabi/4.2.3\libgcc.a(_dvmd_tls.o)
                0x000048c0                __aeabi_ldiv0
                0x000048c0                __aeabi_idiv0
 .text          0x000048c4       0x28 c:/program files (x86)/codesourcery/sourcery g++ lite/bin/../lib/gcc/arm-none-eabi/4.2.3/../../../../arm-none-eabi/lib\libc.a(lib_a-calloc.o)
                0x000048c4                calloc
 .text          0x000048ec       0xa0 c:/program files (x86)/codesourcery/sourcery g++ lite/bin/../lib/gcc/arm-none-eabi/4.2.3/../../../../arm-none-eabi/lib\libc.a(lib_a-callocr.o)
                0x000048ec                _calloc_r
 .text          0x0000498c       0x30 c:/program files (x86)/codesourcery/sourcery g++ lite/bin/../lib/gcc/arm-none-eabi/4.2.3/../../../../arm-none-eabi/lib\libc.a(lib_a-exit.o)
                0x0000498c                exit
 .text          0x000049bc      0x10c c:/program files (x86)/codesourcery/sourcery g++ lite/bin/../lib/gcc/arm-none-eabi/4.2.3/../../../../arm-none-eabi/lib\libc.a(lib_a-fclose.o)
                0x000049bc                _fclose_r
                0x00004ab4                fclose
 .text          0x00004ac8      0x200 c:/program files (x86)/codesourcery/sourcery g++ lite/bin/../lib/gcc/arm-none-eabi/4.2.3/../../../../arm-none-eabi/lib\libc.a(lib_a-fflush.o)
                0x00004c84                fflush
                0x00004ac8                _fflush_r
 .text          0x00004cc8      0x2a0 c:/program files (x86)/codesourcery/sourcery g++ lite/bin/../lib/gcc/arm-none-eabi/4.2.3/../../../../arm-none-eabi/lib\libc.a(lib_a-findfp.o)
                0x00004d34                __sinit
                0x00004e38                __sfmoreglue
                0x00004e28                _cleanup
                0x00004e10                _cleanup_r
                0x00004dec                __fp_lock_all
                0x00004d24                __sfp_lock_acquire
                0x00004e8c                __sfp
                0x00004d30                __sinit_lock_release
                0x00004dc8                __fp_unlock_all
                0x00004d28                __sfp_lock_release
                0x00004d2c                __sinit_lock_acquire
 .text          0x00004f68       0x70 c:/program files (x86)/codesourcery/sourcery g++ lite/bin/../lib/gcc/arm-none-eabi/4.2.3/../../../../arm-none-eabi/lib\libc.a(lib_a-fiprintf.o)
                0x00004fa8                _fiprintf_r
                0x00004f68                fiprintf
 .text          0x00004fd8       0xfc c:/program files (x86)/codesourcery/sourcery g++ lite/bin/../lib/gcc/arm-none-eabi/4.2.3/../../../../arm-none-eabi/lib\libc.a(lib_a-fopen.o)
                0x000050b8                fopen
                0x00004fd8                _fopen_r
 .text          0x000050d4      0x3bc c:/program files (x86)/codesourcery/sourcery g++ lite/bin/../lib/gcc/arm-none-eabi/4.2.3/../../../../arm-none-eabi/lib\libc.a(lib_a-freer.o)
                0x000051d0                _free_r
                0x000050d4                _malloc_trim_r
 .text          0x00005490      0x48c c:/program files (x86)/codesourcery/sourcery g++ lite/bin/../lib/gcc/arm-none-eabi/4.2.3/../../../../arm-none-eabi/lib\libc.a(lib_a-fseek.o)
                0x000058f0                fseek
                0x00005490                _fseek_r
 .text          0x0000591c       0x40 c:/program files (x86)/codesourcery/sourcery g++ lite/bin/../lib/gcc/arm-none-eabi/4.2.3/../../../../arm-none-eabi/lib\libc.a(lib_a-fstatr.o)
                0x0000591c                _fstat_r
 .text          0x0000595c      0x114 c:/program files (x86)/codesourcery/sourcery g++ lite/bin/../lib/gcc/arm-none-eabi/4.2.3/../../../../arm-none-eabi/lib\libc.a(lib_a-fwalk.o)
                0x000059e8                _fwalk
                0x0000595c                _fwalk_reent
 .text          0x00005a70       0x70 c:/program files (x86)/codesourcery/sourcery g++ lite/bin/../lib/gcc/arm-none-eabi/4.2.3/../../../../arm-none-eabi/lib\libc.a(lib_a-gets.o)
                0x00005acc                gets
                0x00005a70                _gets_r
 .text          0x00005ae0       0x74 c:/program files (x86)/codesourcery/sourcery g++ lite/bin/../lib/gcc/arm-none-eabi/4.2.3/../../../../arm-none-eabi/lib\libc.a(lib_a-iprintf.o)
                0x00005ae0                _iprintf_r
                0x00005b14                iprintf
 .text          0x00005b54       0x14 c:/program files (x86)/codesourcery/sourcery g++ lite/bin/../lib/gcc/arm-none-eabi/4.2.3/../../../../arm-none-eabi/lib\libc.a(lib_a-lcltime_r.o)
                0x00005b54                localtime_r
 .text          0x00005b68      0x168 c:/program files (x86)/codesourcery/sourcery g++ lite/bin/../lib/gcc/arm-none-eabi/4.2.3/../../../../arm-none-eabi/lib\libc.a(lib_a-makebuf.o)
                0x00005b68                __smakebuf_r
 .text          0x00005cd0       0x40 c:/program files (x86)/codesourcery/sourcery g++ lite/bin/../lib/gcc/arm-none-eabi/4.2.3/../../../../arm-none-eabi/lib\libc.a(lib_a-malloc.o)
                0x00005cf0                malloc
                0x00005cd0                free
 .text          0x00005d10      0x784 c:/program files (x86)/codesourcery/sourcery g++ lite/bin/../lib/gcc/arm-none-eabi/4.2.3/../../../../arm-none-eabi/lib\libc.a(lib_a-mallocr.o)
                0x00005d10                _malloc_r
 .text          0x00006494       0x98 c:/program files (x86)/codesourcery/sourcery g++ lite/bin/../lib/gcc/arm-none-eabi/4.2.3/../../../../arm-none-eabi/lib\libc.a(lib_a-memcmp.o)
                0x00006494                memcmp
 .text          0x0000652c       0xa4 c:/program files (x86)/codesourcery/sourcery g++ lite/bin/../lib/gcc/arm-none-eabi/4.2.3/../../../../arm-none-eabi/lib\libc.a(lib_a-memcpy.o)
                0x0000652c                memcpy
 .text          0x000065d0       0x8c c:/program files (x86)/codesourcery/sourcery g++ lite/bin/../lib/gcc/arm-none-eabi/4.2.3/../../../../arm-none-eabi/lib\libc.a(lib_a-memset.o)
                0x000065d0                memset
 .text          0x0000665c      0x830 c:/program files (x86)/codesourcery/sourcery g++ lite/bin/../lib/gcc/arm-none-eabi/4.2.3/../../../../arm-none-eabi/lib\libc.a(lib_a-mktm_r.o)
                0x0000665c                __tzcalc_limits
                0x000068b8                _mktm_r
 .text          0x00006e8c        0x8 c:/program files (x86)/codesourcery/sourcery g++ lite/bin/../lib/gcc/arm-none-eabi/4.2.3/../../../../arm-none-eabi/lib\libc.a(lib_a-mlock.o)
                0x00006e90                __malloc_unlock
                0x00006e8c                __malloc_lock
 .text          0x00006e94       0x44 c:/program files (x86)/codesourcery/sourcery g++ lite/bin/../lib/gcc/arm-none-eabi/4.2.3/../../../../arm-none-eabi/lib\libc.a(lib_a-openr.o)
                0x00006e94                _open_r
 .text          0x00006ed8      0x1c0 c:/program files (x86)/codesourcery/sourcery g++ lite/bin/../lib/gcc/arm-none-eabi/4.2.3/../../../../arm-none-eabi/lib\libc.a(lib_a-refill.o)
                0x00006ed8                __srefill_r
 .text          0x00007098       0x48 c:/program files (x86)/codesourcery/sourcery g++ lite/bin/../lib/gcc/arm-none-eabi/4.2.3/../../../../arm-none-eabi/lib\libc.a(lib_a-rget.o)
                0x000070cc                __srget
                0x00007098                __srget_r
 .text          0x000070e0       0x40 c:/program files (x86)/codesourcery/sourcery g++ lite/bin/../lib/gcc/arm-none-eabi/4.2.3/../../../../arm-none-eabi/lib\libc.a(lib_a-sbrkr.o)
                0x000070e0                _sbrk_r
 .text          0x00007120       0x20 c:/program files (x86)/codesourcery/sourcery g++ lite/bin/../lib/gcc/arm-none-eabi/4.2.3/../../../../arm-none-eabi/lib\libc.a(lib_a-setbuf.o)
                0x00007120                setbuf
 .text          0x00007140       0x34 c:/program files (x86)/codesourcery/sourcery g++ lite/bin/../lib/gcc/arm-none-eabi/4.2.3/../../../../arm-none-eabi/lib\libc.a(lib_a-setjmp.o)
                0x00007158                longjmp
                0x00007140                setjmp
 .text          0x00007174      0x1a4 c:/program files (x86)/codesourcery/sourcery g++ lite/bin/../lib/gcc/arm-none-eabi/4.2.3/../../../../arm-none-eabi/lib\libc.a(lib_a-setvbuf.o)
                0x00007174                setvbuf
 .text          0x00007318       0xdc c:/program files (x86)/codesourcery/sourcery g++ lite/bin/../lib/gcc/arm-none-eabi/4.2.3/../../../../arm-none-eabi/lib\libc.a(lib_a-siprintf.o)
                0x0000738c                _siprintf_r
                0x00007318                siprintf
 .text          0x000073f4       0xd8 c:/program files (x86)/codesourcery/sourcery g++ lite/bin/../lib/gcc/arm-none-eabi/4.2.3/../../../../arm-none-eabi/lib\libc.a(lib_a-stdio.o)
                0x00007408                __sseek
                0x00007498                __sread
                0x000073f4                __sclose
                0x00007440                __swrite
 .text          0x000074cc       0x20 c:/program files (x86)/codesourcery/sourcery g++ lite/bin/../lib/gcc/arm-none-eabi/4.2.3/../../../../arm-none-eabi/lib\libc.a(lib_a-strdup.o)
                0x000074cc                strdup
 .text          0x000074ec       0x40 c:/program files (x86)/codesourcery/sourcery g++ lite/bin/../lib/gcc/arm-none-eabi/4.2.3/../../../../arm-none-eabi/lib\libc.a(lib_a-strdup_r.o)
                0x000074ec                _strdup_r
 .text          0x0000752c       0x68 c:/program files (x86)/codesourcery/sourcery g++ lite/bin/../lib/gcc/arm-none-eabi/4.2.3/../../../../arm-none-eabi/lib\libc.a(lib_a-strlen.o)
                0x0000752c                strlen
 .text          0x00007594      0x1f4 c:/program files (x86)/codesourcery/sourcery g++ lite/bin/../lib/gcc/arm-none-eabi/4.2.3/../../../../arm-none-eabi/lib\libc.a(lib_a-strtol.o)
                0x0000775c                strtol
                0x00007594                _strtol_r
 .text          0x00007788       0x28 c:/program files (x86)/codesourcery/sourcery g++ lite/bin/../lib/gcc/arm-none-eabi/4.2.3/../../../../arm-none-eabi/lib\libc.a(lib_a-sysgettod.o)
                0x00007788                gettimeofday
 .text          0x000077b0        0x8 c:/program files (x86)/codesourcery/sourcery g++ lite/bin/../lib/gcc/arm-none-eabi/4.2.3/../../../../arm-none-eabi/lib\libc.a(lib_a-tzlock.o)
                0x000077b4                __tz_unlock
                0x000077b0                __tz_lock
 .text          0x000077b8     0x11d0 c:/program files (x86)/codesourcery/sourcery g++ lite/bin/../lib/gcc/arm-none-eabi/4.2.3/../../../../arm-none-eabi/lib\libc.a(lib_a-vfiprintf.o)
                0x0000895c                vfiprintf
                0x000077f0                _vfiprintf_r
 .text          0x00008988       0x44 c:/program files (x86)/codesourcery/sourcery g++ lite/bin/../lib/gcc/arm-none-eabi/4.2.3/../../../../arm-none-eabi/lib\libc.a(lib_a-writer.o)
                0x00008988                _write_r
 .text          0x000089cc      0x138 c:/program files (x86)/codesourcery/sourcery g++ lite/bin/../lib/gcc/arm-none-eabi/4.2.3/../../../../arm-none-eabi/lib\libc.a(lib_a-wsetup.o)
                0x000089cc                __swsetup_r
 .text          0x00008b04      0x184 c:/program files (x86)/codesourcery/sourcery g++ lite/bin/../lib/gcc/arm-none-eabi/4.2.3/../../../../arm-none-eabi/lib\libc.a(lib_a-__call_atexit.o)
                0x00008b04                __call_exitprocs
 .text          0x00008c88       0x20 c:/program files (x86)/codesourcery/sourcery g++ lite/bin/../lib/gcc/arm-none-eabi/4.2.3/../../../../arm-none-eabi/lib\libc.a(lib_a-atexit.o)
                0x00008c88                atexit
 .text          0x00008ca8       0x3c c:/program files (x86)/codesourcery/sourcery g++ lite/bin/../lib/gcc/arm-none-eabi/4.2.3/../../../../arm-none-eabi/lib\libc.a(lib_a-closer.o)
                0x00008ca8                _close_r
 .text          0x00008ce4       0x50 c:/program files (x86)/codesourcery/sourcery g++ lite/bin/../lib/gcc/arm-none-eabi/4.2.3/../../../../arm-none-eabi/lib\libc.a(lib_a-fini.o)
                0x00008ce4                __libc_fini_array
 .text          0x00008d34       0xc4 c:/program files (x86)/codesourcery/sourcery g++ lite/bin/../lib/gcc/arm-none-eabi/4.2.3/../../../../arm-none-eabi/lib\libc.a(lib_a-flags.o)
                0x00008d34                __sflags
 .text          0x00008df8      0x498 c:/program files (x86)/codesourcery/sourcery g++ lite/bin/../lib/gcc/arm-none-eabi/4.2.3/../../../../arm-none-eabi/lib\libc.a(lib_a-fvwrite.o)
                0x00008df8                __sfvwrite_r
 .text          0x00009290       0x34 c:/program files (x86)/codesourcery/sourcery g++ lite/bin/../lib/gcc/arm-none-eabi/4.2.3/../../../../arm-none-eabi/lib\libc.a(lib_a-getchar.o)
                0x00009290                getchar
                0x000092b0                _getchar_r
 .text          0x000092c4       0x40 c:/program files (x86)/codesourcery/sourcery g++ lite/bin/../lib/gcc/arm-none-eabi/4.2.3/../../../../arm-none-eabi/lib\libc.a(lib_a-gettimeofdayr.o)
                0x000092c4                _gettimeofday_r
 .text          0x00009304        0xc c:/program files (x86)/codesourcery/sourcery g++ lite/bin/../lib/gcc/arm-none-eabi/4.2.3/../../../../arm-none-eabi/lib\libc.a(lib_a-gettzinfo.o)
                0x00009304                __gettzinfo
 .text          0x00009310       0x3c c:/program files (x86)/codesourcery/sourcery g++ lite/bin/../lib/gcc/arm-none-eabi/4.2.3/../../../../arm-none-eabi/lib\libc.a(lib_a-isattyr.o)
                0x00009310                _isatty_r
 .text          0x0000934c       0x44 c:/program files (x86)/codesourcery/sourcery g++ lite/bin/../lib/gcc/arm-none-eabi/4.2.3/../../../../arm-none-eabi/lib\libc.a(lib_a-lseekr.o)
                0x0000934c                _lseek_r
 .text          0x00009390      0x114 c:/program files (x86)/codesourcery/sourcery g++ lite/bin/../lib/gcc/arm-none-eabi/4.2.3/../../../../arm-none-eabi/lib\libc.a(lib_a-memchr.o)
                0x00009390                memchr
 .text          0x000094a4       0xf4 c:/program files (x86)/codesourcery/sourcery g++ lite/bin/../lib/gcc/arm-none-eabi/4.2.3/../../../../arm-none-eabi/lib\libc.a(lib_a-memmove.o)
                0x000094a4                memmove
 .text          0x00009598       0x44 c:/program files (x86)/codesourcery/sourcery g++ lite/bin/../lib/gcc/arm-none-eabi/4.2.3/../../../../arm-none-eabi/lib\libc.a(lib_a-readr.o)
                0x00009598                _read_r
 .text          0x000095dc      0x5bc c:/program files (x86)/codesourcery/sourcery g++ lite/bin/../lib/gcc/arm-none-eabi/4.2.3/../../../../arm-none-eabi/lib\libc.a(lib_a-reallocr.o)
                0x000095dc                _realloc_r
 .text          0x00009b98       0xec c:/program files (x86)/codesourcery/sourcery g++ lite/bin/../lib/gcc/arm-none-eabi/4.2.3/../../../../arm-none-eabi/lib\libc.a(lib_a-__atexit.o)
                0x00009b98                __register_exitproc
 .text          0x00009c84       0xe8 c:/program files (x86)/codesourcery/sourcery g++ lite/bin/../lib/gcc/arm-none-eabi/4.2.3/../../../../arm-none-eabi/lib\libc.a(lib_a-getc.o)
                0x00009d00                _getc_r
                0x00009c84                getc
 .text          0x00009d6c       0x3c c:/program files (x86)/codesourcery/sourcery g++ lite/bin/../lib/gcc/arm-none-eabi/4.2.3\libgcc.a(_aeabi_uldivmod.o)
                0x00009d6c                __aeabi_uldivmod
 .text          0x00009da8       0x90 c:/program files (x86)/codesourcery/sourcery g++ lite/bin/../lib/gcc/arm-none-eabi/4.2.3\libgcc.a(bpabi.o)
                0x00009da8                __gnu_uldivmod_helper
                0x00009df0                __gnu_ldivmod_helper
 .text          0x00009e38      0x584 c:/program files (x86)/codesourcery/sourcery g++ lite/bin/../lib/gcc/arm-none-eabi/4.2.3\libgcc.a(_divdi3.o)
                0x00009e38                __divdi3
 .text          0x0000a3bc      0x518 c:/program files (x86)/codesourcery/sourcery g++ lite/bin/../lib/gcc/arm-none-eabi/4.2.3\libgcc.a(_udivdi3.o)
                0x0000a3bc                __udivdi3
 *(.plt)
 *(.gnu.warning)
 *(.glue_7t)
 .glue_7t       0x0000a8d4        0x0 c:/program files (x86)/codesourcery/sourcery g++ lite/bin/../lib/gcc/arm-none-eabi/4.2.3/crti.o
 .glue_7t       0x0000a8d4        0x0 c:/program files (x86)/codesourcery/sourcery g++ lite/bin/../lib/gcc/arm-none-eabi/4.2.3/crtbegin.o
 .glue_7t       0x0000a8d4        0x0 lpc2106-cmucam3_buildfiles/main.o
 .glue_7t       0x0000a8d4        0x0 ../../lib/cc3-ilp\libcc3-ilp_lpc2106-cmucam3.a(cc3_img_writer.o)
 .glue_7t       0x0000a8d4        0x0 ../../lib/cc3-ilp\libcc3-ilp_lpc2106-cmucam3.a(cc3_hsv.o)
 .glue_7t       0x0000a8d4        0x0 ../../lib/cc3-ilp\libcc3-ilp_lpc2106-cmucam3.a(cc3_ilp.o)
 .glue_7t       0x0000a8d4        0x0 ../../hal/lpc2106-cmucam3\libhal-lpc2106-cmucam3.a(interrupt.o)
 .glue_7t       0x0000a8d4        0x0 ../../hal/lpc2106-cmucam3\libhal-lpc2106-cmucam3.a(cc3.o)
 .glue_7t       0x0000a8d4        0x0 ../../hal/lpc2106-cmucam3\libhal-lpc2106-cmucam3.a(cc3_hal.o)
 .glue_7t       0x0000a8d4        0x0 ../../hal/lpc2106-cmucam3\libhal-lpc2106-cmucam3.a(syscalls.o)
 .glue_7t       0x0000a8d4        0x0 ../../hal/lpc2106-cmucam3\libhal-lpc2106-cmucam3.a(serial.o)
 .glue_7t       0x0000a8d4        0x0 ../../hal/lpc2106-cmucam3\libhal-lpc2106-cmucam3.a(servo.o)
 .glue_7t       0x0000a8d4        0x0 ../../hal/lpc2106-cmucam3\libhal-lpc2106-cmucam3.a(rdcf2.o)
 .glue_7t       0x0000a8d4        0x0 ../../hal/lpc2106-cmucam3\libhal-lpc2106-cmucam3.a(mmc_hardware.o)
 .glue_7t       0x0000a8d4        0x0 ../../hal/lpc2106-cmucam3\libhal-lpc2106-cmucam3.a(mmc_driver.o)
 .glue_7t       0x0000a8d4        0x0 ../../hal/lpc2106-cmucam3\libhal-lpc2106-cmucam3.a(gpio.o)
 .glue_7t       0x0000a8d4        0x0 ../../hal/lpc2106-cmucam3\libhal-lpc2106-cmucam3.a(devices.o)
 .glue_7t       0x0000a8d4        0x0 ../../hal/lpc2106-cmucam3\libhal-lpc2106-cmucam3.a(uart_driver.o)
 .glue_7t       0x0000a8d4        0x0 ../../hal/lpc2106-cmucam3\libhal-lpc2106-cmucam3.a(startup.o)
 .glue_7t       0x0000a8d4        0x0 c:/program files (x86)/codesourcery/sourcery g++ lite/bin/../lib/gcc/arm-none-eabi/4.2.3\libgcc.a(_udivsi3.o)
 .glue_7t       0x0000a8d4        0x0 c:/program files (x86)/codesourcery/sourcery g++ lite/bin/../lib/gcc/arm-none-eabi/4.2.3\libgcc.a(_divsi3.o)
 .glue_7t       0x0000a8d4        0x0 c:/program files (x86)/codesourcery/sourcery g++ lite/bin/../lib/gcc/arm-none-eabi/4.2.3\libgcc.a(_dvmd_tls.o)
 .glue_7t       0x0000a8d4        0x0 c:/program files (x86)/codesourcery/sourcery g++ lite/bin/../lib/gcc/arm-none-eabi/4.2.3/../../../../arm-none-eabi/lib\libc.a(lib_a-calloc.o)
 .glue_7t       0x0000a8d4        0x0 c:/program files (x86)/codesourcery/sourcery g++ lite/bin/../lib/gcc/arm-none-eabi/4.2.3/../../../../arm-none-eabi/lib\libc.a(lib_a-callocr.o)
 .glue_7t       0x0000a8d4        0x0 c:/program files (x86)/codesourcery/sourcery g++ lite/bin/../lib/gcc/arm-none-eabi/4.2.3/../../../../arm-none-eabi/lib\libc.a(lib_a-ctype_.o)
 .glue_7t       0x0000a8d4        0x0 c:/program files (x86)/codesourcery/sourcery g++ lite/bin/../lib/gcc/arm-none-eabi/4.2.3/../../../../arm-none-eabi/lib\libc.a(lib_a-exit.o)
 .glue_7t       0x0000a8d4        0x0 c:/program files (x86)/codesourcery/sourcery g++ lite/bin/../lib/gcc/arm-none-eabi/4.2.3/../../../../arm-none-eabi/lib\libc.a(lib_a-fclose.o)
 .glue_7t       0x0000a8d4        0x0 c:/program files (x86)/codesourcery/sourcery g++ lite/bin/../lib/gcc/arm-none-eabi/4.2.3/../../../../arm-none-eabi/lib\libc.a(lib_a-fflush.o)
 .glue_7t       0x0000a8d4        0x0 c:/program files (x86)/codesourcery/sourcery g++ lite/bin/../lib/gcc/arm-none-eabi/4.2.3/../../../../arm-none-eabi/lib\libc.a(lib_a-findfp.o)
 .glue_7t       0x0000a8d4        0x0 c:/program files (x86)/codesourcery/sourcery g++ lite/bin/../lib/gcc/arm-none-eabi/4.2.3/../../../../arm-none-eabi/lib\libc.a(lib_a-fiprintf.o)
 .glue_7t       0x0000a8d4        0x0 c:/program files (x86)/codesourcery/sourcery g++ lite/bin/../lib/gcc/arm-none-eabi/4.2.3/../../../../arm-none-eabi/lib\libc.a(lib_a-fopen.o)
 .glue_7t       0x0000a8d4        0x0 c:/program files (x86)/codesourcery/sourcery g++ lite/bin/../lib/gcc/arm-none-eabi/4.2.3/../../../../arm-none-eabi/lib\libc.a(lib_a-freer.o)
 .glue_7t       0x0000a8d4        0x0 c:/program files (x86)/codesourcery/sourcery g++ lite/bin/../lib/gcc/arm-none-eabi/4.2.3/../../../../arm-none-eabi/lib\libc.a(lib_a-fseek.o)
 .glue_7t       0x0000a8d4        0x0 c:/program files (x86)/codesourcery/sourcery g++ lite/bin/../lib/gcc/arm-none-eabi/4.2.3/../../../../arm-none-eabi/lib\libc.a(lib_a-fstatr.o)
 .glue_7t       0x0000a8d4        0x0 c:/program files (x86)/codesourcery/sourcery g++ lite/bin/../lib/gcc/arm-none-eabi/4.2.3/../../../../arm-none-eabi/lib\libc.a(lib_a-fwalk.o)
 .glue_7t       0x0000a8d4        0x0 c:/program files (x86)/codesourcery/sourcery g++ lite/bin/../lib/gcc/arm-none-eabi/4.2.3/../../../../arm-none-eabi/lib\libc.a(lib_a-gets.o)
 .glue_7t       0x0000a8d4        0x0 c:/program files (x86)/codesourcery/sourcery g++ lite/bin/../lib/gcc/arm-none-eabi/4.2.3/../../../../arm-none-eabi/lib\libc.a(lib_a-impure.o)
 .glue_7t       0x0000a8d4        0x0 c:/program files (x86)/codesourcery/sourcery g++ lite/bin/../lib/gcc/arm-none-eabi/4.2.3/../../../../arm-none-eabi/lib\libc.a(lib_a-iprintf.o)
 .glue_7t       0x0000a8d4        0x0 c:/program files (x86)/codesourcery/sourcery g++ lite/bin/../lib/gcc/arm-none-eabi/4.2.3/../../../../arm-none-eabi/lib\libc.a(lib_a-lcltime_r.o)
 .glue_7t       0x0000a8d4        0x0 c:/program files (x86)/codesourcery/sourcery g++ lite/bin/../lib/gcc/arm-none-eabi/4.2.3/../../../../arm-none-eabi/lib\libc.a(lib_a-makebuf.o)
 .glue_7t       0x0000a8d4        0x0 c:/program files (x86)/codesourcery/sourcery g++ lite/bin/../lib/gcc/arm-none-eabi/4.2.3/../../../../arm-none-eabi/lib\libc.a(lib_a-malloc.o)
 .glue_7t       0x0000a8d4        0x0 c:/program files (x86)/codesourcery/sourcery g++ lite/bin/../lib/gcc/arm-none-eabi/4.2.3/../../../../arm-none-eabi/lib\libc.a(lib_a-mallocr.o)
 .glue_7t       0x0000a8d4        0x0 c:/program files (x86)/codesourcery/sourcery g++ lite/bin/../lib/gcc/arm-none-eabi/4.2.3/../../../../arm-none-eabi/lib\libc.a(lib_a-memcmp.o)
 .glue_7t       0x0000a8d4        0x0 c:/program files (x86)/codesourcery/sourcery g++ lite/bin/../lib/gcc/arm-none-eabi/4.2.3/../../../../arm-none-eabi/lib\libc.a(lib_a-memcpy.o)
 .glue_7t       0x0000a8d4        0x0 c:/program files (x86)/codesourcery/sourcery g++ lite/bin/../lib/gcc/arm-none-eabi/4.2.3/../../../../arm-none-eabi/lib\libc.a(lib_a-memset.o)
 .glue_7t       0x0000a8d4        0x0 c:/program files (x86)/codesourcery/sourcery g++ lite/bin/../lib/gcc/arm-none-eabi/4.2.3/../../../../arm-none-eabi/lib\libc.a(lib_a-mktm_r.o)
 .glue_7t       0x0000a8d4        0x0 c:/program files (x86)/codesourcery/sourcery g++ lite/bin/../lib/gcc/arm-none-eabi/4.2.3/../../../../arm-none-eabi/lib\libc.a(lib_a-mlock.o)
 .glue_7t       0x0000a8d4        0x0 c:/program files (x86)/codesourcery/sourcery g++ lite/bin/../lib/gcc/arm-none-eabi/4.2.3/../../../../arm-none-eabi/lib\libc.a(lib_a-openr.o)
 .glue_7t       0x0000a8d4        0x0 c:/program files (x86)/codesourcery/sourcery g++ lite/bin/../lib/gcc/arm-none-eabi/4.2.3/../../../../arm-none-eabi/lib\libc.a(lib_a-reent.o)
 .glue_7t       0x0000a8d4        0x0 c:/program files (x86)/codesourcery/sourcery g++ lite/bin/../lib/gcc/arm-none-eabi/4.2.3/../../../../arm-none-eabi/lib\libc.a(lib_a-refill.o)
 .glue_7t       0x0000a8d4        0x0 c:/program files (x86)/codesourcery/sourcery g++ lite/bin/../lib/gcc/arm-none-eabi/4.2.3/../../../../arm-none-eabi/lib\libc.a(lib_a-rget.o)
 .glue_7t       0x0000a8d4        0x0 c:/program files (x86)/codesourcery/sourcery g++ lite/bin/../lib/gcc/arm-none-eabi/4.2.3/../../../../arm-none-eabi/lib\libc.a(lib_a-sbrkr.o)
 .glue_7t       0x0000a8d4        0x0 c:/program files (x86)/codesourcery/sourcery g++ lite/bin/../lib/gcc/arm-none-eabi/4.2.3/../../../../arm-none-eabi/lib\libc.a(lib_a-setbuf.o)
 .glue_7t       0x0000a8d4        0x0 c:/program files (x86)/codesourcery/sourcery g++ lite/bin/../lib/gcc/arm-none-eabi/4.2.3/../../../../arm-none-eabi/lib\libc.a(lib_a-setjmp.o)
 .glue_7t       0x0000a8d4        0x0 c:/program files (x86)/codesourcery/sourcery g++ lite/bin/../lib/gcc/arm-none-eabi/4.2.3/../../../../arm-none-eabi/lib\libc.a(lib_a-setvbuf.o)
 .glue_7t       0x0000a8d4        0x0 c:/program files (x86)/codesourcery/sourcery g++ lite/bin/../lib/gcc/arm-none-eabi/4.2.3/../../../../arm-none-eabi/lib\libc.a(lib_a-siprintf.o)
 .glue_7t       0x0000a8d4        0x0 c:/program files (x86)/codesourcery/sourcery g++ lite/bin/../lib/gcc/arm-none-eabi/4.2.3/../../../../arm-none-eabi/lib\libc.a(lib_a-sniprintf.o)
 .glue_7t       0x0000a8d4        0x0 c:/program files (x86)/codesourcery/sourcery g++ lite/bin/../lib/gcc/arm-none-eabi/4.2.3/../../../../arm-none-eabi/lib\libc.a(lib_a-stdio.o)
 .glue_7t       0x0000a8d4        0x0 c:/program files (x86)/codesourcery/sourcery g++ lite/bin/../lib/gcc/arm-none-eabi/4.2.3/../../../../arm-none-eabi/lib\libc.a(lib_a-strdup.o)
 .glue_7t       0x0000a8d4        0x0 c:/program files (x86)/codesourcery/sourcery g++ lite/bin/../lib/gcc/arm-none-eabi/4.2.3/../../../../arm-none-eabi/lib\libc.a(lib_a-strdup_r.o)
 .glue_7t       0x0000a8d4        0x0 c:/program files (x86)/codesourcery/sourcery g++ lite/bin/../lib/gcc/arm-none-eabi/4.2.3/../../../../arm-none-eabi/lib\libc.a(lib_a-strlen.o)
 .glue_7t       0x0000a8d4        0x0 c:/program files (x86)/codesourcery/sourcery g++ lite/bin/../lib/gcc/arm-none-eabi/4.2.3/../../../../arm-none-eabi/lib\libc.a(lib_a-strtol.o)
 .glue_7t       0x0000a8d4        0x0 c:/program files (x86)/codesourcery/sourcery g++ lite/bin/../lib/gcc/arm-none-eabi/4.2.3/../../../../arm-none-eabi/lib\libc.a(lib_a-sysgettod.o)
 .glue_7t       0x0000a8d4        0x0 c:/program files (x86)/codesourcery/sourcery g++ lite/bin/../lib/gcc/arm-none-eabi/4.2.3/../../../../arm-none-eabi/lib\libc.a(lib_a-tzlock.o)
 .glue_7t       0x0000a8d4        0x0 c:/program files (x86)/codesourcery/sourcery g++ lite/bin/../lib/gcc/arm-none-eabi/4.2.3/../../../../arm-none-eabi/lib\libc.a(lib_a-tzvars.o)
 .glue_7t       0x0000a8d4        0x0 c:/program files (x86)/codesourcery/sourcery g++ lite/bin/../lib/gcc/arm-none-eabi/4.2.3/../../../../arm-none-eabi/lib\libc.a(lib_a-vfiprintf.o)
 .glue_7t       0x0000a8d4        0x0 c:/program files (x86)/codesourcery/sourcery g++ lite/bin/../lib/gcc/arm-none-eabi/4.2.3/../../../../arm-none-eabi/lib\libc.a(lib_a-writer.o)
 .glue_7t       0x0000a8d4        0x0 c:/program files (x86)/codesourcery/sourcery g++ lite/bin/../lib/gcc/arm-none-eabi/4.2.3/../../../../arm-none-eabi/lib\libc.a(lib_a-wsetup.o)
 .glue_7t       0x0000a8d4        0x0 c:/program files (x86)/codesourcery/sourcery g++ lite/bin/../lib/gcc/arm-none-eabi/4.2.3/../../../../arm-none-eabi/lib\libc.a(lib_a-__call_atexit.o)
 .glue_7t       0x0000a8d4        0x0 c:/program files (x86)/codesourcery/sourcery g++ lite/bin/../lib/gcc/arm-none-eabi/4.2.3/../../../../arm-none-eabi/lib\libc.a(lib_a-atexit.o)
 .glue_7t       0x0000a8d4        0x0 c:/program files (x86)/codesourcery/sourcery g++ lite/bin/../lib/gcc/arm-none-eabi/4.2.3/../../../../arm-none-eabi/lib\libc.a(lib_a-closer.o)
 .glue_7t       0x0000a8d4        0x0 c:/program files (x86)/codesourcery/sourcery g++ lite/bin/../lib/gcc/arm-none-eabi/4.2.3/../../../../arm-none-eabi/lib\libc.a(lib_a-fini.o)
 .glue_7t       0x0000a8d4        0x0 c:/program files (x86)/codesourcery/sourcery g++ lite/bin/../lib/gcc/arm-none-eabi/4.2.3/../../../../arm-none-eabi/lib\libc.a(lib_a-flags.o)
 .glue_7t       0x0000a8d4        0x0 c:/program files (x86)/codesourcery/sourcery g++ lite/bin/../lib/gcc/arm-none-eabi/4.2.3/../../../../arm-none-eabi/lib\libc.a(lib_a-fvwrite.o)
 .glue_7t       0x0000a8d4        0x0 c:/program files (x86)/codesourcery/sourcery g++ lite/bin/../lib/gcc/arm-none-eabi/4.2.3/../../../../arm-none-eabi/lib\libc.a(lib_a-getchar.o)
 .glue_7t       0x0000a8d4        0x0 c:/program files (x86)/codesourcery/sourcery g++ lite/bin/../lib/gcc/arm-none-eabi/4.2.3/../../../../arm-none-eabi/lib\libc.a(lib_a-gettimeofdayr.o)
 .glue_7t       0x0000a8d4        0x0 c:/program files (x86)/codesourcery/sourcery g++ lite/bin/../lib/gcc/arm-none-eabi/4.2.3/../../../../arm-none-eabi/lib\libc.a(lib_a-gettzinfo.o)
 .glue_7t       0x0000a8d4        0x0 c:/program files (x86)/codesourcery/sourcery g++ lite/bin/../lib/gcc/arm-none-eabi/4.2.3/../../../../arm-none-eabi/lib\libc.a(lib_a-isattyr.o)
 .glue_7t       0x0000a8d4        0x0 c:/program files (x86)/codesourcery/sourcery g++ lite/bin/../lib/gcc/arm-none-eabi/4.2.3/../../../../arm-none-eabi/lib\libc.a(lib_a-lseekr.o)
 .glue_7t       0x0000a8d4        0x0 c:/program files (x86)/codesourcery/sourcery g++ lite/bin/../lib/gcc/arm-none-eabi/4.2.3/../../../../arm-none-eabi/lib\libc.a(lib_a-memchr.o)
 .glue_7t       0x0000a8d4        0x0 c:/program files (x86)/codesourcery/sourcery g++ lite/bin/../lib/gcc/arm-none-eabi/4.2.3/../../../../arm-none-eabi/lib\libc.a(lib_a-memmove.o)
 .glue_7t       0x0000a8d4        0x0 c:/program files (x86)/codesourcery/sourcery g++ lite/bin/../lib/gcc/arm-none-eabi/4.2.3/../../../../arm-none-eabi/lib\libc.a(lib_a-readr.o)
 .glue_7t       0x0000a8d4        0x0 c:/program files (x86)/codesourcery/sourcery g++ lite/bin/../lib/gcc/arm-none-eabi/4.2.3/../../../../arm-none-eabi/lib\libc.a(lib_a-reallocr.o)
 .glue_7t       0x0000a8d4        0x0 c:/program files (x86)/codesourcery/sourcery g++ lite/bin/../lib/gcc/arm-none-eabi/4.2.3/../../../../arm-none-eabi/lib\libc.a(lib_a-__atexit.o)
 .glue_7t       0x0000a8d4        0x0 c:/program files (x86)/codesourcery/sourcery g++ lite/bin/../lib/gcc/arm-none-eabi/4.2.3/../../../../arm-none-eabi/lib\libc.a(lib_a-getc.o)
 .glue_7t       0x0000a8d4        0x0 c:/program files (x86)/codesourcery/sourcery g++ lite/bin/../lib/gcc/arm-none-eabi/4.2.3\libgcc.a(_aeabi_uldivmod.o)
 .glue_7t       0x0000a8d4        0x0 c:/program files (x86)/codesourcery/sourcery g++ lite/bin/../lib/gcc/arm-none-eabi/4.2.3\libgcc.a(bpabi.o)
 .glue_7t       0x0000a8d4        0x0 c:/program files (x86)/codesourcery/sourcery g++ lite/bin/../lib/gcc/arm-none-eabi/4.2.3\libgcc.a(_divdi3.o)
 .glue_7t       0x0000a8d4        0x0 c:/program files (x86)/codesourcery/sourcery g++ lite/bin/../lib/gcc/arm-none-eabi/4.2.3\libgcc.a(_udivdi3.o)
 .glue_7t       0x0000a8d4        0x0 c:/program files (x86)/codesourcery/sourcery g++ lite/bin/../lib/gcc/arm-none-eabi/4.2.3\libgcc.a(_clz.o)
 .glue_7t       0x0000a8d4        0x0 c:/program files (x86)/codesourcery/sourcery g++ lite/bin/../lib/gcc/arm-none-eabi/4.2.3/crtend.o
 .glue_7t       0x0000a8d4        0x0 c:/program files (x86)/codesourcery/sourcery g++ lite/bin/../lib/gcc/arm-none-eabi/4.2.3/crtn.o
 *(.glue_7)
 .glue_7        0x0000a8d4        0x0 c:/program files (x86)/codesourcery/sourcery g++ lite/bin/../lib/gcc/arm-none-eabi/4.2.3/crti.o
 .glue_7        0x0000a8d4        0x0 c:/program files (x86)/codesourcery/sourcery g++ lite/bin/../lib/gcc/arm-none-eabi/4.2.3/crtbegin.o
 .glue_7        0x0000a8d4        0x0 lpc2106-cmucam3_buildfiles/main.o
 .glue_7        0x0000a8d4        0x0 ../../lib/cc3-ilp\libcc3-ilp_lpc2106-cmucam3.a(cc3_img_writer.o)
 .glue_7        0x0000a8d4        0x0 ../../lib/cc3-ilp\libcc3-ilp_lpc2106-cmucam3.a(cc3_hsv.o)
 .glue_7        0x0000a8d4        0x0 ../../lib/cc3-ilp\libcc3-ilp_lpc2106-cmucam3.a(cc3_ilp.o)
 .glue_7        0x0000a8d4        0x0 ../../hal/lpc2106-cmucam3\libhal-lpc2106-cmucam3.a(interrupt.o)
 .glue_7        0x0000a8d4        0x0 ../../hal/lpc2106-cmucam3\libhal-lpc2106-cmucam3.a(cc3.o)
 .glue_7        0x0000a8d4        0x0 ../../hal/lpc2106-cmucam3\libhal-lpc2106-cmucam3.a(cc3_hal.o)
 .glue_7        0x0000a8d4        0x0 ../../hal/lpc2106-cmucam3\libhal-lpc2106-cmucam3.a(syscalls.o)
 .glue_7        0x0000a8d4        0x0 ../../hal/lpc2106-cmucam3\libhal-lpc2106-cmucam3.a(serial.o)
 .glue_7        0x0000a8d4        0x0 ../../hal/lpc2106-cmucam3\libhal-lpc2106-cmucam3.a(servo.o)
 .glue_7        0x0000a8d4        0x0 ../../hal/lpc2106-cmucam3\libhal-lpc2106-cmucam3.a(rdcf2.o)
 .glue_7        0x0000a8d4        0x0 ../../hal/lpc2106-cmucam3\libhal-lpc2106-cmucam3.a(mmc_hardware.o)
 .glue_7        0x0000a8d4        0x0 ../../hal/lpc2106-cmucam3\libhal-lpc2106-cmucam3.a(mmc_driver.o)
 .glue_7        0x0000a8d4        0x0 ../../hal/lpc2106-cmucam3\libhal-lpc2106-cmucam3.a(gpio.o)
 .glue_7        0x0000a8d4        0x0 ../../hal/lpc2106-cmucam3\libhal-lpc2106-cmucam3.a(devices.o)
 .glue_7        0x0000a8d4        0x0 ../../hal/lpc2106-cmucam3\libhal-lpc2106-cmucam3.a(uart_driver.o)
 .glue_7        0x0000a8d4        0x0 ../../hal/lpc2106-cmucam3\libhal-lpc2106-cmucam3.a(startup.o)
 .glue_7        0x0000a8d4        0x0 c:/program files (x86)/codesourcery/sourcery g++ lite/bin/../lib/gcc/arm-none-eabi/4.2.3\libgcc.a(_udivsi3.o)
 .glue_7        0x0000a8d4        0x0 c:/program files (x86)/codesourcery/sourcery g++ lite/bin/../lib/gcc/arm-none-eabi/4.2.3\libgcc.a(_divsi3.o)
 .glue_7        0x0000a8d4        0x0 c:/program files (x86)/codesourcery/sourcery g++ lite/bin/../lib/gcc/arm-none-eabi/4.2.3\libgcc.a(_dvmd_tls.o)
 .glue_7        0x0000a8d4        0x0 c:/program files (x86)/codesourcery/sourcery g++ lite/bin/../lib/gcc/arm-none-eabi/4.2.3/../../../../arm-none-eabi/lib\libc.a(lib_a-calloc.o)
 .glue_7        0x0000a8d4        0x0 c:/program files (x86)/codesourcery/sourcery g++ lite/bin/../lib/gcc/arm-none-eabi/4.2.3/../../../../arm-none-eabi/lib\libc.a(lib_a-callocr.o)
 .glue_7        0x0000a8d4        0x0 c:/program files (x86)/codesourcery/sourcery g++ lite/bin/../lib/gcc/arm-none-eabi/4.2.3/../../../../arm-none-eabi/lib\libc.a(lib_a-ctype_.o)
 .glue_7        0x0000a8d4        0x0 c:/program files (x86)/codesourcery/sourcery g++ lite/bin/../lib/gcc/arm-none-eabi/4.2.3/../../../../arm-none-eabi/lib\libc.a(lib_a-exit.o)
 .glue_7        0x0000a8d4        0x0 c:/program files (x86)/codesourcery/sourcery g++ lite/bin/../lib/gcc/arm-none-eabi/4.2.3/../../../../arm-none-eabi/lib\libc.a(lib_a-fclose.o)
 .glue_7        0x0000a8d4        0x0 c:/program files (x86)/codesourcery/sourcery g++ lite/bin/../lib/gcc/arm-none-eabi/4.2.3/../../../../arm-none-eabi/lib\libc.a(lib_a-fflush.o)
 .glue_7        0x0000a8d4        0x0 c:/program files (x86)/codesourcery/sourcery g++ lite/bin/../lib/gcc/arm-none-eabi/4.2.3/../../../../arm-none-eabi/lib\libc.a(lib_a-findfp.o)
 .glue_7        0x0000a8d4        0x0 c:/program files (x86)/codesourcery/sourcery g++ lite/bin/../lib/gcc/arm-none-eabi/4.2.3/../../../../arm-none-eabi/lib\libc.a(lib_a-fiprintf.o)
 .glue_7        0x0000a8d4        0x0 c:/program files (x86)/codesourcery/sourcery g++ lite/bin/../lib/gcc/arm-none-eabi/4.2.3/../../../../arm-none-eabi/lib\libc.a(lib_a-fopen.o)
 .glue_7        0x0000a8d4        0x0 c:/program files (x86)/codesourcery/sourcery g++ lite/bin/../lib/gcc/arm-none-eabi/4.2.3/../../../../arm-none-eabi/lib\libc.a(lib_a-freer.o)
 .glue_7        0x0000a8d4        0x0 c:/program files (x86)/codesourcery/sourcery g++ lite/bin/../lib/gcc/arm-none-eabi/4.2.3/../../../../arm-none-eabi/lib\libc.a(lib_a-fseek.o)
 .glue_7        0x0000a8d4        0x0 c:/program files (x86)/codesourcery/sourcery g++ lite/bin/../lib/gcc/arm-none-eabi/4.2.3/../../../../arm-none-eabi/lib\libc.a(lib_a-fstatr.o)
 .glue_7        0x0000a8d4        0x0 c:/program files (x86)/codesourcery/sourcery g++ lite/bin/../lib/gcc/arm-none-eabi/4.2.3/../../../../arm-none-eabi/lib\libc.a(lib_a-fwalk.o)
 .glue_7        0x0000a8d4        0x0 c:/program files (x86)/codesourcery/sourcery g++ lite/bin/../lib/gcc/arm-none-eabi/4.2.3/../../../../arm-none-eabi/lib\libc.a(lib_a-gets.o)
 .glue_7        0x0000a8d4        0x0 c:/program files (x86)/codesourcery/sourcery g++ lite/bin/../lib/gcc/arm-none-eabi/4.2.3/../../../../arm-none-eabi/lib\libc.a(lib_a-impure.o)
 .glue_7        0x0000a8d4        0x0 c:/program files (x86)/codesourcery/sourcery g++ lite/bin/../lib/gcc/arm-none-eabi/4.2.3/../../../../arm-none-eabi/lib\libc.a(lib_a-iprintf.o)
 .glue_7        0x0000a8d4        0x0 c:/program files (x86)/codesourcery/sourcery g++ lite/bin/../lib/gcc/arm-none-eabi/4.2.3/../../../../arm-none-eabi/lib\libc.a(lib_a-lcltime_r.o)
 .glue_7        0x0000a8d4        0x0 c:/program files (x86)/codesourcery/sourcery g++ lite/bin/../lib/gcc/arm-none-eabi/4.2.3/../../../../arm-none-eabi/lib\libc.a(lib_a-makebuf.o)
 .glue_7        0x0000a8d4        0x0 c:/program files (x86)/codesourcery/sourcery g++ lite/bin/../lib/gcc/arm-none-eabi/4.2.3/../../../../arm-none-eabi/lib\libc.a(lib_a-malloc.o)
 .glue_7        0x0000a8d4        0x0 c:/program files (x86)/codesourcery/sourcery g++ lite/bin/../lib/gcc/arm-none-eabi/4.2.3/../../../../arm-none-eabi/lib\libc.a(lib_a-mallocr.o)
 .glue_7        0x0000a8d4        0x0 c:/program files (x86)/codesourcery/sourcery g++ lite/bin/../lib/gcc/arm-none-eabi/4.2.3/../../../../arm-none-eabi/lib\libc.a(lib_a-memcmp.o)
 .glue_7        0x0000a8d4        0x0 c:/program files (x86)/codesourcery/sourcery g++ lite/bin/../lib/gcc/arm-none-eabi/4.2.3/../../../../arm-none-eabi/lib\libc.a(lib_a-memcpy.o)
 .glue_7        0x0000a8d4        0x0 c:/program files (x86)/codesourcery/sourcery g++ lite/bin/../lib/gcc/arm-none-eabi/4.2.3/../../../../arm-none-eabi/lib\libc.a(lib_a-memset.o)
 .glue_7        0x0000a8d4        0x0 c:/program files (x86)/codesourcery/sourcery g++ lite/bin/../lib/gcc/arm-none-eabi/4.2.3/../../../../arm-none-eabi/lib\libc.a(lib_a-mktm_r.o)
 .glue_7        0x0000a8d4        0x0 c:/program files (x86)/codesourcery/sourcery g++ lite/bin/../lib/gcc/arm-none-eabi/4.2.3/../../../../arm-none-eabi/lib\libc.a(lib_a-mlock.o)
 .glue_7        0x0000a8d4        0x0 c:/program files (x86)/codesourcery/sourcery g++ lite/bin/../lib/gcc/arm-none-eabi/4.2.3/../../../../arm-none-eabi/lib\libc.a(lib_a-openr.o)
 .glue_7        0x0000a8d4        0x0 c:/program files (x86)/codesourcery/sourcery g++ lite/bin/../lib/gcc/arm-none-eabi/4.2.3/../../../../arm-none-eabi/lib\libc.a(lib_a-reent.o)
 .glue_7        0x0000a8d4        0x0 c:/program files (x86)/codesourcery/sourcery g++ lite/bin/../lib/gcc/arm-none-eabi/4.2.3/../../../../arm-none-eabi/lib\libc.a(lib_a-refill.o)
 .glue_7        0x0000a8d4        0x0 c:/program files (x86)/codesourcery/sourcery g++ lite/bin/../lib/gcc/arm-none-eabi/4.2.3/../../../../arm-none-eabi/lib\libc.a(lib_a-rget.o)
 .glue_7        0x0000a8d4        0x0 c:/program files (x86)/codesourcery/sourcery g++ lite/bin/../lib/gcc/arm-none-eabi/4.2.3/../../../../arm-none-eabi/lib\libc.a(lib_a-sbrkr.o)
 .glue_7        0x0000a8d4        0x0 c:/program files (x86)/codesourcery/sourcery g++ lite/bin/../lib/gcc/arm-none-eabi/4.2.3/../../../../arm-none-eabi/lib\libc.a(lib_a-setbuf.o)
 .glue_7        0x0000a8d4        0x0 c:/program files (x86)/codesourcery/sourcery g++ lite/bin/../lib/gcc/arm-none-eabi/4.2.3/../../../../arm-none-eabi/lib\libc.a(lib_a-setjmp.o)
 .glue_7        0x0000a8d4        0x0 c:/program files (x86)/codesourcery/sourcery g++ lite/bin/../lib/gcc/arm-none-eabi/4.2.3/../../../../arm-none-eabi/lib\libc.a(lib_a-setvbuf.o)
 .glue_7        0x0000a8d4        0x0 c:/program files (x86)/codesourcery/sourcery g++ lite/bin/../lib/gcc/arm-none-eabi/4.2.3/../../../../arm-none-eabi/lib\libc.a(lib_a-siprintf.o)
 .glue_7        0x0000a8d4        0x0 c:/program files (x86)/codesourcery/sourcery g++ lite/bin/../lib/gcc/arm-none-eabi/4.2.3/../../../../arm-none-eabi/lib\libc.a(lib_a-sniprintf.o)
 .glue_7        0x0000a8d4        0x0 c:/program files (x86)/codesourcery/sourcery g++ lite/bin/../lib/gcc/arm-none-eabi/4.2.3/../../../../arm-none-eabi/lib\libc.a(lib_a-stdio.o)
 .glue_7        0x0000a8d4        0x0 c:/program files (x86)/codesourcery/sourcery g++ lite/bin/../lib/gcc/arm-none-eabi/4.2.3/../../../../arm-none-eabi/lib\libc.a(lib_a-strdup.o)
 .glue_7        0x0000a8d4        0x0 c:/program files (x86)/codesourcery/sourcery g++ lite/bin/../lib/gcc/arm-none-eabi/4.2.3/../../../../arm-none-eabi/lib\libc.a(lib_a-strdup_r.o)
 .glue_7        0x0000a8d4        0x0 c:/program files (x86)/codesourcery/sourcery g++ lite/bin/../lib/gcc/arm-none-eabi/4.2.3/../../../../arm-none-eabi/lib\libc.a(lib_a-strlen.o)
 .glue_7        0x0000a8d4        0x0 c:/program files (x86)/codesourcery/sourcery g++ lite/bin/../lib/gcc/arm-none-eabi/4.2.3/../../../../arm-none-eabi/lib\libc.a(lib_a-strtol.o)
 .glue_7        0x0000a8d4        0x0 c:/program files (x86)/codesourcery/sourcery g++ lite/bin/../lib/gcc/arm-none-eabi/4.2.3/../../../../arm-none-eabi/lib\libc.a(lib_a-sysgettod.o)
 .glue_7        0x0000a8d4        0x0 c:/program files (x86)/codesourcery/sourcery g++ lite/bin/../lib/gcc/arm-none-eabi/4.2.3/../../../../arm-none-eabi/lib\libc.a(lib_a-tzlock.o)
 .glue_7        0x0000a8d4        0x0 c:/program files (x86)/codesourcery/sourcery g++ lite/bin/../lib/gcc/arm-none-eabi/4.2.3/../../../../arm-none-eabi/lib\libc.a(lib_a-tzvars.o)
 .glue_7        0x0000a8d4        0x0 c:/program files (x86)/codesourcery/sourcery g++ lite/bin/../lib/gcc/arm-none-eabi/4.2.3/../../../../arm-none-eabi/lib\libc.a(lib_a-vfiprintf.o)
 .glue_7        0x0000a8d4        0x0 c:/program files (x86)/codesourcery/sourcery g++ lite/bin/../lib/gcc/arm-none-eabi/4.2.3/../../../../arm-none-eabi/lib\libc.a(lib_a-writer.o)
 .glue_7        0x0000a8d4        0x0 c:/program files (x86)/codesourcery/sourcery g++ lite/bin/../lib/gcc/arm-none-eabi/4.2.3/../../../../arm-none-eabi/lib\libc.a(lib_a-wsetup.o)
 .glue_7        0x0000a8d4        0x0 c:/program files (x86)/codesourcery/sourcery g++ lite/bin/../lib/gcc/arm-none-eabi/4.2.3/../../../../arm-none-eabi/lib\libc.a(lib_a-__call_atexit.o)
 .glue_7        0x0000a8d4        0x0 c:/program files (x86)/codesourcery/sourcery g++ lite/bin/../lib/gcc/arm-none-eabi/4.2.3/../../../../arm-none-eabi/lib\libc.a(lib_a-atexit.o)
 .glue_7        0x0000a8d4        0x0 c:/program files (x86)/codesourcery/sourcery g++ lite/bin/../lib/gcc/arm-none-eabi/4.2.3/../../../../arm-none-eabi/lib\libc.a(lib_a-closer.o)
 .glue_7        0x0000a8d4        0x0 c:/program files (x86)/codesourcery/sourcery g++ lite/bin/../lib/gcc/arm-none-eabi/4.2.3/../../../../arm-none-eabi/lib\libc.a(lib_a-fini.o)
 .glue_7        0x0000a8d4        0x0 c:/program files (x86)/codesourcery/sourcery g++ lite/bin/../lib/gcc/arm-none-eabi/4.2.3/../../../../arm-none-eabi/lib\libc.a(lib_a-flags.o)
 .glue_7        0x0000a8d4        0x0 c:/program files (x86)/codesourcery/sourcery g++ lite/bin/../lib/gcc/arm-none-eabi/4.2.3/../../../../arm-none-eabi/lib\libc.a(lib_a-fvwrite.o)
 .glue_7        0x0000a8d4        0x0 c:/program files (x86)/codesourcery/sourcery g++ lite/bin/../lib/gcc/arm-none-eabi/4.2.3/../../../../arm-none-eabi/lib\libc.a(lib_a-getchar.o)
 .glue_7        0x0000a8d4        0x0 c:/program files (x86)/codesourcery/sourcery g++ lite/bin/../lib/gcc/arm-none-eabi/4.2.3/../../../../arm-none-eabi/lib\libc.a(lib_a-gettimeofdayr.o)
 .glue_7        0x0000a8d4        0x0 c:/program files (x86)/codesourcery/sourcery g++ lite/bin/../lib/gcc/arm-none-eabi/4.2.3/../../../../arm-none-eabi/lib\libc.a(lib_a-gettzinfo.o)
 .glue_7        0x0000a8d4        0x0 c:/program files (x86)/codesourcery/sourcery g++ lite/bin/../lib/gcc/arm-none-eabi/4.2.3/../../../../arm-none-eabi/lib\libc.a(lib_a-isattyr.o)
 .glue_7        0x0000a8d4        0x0 c:/program files (x86)/codesourcery/sourcery g++ lite/bin/../lib/gcc/arm-none-eabi/4.2.3/../../../../arm-none-eabi/lib\libc.a(lib_a-lseekr.o)
 .glue_7        0x0000a8d4        0x0 c:/program files (x86)/codesourcery/sourcery g++ lite/bin/../lib/gcc/arm-none-eabi/4.2.3/../../../../arm-none-eabi/lib\libc.a(lib_a-memchr.o)
 .glue_7        0x0000a8d4        0x0 c:/program files (x86)/codesourcery/sourcery g++ lite/bin/../lib/gcc/arm-none-eabi/4.2.3/../../../../arm-none-eabi/lib\libc.a(lib_a-memmove.o)
 .glue_7        0x0000a8d4        0x0 c:/program files (x86)/codesourcery/sourcery g++ lite/bin/../lib/gcc/arm-none-eabi/4.2.3/../../../../arm-none-eabi/lib\libc.a(lib_a-readr.o)
 .glue_7        0x0000a8d4        0x0 c:/program files (x86)/codesourcery/sourcery g++ lite/bin/../lib/gcc/arm-none-eabi/4.2.3/../../../../arm-none-eabi/lib\libc.a(lib_a-reallocr.o)
 .glue_7        0x0000a8d4        0x0 c:/program files (x86)/codesourcery/sourcery g++ lite/bin/../lib/gcc/arm-none-eabi/4.2.3/../../../../arm-none-eabi/lib\libc.a(lib_a-__atexit.o)
 .glue_7        0x0000a8d4        0x0 c:/program files (x86)/codesourcery/sourcery g++ lite/bin/../lib/gcc/arm-none-eabi/4.2.3/../../../../arm-none-eabi/lib\libc.a(lib_a-getc.o)
 .glue_7        0x0000a8d4        0x0 c:/program files (x86)/codesourcery/sourcery g++ lite/bin/../lib/gcc/arm-none-eabi/4.2.3\libgcc.a(_aeabi_uldivmod.o)
 .glue_7        0x0000a8d4        0x0 c:/program files (x86)/codesourcery/sourcery g++ lite/bin/../lib/gcc/arm-none-eabi/4.2.3\libgcc.a(bpabi.o)
 .glue_7        0x0000a8d4        0x0 c:/program files (x86)/codesourcery/sourcery g++ lite/bin/../lib/gcc/arm-none-eabi/4.2.3\libgcc.a(_divdi3.o)
 .glue_7        0x0000a8d4        0x0 c:/program files (x86)/codesourcery/sourcery g++ lite/bin/../lib/gcc/arm-none-eabi/4.2.3\libgcc.a(_udivdi3.o)
 .glue_7        0x0000a8d4        0x0 c:/program files (x86)/codesourcery/sourcery g++ lite/bin/../lib/gcc/arm-none-eabi/4.2.3\libgcc.a(_clz.o)
 .glue_7        0x0000a8d4        0x0 c:/program files (x86)/codesourcery/sourcery g++ lite/bin/../lib/gcc/arm-none-eabi/4.2.3/crtend.o
 .glue_7        0x0000a8d4        0x0 c:/program files (x86)/codesourcery/sourcery g++ lite/bin/../lib/gcc/arm-none-eabi/4.2.3/crtn.o
 *(.vfp11_veneer)
 .vfp11_veneer  0x0000a8d4        0x0 c:/program files (x86)/codesourcery/sourcery g++ lite/bin/../lib/gcc/arm-none-eabi/4.2.3/crti.o
 .vfp11_veneer  0x0000a8d4        0x0 c:/program files (x86)/codesourcery/sourcery g++ lite/bin/../lib/gcc/arm-none-eabi/4.2.3/crtbegin.o
 .vfp11_veneer  0x0000a8d4        0x0 lpc2106-cmucam3_buildfiles/main.o
 .vfp11_veneer  0x0000a8d4        0x0 ../../lib/cc3-ilp\libcc3-ilp_lpc2106-cmucam3.a(cc3_img_writer.o)
 .vfp11_veneer  0x0000a8d4        0x0 ../../lib/cc3-ilp\libcc3-ilp_lpc2106-cmucam3.a(cc3_hsv.o)
 .vfp11_veneer  0x0000a8d4        0x0 ../../lib/cc3-ilp\libcc3-ilp_lpc2106-cmucam3.a(cc3_ilp.o)
 .vfp11_veneer  0x0000a8d4        0x0 ../../hal/lpc2106-cmucam3\libhal-lpc2106-cmucam3.a(interrupt.o)
 .vfp11_veneer  0x0000a8d4        0x0 ../../hal/lpc2106-cmucam3\libhal-lpc2106-cmucam3.a(cc3.o)
 .vfp11_veneer  0x0000a8d4        0x0 ../../hal/lpc2106-cmucam3\libhal-lpc2106-cmucam3.a(cc3_hal.o)
 .vfp11_veneer  0x0000a8d4        0x0 ../../hal/lpc2106-cmucam3\libhal-lpc2106-cmucam3.a(syscalls.o)
 .vfp11_veneer  0x0000a8d4        0x0 ../../hal/lpc2106-cmucam3\libhal-lpc2106-cmucam3.a(serial.o)
 .vfp11_veneer  0x0000a8d4        0x0 ../../hal/lpc2106-cmucam3\libhal-lpc2106-cmucam3.a(servo.o)
 .vfp11_veneer  0x0000a8d4        0x0 ../../hal/lpc2106-cmucam3\libhal-lpc2106-cmucam3.a(rdcf2.o)
 .vfp11_veneer  0x0000a8d4        0x0 ../../hal/lpc2106-cmucam3\libhal-lpc2106-cmucam3.a(mmc_hardware.o)
 .vfp11_veneer  0x0000a8d4        0x0 ../../hal/lpc2106-cmucam3\libhal-lpc2106-cmucam3.a(mmc_driver.o)
 .vfp11_veneer  0x0000a8d4        0x0 ../../hal/lpc2106-cmucam3\libhal-lpc2106-cmucam3.a(gpio.o)
 .vfp11_veneer  0x0000a8d4        0x0 ../../hal/lpc2106-cmucam3\libhal-lpc2106-cmucam3.a(devices.o)
 .vfp11_veneer  0x0000a8d4        0x0 ../../hal/lpc2106-cmucam3\libhal-lpc2106-cmucam3.a(uart_driver.o)
 .vfp11_veneer  0x0000a8d4        0x0 ../../hal/lpc2106-cmucam3\libhal-lpc2106-cmucam3.a(startup.o)
 .vfp11_veneer  0x0000a8d4        0x0 c:/program files (x86)/codesourcery/sourcery g++ lite/bin/../lib/gcc/arm-none-eabi/4.2.3\libgcc.a(_udivsi3.o)
 .vfp11_veneer  0x0000a8d4        0x0 c:/program files (x86)/codesourcery/sourcery g++ lite/bin/../lib/gcc/arm-none-eabi/4.2.3\libgcc.a(_divsi3.o)
 .vfp11_veneer  0x0000a8d4        0x0 c:/program files (x86)/codesourcery/sourcery g++ lite/bin/../lib/gcc/arm-none-eabi/4.2.3\libgcc.a(_dvmd_tls.o)
 .vfp11_veneer  0x0000a8d4        0x0 c:/program files (x86)/codesourcery/sourcery g++ lite/bin/../lib/gcc/arm-none-eabi/4.2.3/../../../../arm-none-eabi/lib\libc.a(lib_a-calloc.o)
 .vfp11_veneer  0x0000a8d4        0x0 c:/program files (x86)/codesourcery/sourcery g++ lite/bin/../lib/gcc/arm-none-eabi/4.2.3/../../../../arm-none-eabi/lib\libc.a(lib_a-callocr.o)
 .vfp11_veneer  0x0000a8d4        0x0 c:/program files (x86)/codesourcery/sourcery g++ lite/bin/../lib/gcc/arm-none-eabi/4.2.3/../../../../arm-none-eabi/lib\libc.a(lib_a-ctype_.o)
 .vfp11_veneer  0x0000a8d4        0x0 c:/program files (x86)/codesourcery/sourcery g++ lite/bin/../lib/gcc/arm-none-eabi/4.2.3/../../../../arm-none-eabi/lib\libc.a(lib_a-exit.o)
 .vfp11_veneer  0x0000a8d4        0x0 c:/program files (x86)/codesourcery/sourcery g++ lite/bin/../lib/gcc/arm-none-eabi/4.2.3/../../../../arm-none-eabi/lib\libc.a(lib_a-fclose.o)
 .vfp11_veneer  0x0000a8d4        0x0 c:/program files (x86)/codesourcery/sourcery g++ lite/bin/../lib/gcc/arm-none-eabi/4.2.3/../../../../arm-none-eabi/lib\libc.a(lib_a-fflush.o)
 .vfp11_veneer  0x0000a8d4        0x0 c:/program files (x86)/codesourcery/sourcery g++ lite/bin/../lib/gcc/arm-none-eabi/4.2.3/../../../../arm-none-eabi/lib\libc.a(lib_a-findfp.o)
 .vfp11_veneer  0x0000a8d4        0x0 c:/program files (x86)/codesourcery/sourcery g++ lite/bin/../lib/gcc/arm-none-eabi/4.2.3/../../../../arm-none-eabi/lib\libc.a(lib_a-fiprintf.o)
 .vfp11_veneer  0x0000a8d4        0x0 c:/program files (x86)/codesourcery/sourcery g++ lite/bin/../lib/gcc/arm-none-eabi/4.2.3/../../../../arm-none-eabi/lib\libc.a(lib_a-fopen.o)
 .vfp11_veneer  0x0000a8d4        0x0 c:/program files (x86)/codesourcery/sourcery g++ lite/bin/../lib/gcc/arm-none-eabi/4.2.3/../../../../arm-none-eabi/lib\libc.a(lib_a-freer.o)
 .vfp11_veneer  0x0000a8d4        0x0 c:/program files (x86)/codesourcery/sourcery g++ lite/bin/../lib/gcc/arm-none-eabi/4.2.3/../../../../arm-none-eabi/lib\libc.a(lib_a-fseek.o)
 .vfp11_veneer  0x0000a8d4        0x0 c:/program files (x86)/codesourcery/sourcery g++ lite/bin/../lib/gcc/arm-none-eabi/4.2.3/../../../../arm-none-eabi/lib\libc.a(lib_a-fstatr.o)
 .vfp11_veneer  0x0000a8d4        0x0 c:/program files (x86)/codesourcery/sourcery g++ lite/bin/../lib/gcc/arm-none-eabi/4.2.3/../../../../arm-none-eabi/lib\libc.a(lib_a-fwalk.o)
 .vfp11_veneer  0x0000a8d4        0x0 c:/program files (x86)/codesourcery/sourcery g++ lite/bin/../lib/gcc/arm-none-eabi/4.2.3/../../../../arm-none-eabi/lib\libc.a(lib_a-gets.o)
 .vfp11_veneer  0x0000a8d4        0x0 c:/program files (x86)/codesourcery/sourcery g++ lite/bin/../lib/gcc/arm-none-eabi/4.2.3/../../../../arm-none-eabi/lib\libc.a(lib_a-impure.o)
 .vfp11_veneer  0x0000a8d4        0x0 c:/program files (x86)/codesourcery/sourcery g++ lite/bin/../lib/gcc/arm-none-eabi/4.2.3/../../../../arm-none-eabi/lib\libc.a(lib_a-iprintf.o)
 .vfp11_veneer  0x0000a8d4        0x0 c:/program files (x86)/codesourcery/sourcery g++ lite/bin/../lib/gcc/arm-none-eabi/4.2.3/../../../../arm-none-eabi/lib\libc.a(lib_a-lcltime_r.o)
 .vfp11_veneer  0x0000a8d4        0x0 c:/program files (x86)/codesourcery/sourcery g++ lite/bin/../lib/gcc/arm-none-eabi/4.2.3/../../../../arm-none-eabi/lib\libc.a(lib_a-makebuf.o)
 .vfp11_veneer  0x0000a8d4        0x0 c:/program files (x86)/codesourcery/sourcery g++ lite/bin/../lib/gcc/arm-none-eabi/4.2.3/../../../../arm-none-eabi/lib\libc.a(lib_a-malloc.o)
 .vfp11_veneer  0x0000a8d4        0x0 c:/program files (x86)/codesourcery/sourcery g++ lite/bin/../lib/gcc/arm-none-eabi/4.2.3/../../../../arm-none-eabi/lib\libc.a(lib_a-mallocr.o)
 .vfp11_veneer  0x0000a8d4        0x0 c:/program files (x86)/codesourcery/sourcery g++ lite/bin/../lib/gcc/arm-none-eabi/4.2.3/../../../../arm-none-eabi/lib\libc.a(lib_a-memcmp.o)
 .vfp11_veneer  0x0000a8d4        0x0 c:/program files (x86)/codesourcery/sourcery g++ lite/bin/../lib/gcc/arm-none-eabi/4.2.3/../../../../arm-none-eabi/lib\libc.a(lib_a-memcpy.o)
 .vfp11_veneer  0x0000a8d4        0x0 c:/program files (x86)/codesourcery/sourcery g++ lite/bin/../lib/gcc/arm-none-eabi/4.2.3/../../../../arm-none-eabi/lib\libc.a(lib_a-memset.o)
 .vfp11_veneer  0x0000a8d4        0x0 c:/program files (x86)/codesourcery/sourcery g++ lite/bin/../lib/gcc/arm-none-eabi/4.2.3/../../../../arm-none-eabi/lib\libc.a(lib_a-mktm_r.o)
 .vfp11_veneer  0x0000a8d4        0x0 c:/program files (x86)/codesourcery/sourcery g++ lite/bin/../lib/gcc/arm-none-eabi/4.2.3/../../../../arm-none-eabi/lib\libc.a(lib_a-mlock.o)
 .vfp11_veneer  0x0000a8d4        0x0 c:/program files (x86)/codesourcery/sourcery g++ lite/bin/../lib/gcc/arm-none-eabi/4.2.3/../../../../arm-none-eabi/lib\libc.a(lib_a-openr.o)
 .vfp11_veneer  0x0000a8d4        0x0 c:/program files (x86)/codesourcery/sourcery g++ lite/bin/../lib/gcc/arm-none-eabi/4.2.3/../../../../arm-none-eabi/lib\libc.a(lib_a-reent.o)
 .vfp11_veneer  0x0000a8d4        0x0 c:/program files (x86)/codesourcery/sourcery g++ lite/bin/../lib/gcc/arm-none-eabi/4.2.3/../../../../arm-none-eabi/lib\libc.a(lib_a-refill.o)
 .vfp11_veneer  0x0000a8d4        0x0 c:/program files (x86)/codesourcery/sourcery g++ lite/bin/../lib/gcc/arm-none-eabi/4.2.3/../../../../arm-none-eabi/lib\libc.a(lib_a-rget.o)
 .vfp11_veneer  0x0000a8d4        0x0 c:/program files (x86)/codesourcery/sourcery g++ lite/bin/../lib/gcc/arm-none-eabi/4.2.3/../../../../arm-none-eabi/lib\libc.a(lib_a-sbrkr.o)
 .vfp11_veneer  0x0000a8d4        0x0 c:/program files (x86)/codesourcery/sourcery g++ lite/bin/../lib/gcc/arm-none-eabi/4.2.3/../../../../arm-none-eabi/lib\libc.a(lib_a-setbuf.o)
 .vfp11_veneer  0x0000a8d4        0x0 c:/program files (x86)/codesourcery/sourcery g++ lite/bin/../lib/gcc/arm-none-eabi/4.2.3/../../../../arm-none-eabi/lib\libc.a(lib_a-setjmp.o)
 .vfp11_veneer  0x0000a8d4        0x0 c:/program files (x86)/codesourcery/sourcery g++ lite/bin/../lib/gcc/arm-none-eabi/4.2.3/../../../../arm-none-eabi/lib\libc.a(lib_a-setvbuf.o)
 .vfp11_veneer  0x0000a8d4        0x0 c:/program files (x86)/codesourcery/sourcery g++ lite/bin/../lib/gcc/arm-none-eabi/4.2.3/../../../../arm-none-eabi/lib\libc.a(lib_a-siprintf.o)
 .vfp11_veneer  0x0000a8d4        0x0 c:/program files (x86)/codesourcery/sourcery g++ lite/bin/../lib/gcc/arm-none-eabi/4.2.3/../../../../arm-none-eabi/lib\libc.a(lib_a-sniprintf.o)
 .vfp11_veneer  0x0000a8d4        0x0 c:/program files (x86)/codesourcery/sourcery g++ lite/bin/../lib/gcc/arm-none-eabi/4.2.3/../../../../arm-none-eabi/lib\libc.a(lib_a-stdio.o)
 .vfp11_veneer  0x0000a8d4        0x0 c:/program files (x86)/codesourcery/sourcery g++ lite/bin/../lib/gcc/arm-none-eabi/4.2.3/../../../../arm-none-eabi/lib\libc.a(lib_a-strdup.o)
 .vfp11_veneer  0x0000a8d4        0x0 c:/program files (x86)/codesourcery/sourcery g++ lite/bin/../lib/gcc/arm-none-eabi/4.2.3/../../../../arm-none-eabi/lib\libc.a(lib_a-strdup_r.o)
 .vfp11_veneer  0x0000a8d4        0x0 c:/program files (x86)/codesourcery/sourcery g++ lite/bin/../lib/gcc/arm-none-eabi/4.2.3/../../../../arm-none-eabi/lib\libc.a(lib_a-strlen.o)
 .vfp11_veneer  0x0000a8d4        0x0 c:/program files (x86)/codesourcery/sourcery g++ lite/bin/../lib/gcc/arm-none-eabi/4.2.3/../../../../arm-none-eabi/lib\libc.a(lib_a-strtol.o)
 .vfp11_veneer  0x0000a8d4        0x0 c:/program files (x86)/codesourcery/sourcery g++ lite/bin/../lib/gcc/arm-none-eabi/4.2.3/../../../../arm-none-eabi/lib\libc.a(lib_a-sysgettod.o)
 .vfp11_veneer  0x0000a8d4        0x0 c:/program files (x86)/codesourcery/sourcery g++ lite/bin/../lib/gcc/arm-none-eabi/4.2.3/../../../../arm-none-eabi/lib\libc.a(lib_a-tzlock.o)
 .vfp11_veneer  0x0000a8d4        0x0 c:/program files (x86)/codesourcery/sourcery g++ lite/bin/../lib/gcc/arm-none-eabi/4.2.3/../../../../arm-none-eabi/lib\libc.a(lib_a-tzvars.o)
 .vfp11_veneer  0x0000a8d4        0x0 c:/program files (x86)/codesourcery/sourcery g++ lite/bin/../lib/gcc/arm-none-eabi/4.2.3/../../../../arm-none-eabi/lib\libc.a(lib_a-vfiprintf.o)
 .vfp11_veneer  0x0000a8d4        0x0 c:/program files (x86)/codesourcery/sourcery g++ lite/bin/../lib/gcc/arm-none-eabi/4.2.3/../../../../arm-none-eabi/lib\libc.a(lib_a-writer.o)
 .vfp11_veneer  0x0000a8d4        0x0 c:/program files (x86)/codesourcery/sourcery g++ lite/bin/../lib/gcc/arm-none-eabi/4.2.3/../../../../arm-none-eabi/lib\libc.a(lib_a-wsetup.o)
 .vfp11_veneer  0x0000a8d4        0x0 c:/program files (x86)/codesourcery/sourcery g++ lite/bin/../lib/gcc/arm-none-eabi/4.2.3/../../../../arm-none-eabi/lib\libc.a(lib_a-__call_atexit.o)
 .vfp11_veneer  0x0000a8d4        0x0 c:/program files (x86)/codesourcery/sourcery g++ lite/bin/../lib/gcc/arm-none-eabi/4.2.3/../../../../arm-none-eabi/lib\libc.a(lib_a-atexit.o)
 .vfp11_veneer  0x0000a8d4        0x0 c:/program files (x86)/codesourcery/sourcery g++ lite/bin/../lib/gcc/arm-none-eabi/4.2.3/../../../../arm-none-eabi/lib\libc.a(lib_a-closer.o)
 .vfp11_veneer  0x0000a8d4        0x0 c:/program files (x86)/codesourcery/sourcery g++ lite/bin/../lib/gcc/arm-none-eabi/4.2.3/../../../../arm-none-eabi/lib\libc.a(lib_a-fini.o)
 .vfp11_veneer  0x0000a8d4        0x0 c:/program files (x86)/codesourcery/sourcery g++ lite/bin/../lib/gcc/arm-none-eabi/4.2.3/../../../../arm-none-eabi/lib\libc.a(lib_a-flags.o)
 .vfp11_veneer  0x0000a8d4        0x0 c:/program files (x86)/codesourcery/sourcery g++ lite/bin/../lib/gcc/arm-none-eabi/4.2.3/../../../../arm-none-eabi/lib\libc.a(lib_a-fvwrite.o)
 .vfp11_veneer  0x0000a8d4        0x0 c:/program files (x86)/codesourcery/sourcery g++ lite/bin/../lib/gcc/arm-none-eabi/4.2.3/../../../../arm-none-eabi/lib\libc.a(lib_a-getchar.o)
 .vfp11_veneer  0x0000a8d4        0x0 c:/program files (x86)/codesourcery/sourcery g++ lite/bin/../lib/gcc/arm-none-eabi/4.2.3/../../../../arm-none-eabi/lib\libc.a(lib_a-gettimeofdayr.o)
 .vfp11_veneer  0x0000a8d4        0x0 c:/program files (x86)/codesourcery/sourcery g++ lite/bin/../lib/gcc/arm-none-eabi/4.2.3/../../../../arm-none-eabi/lib\libc.a(lib_a-gettzinfo.o)
 .vfp11_veneer  0x0000a8d4        0x0 c:/program files (x86)/codesourcery/sourcery g++ lite/bin/../lib/gcc/arm-none-eabi/4.2.3/../../../../arm-none-eabi/lib\libc.a(lib_a-isattyr.o)
 .vfp11_veneer  0x0000a8d4        0x0 c:/program files (x86)/codesourcery/sourcery g++ lite/bin/../lib/gcc/arm-none-eabi/4.2.3/../../../../arm-none-eabi/lib\libc.a(lib_a-lseekr.o)
 .vfp11_veneer  0x0000a8d4        0x0 c:/program files (x86)/codesourcery/sourcery g++ lite/bin/../lib/gcc/arm-none-eabi/4.2.3/../../../../arm-none-eabi/lib\libc.a(lib_a-memchr.o)
 .vfp11_veneer  0x0000a8d4        0x0 c:/program files (x86)/codesourcery/sourcery g++ lite/bin/../lib/gcc/arm-none-eabi/4.2.3/../../../../arm-none-eabi/lib\libc.a(lib_a-memmove.o)
 .vfp11_veneer  0x0000a8d4        0x0 c:/program files (x86)/codesourcery/sourcery g++ lite/bin/../lib/gcc/arm-none-eabi/4.2.3/../../../../arm-none-eabi/lib\libc.a(lib_a-readr.o)
 .vfp11_veneer  0x0000a8d4        0x0 c:/program files (x86)/codesourcery/sourcery g++ lite/bin/../lib/gcc/arm-none-eabi/4.2.3/../../../../arm-none-eabi/lib\libc.a(lib_a-reallocr.o)
 .vfp11_veneer  0x0000a8d4        0x0 c:/program files (x86)/codesourcery/sourcery g++ lite/bin/../lib/gcc/arm-none-eabi/4.2.3/../../../../arm-none-eabi/lib\libc.a(lib_a-__atexit.o)
 .vfp11_veneer  0x0000a8d4        0x0 c:/program files (x86)/codesourcery/sourcery g++ lite/bin/../lib/gcc/arm-none-eabi/4.2.3/../../../../arm-none-eabi/lib\libc.a(lib_a-getc.o)
 .vfp11_veneer  0x0000a8d4        0x0 c:/program files (x86)/codesourcery/sourcery g++ lite/bin/../lib/gcc/arm-none-eabi/4.2.3\libgcc.a(_aeabi_uldivmod.o)
 .vfp11_veneer  0x0000a8d4        0x0 c:/program files (x86)/codesourcery/sourcery g++ lite/bin/../lib/gcc/arm-none-eabi/4.2.3\libgcc.a(bpabi.o)
 .vfp11_veneer  0x0000a8d4        0x0 c:/program files (x86)/codesourcery/sourcery g++ lite/bin/../lib/gcc/arm-none-eabi/4.2.3\libgcc.a(_divdi3.o)
 .vfp11_veneer  0x0000a8d4        0x0 c:/program files (x86)/codesourcery/sourcery g++ lite/bin/../lib/gcc/arm-none-eabi/4.2.3\libgcc.a(_udivdi3.o)
 .vfp11_veneer  0x0000a8d4        0x0 c:/program files (x86)/codesourcery/sourcery g++ lite/bin/../lib/gcc/arm-none-eabi/4.2.3\libgcc.a(_clz.o)
 .vfp11_veneer  0x0000a8d4        0x0 c:/program files (x86)/codesourcery/sourcery g++ lite/bin/../lib/gcc/arm-none-eabi/4.2.3/crtend.o
 .vfp11_veneer  0x0000a8d4        0x0 c:/program files (x86)/codesourcery/sourcery g++ lite/bin/../lib/gcc/arm-none-eabi/4.2.3/crtn.o
 *(.rodata .rodata.* .gnu.linkonce.r.*)
 .rodata.str1.4
                0x0000a8d4       0xdf lpc2106-cmucam3_buildfiles/main.o
                                 0xe4 (size before relaxing)
 *fill*         0x0000a9b3        0x1 00
 .rodata.str1.4
                0x0000a9b4       0xb2 ../../lib/cc3-ilp\libcc3-ilp_lpc2106-cmucam3.a(cc3_img_writer.o)
                                 0xb8 (size before relaxing)
 *fill*         0x0000aa66        0x2 00
 .rodata.str1.4
                0x0000aa68       0x2b ../../hal/lpc2106-cmucam3\libhal-lpc2106-cmucam3.a(interrupt.o)
                                 0x2c (size before relaxing)
 *fill*         0x0000aa93        0x1 00
 .rodata.str1.4
                0x0000aa94        0xb ../../hal/lpc2106-cmucam3\libhal-lpc2106-cmucam3.a(serial.o)
                                 0x10 (size before relaxing)
 *fill*         0x0000aa9f        0x1 00
 .rodata._cc3_servo_map
                0x0000aaa0       0x10 ../../hal/lpc2106-cmucam3\libhal-lpc2106-cmucam3.a(servo.o)
                0x0000aaa0                _cc3_servo_map
 .rodata.table.2692
                0x0000aab0       0x20 ../../hal/lpc2106-cmucam3\libhal-lpc2106-cmucam3.a(rdcf2.o)
 .rodata.cmdReset
                0x0000aad0        0x6 ../../hal/lpc2106-cmucam3\libhal-lpc2106-cmucam3.a(mmc_hardware.o)
 .rodata.cmdSetBlock
                0x0000aad6        0x6 ../../hal/lpc2106-cmucam3\libhal-lpc2106-cmucam3.a(mmc_hardware.o)
 .rodata.cmdInitCard
                0x0000aadc        0x6 ../../hal/lpc2106-cmucam3\libhal-lpc2106-cmucam3.a(mmc_hardware.o)
 *fill*         0x0000aae2        0x2 00
 .rodata._cc3_mmc_driver
                0x0000aae4       0x2c ../../hal/lpc2106-cmucam3\libhal-lpc2106-cmucam3.a(mmc_driver.o)
                0x0000aae4                _cc3_mmc_driver
 .rodata._cc3_uart_driver
                0x0000ab10       0x2c ../../hal/lpc2106-cmucam3\libhal-lpc2106-cmucam3.a(uart_driver.o)
                0x0000ab10                _cc3_uart_driver
 .rodata        0x0000ab3c      0x101 c:/program files (x86)/codesourcery/sourcery g++ lite/bin/../lib/gcc/arm-none-eabi/4.2.3/../../../../arm-none-eabi/lib\libc.a(lib_a-ctype_.o)
                0x0000ab3c                _ctype_
 *fill*         0x0000ac3d        0x3 00
 .rodata        0x0000ac40        0x4 c:/program files (x86)/codesourcery/sourcery g++ lite/bin/../lib/gcc/arm-none-eabi/4.2.3/../../../../arm-none-eabi/lib\libc.a(lib_a-impure.o)
                0x0000ac40                _global_impure_ptr
 .rodata.str1.4
                0x0000ac44        0x2 c:/program files (x86)/codesourcery/sourcery g++ lite/bin/../lib/gcc/arm-none-eabi/4.2.3/../../../../arm-none-eabi/lib\libc.a(lib_a-impure.o)
                                  0x4 (size before relaxing)
 *fill*         0x0000ac46        0x2 00
 .rodata        0x0000ac48       0x68 c:/program files (x86)/codesourcery/sourcery g++ lite/bin/../lib/gcc/arm-none-eabi/4.2.3/../../../../arm-none-eabi/lib\libc.a(lib_a-mktm_r.o)
 .rodata        0x0000acb0       0x20 c:/program files (x86)/codesourcery/sourcery g++ lite/bin/../lib/gcc/arm-none-eabi/4.2.3/../../../../arm-none-eabi/lib\libc.a(lib_a-vfiprintf.o)
 .rodata.str1.4
                0x0000acd0       0x4c c:/program files (x86)/codesourcery/sourcery g++ lite/bin/../lib/gcc/arm-none-eabi/4.2.3/../../../../arm-none-eabi/lib\libc.a(lib_a-vfiprintf.o)
 .rodata        0x0000ad1c      0x100 c:/program files (x86)/codesourcery/sourcery g++ lite/bin/../lib/gcc/arm-none-eabi/4.2.3\libgcc.a(_clz.o)
                0x0000ad1c                __clz_tab
 *(.ARM.extab* .gnu.linkonce.armextab.*)
 *(.gcc_except_table)
 *(.eh_frame_hdr)
 *(.eh_frame)
 .eh_frame      0x0000ae1c        0x0 c:/program files (x86)/codesourcery/sourcery g++ lite/bin/../lib/gcc/arm-none-eabi/4.2.3/crtbegin.o
                0x0000ae1c                . = ALIGN (0x4)
 *(.init)
 .init          0x0000ae1c        0xc c:/program files (x86)/codesourcery/sourcery g++ lite/bin/../lib/gcc/arm-none-eabi/4.2.3/crti.o
                0x0000ae1c                _init
 .init          0x0000ae28        0xc c:/program files (x86)/codesourcery/sourcery g++ lite/bin/../lib/gcc/arm-none-eabi/4.2.3/crtn.o
                0x0000ae34                . = ALIGN (0x4)
                0x0000ae34                __preinit_array_start = .
 *(.preinit_array)
                0x0000ae34                __preinit_array_end = .
                0x0000ae34                . = ALIGN (0x4)
                0x0000ae34                __init_array_start = .
 *(SORT(.init_array.*))
 .init_array.00000
                0x0000ae34        0x4 c:/program files (x86)/codesourcery/sourcery g++ lite/bin/../lib/gcc/arm-none-eabi/4.2.3/../../../../arm-none-eabi/lib\libc.a(lib_a-__call_atexit.o)
 *(.init_array)
 .init_array    0x0000ae38        0x4 c:/program files (x86)/codesourcery/sourcery g++ lite/bin/../lib/gcc/arm-none-eabi/4.2.3/crtbegin.o
                0x0000ae3c                __init_array_end = .
                0x0000ae3c                . = ALIGN (0x4)
 *crtbegin.o(.ctors)
 *(EXCLUDE_FILE(*crtend.o) .ctors)
 *(SORT(.ctors.*))
 *crtend.o(.ctors)
                0x0000ae3c                . = ALIGN (0x4)
 *(.fini)
 .fini          0x0000ae3c        0xc c:/program files (x86)/codesourcery/sourcery g++ lite/bin/../lib/gcc/arm-none-eabi/4.2.3/crti.o
                0x0000ae3c                _fini
 .fini          0x0000ae48        0xc c:/program files (x86)/codesourcery/sourcery g++ lite/bin/../lib/gcc/arm-none-eabi/4.2.3/crtn.o
                0x0000ae54                . = ALIGN (0x4)
                0x0000ae54                __fini_array_start = .
 *(.fini_array)
 .fini_array    0x0000ae54        0x4 c:/program files (x86)/codesourcery/sourcery g++ lite/bin/../lib/gcc/arm-none-eabi/4.2.3/crtbegin.o
 *(SORT(.fini_array.*))
                0x0000ae58                __fini_array_end = .
 *crtbegin.o(.dtors)
 *(EXCLUDE_FILE(*crtend.o) .dtors)
 *(SORT(.dtors.*))
 *crtend.o(.dtors)
                0x0000ae58                __exidx_start = .

.v4_bx          0x0000ae58        0x0
 .v4_bx         0x0000ae58        0x0 c:/program files (x86)/codesourcery/sourcery g++ lite/bin/../lib/gcc/arm-none-eabi/4.2.3/crti.o
 .v4_bx         0x0000ae58        0x0 c:/program files (x86)/codesourcery/sourcery g++ lite/bin/../lib/gcc/arm-none-eabi/4.2.3/crtbegin.o
 .v4_bx         0x0000ae58        0x0 lpc2106-cmucam3_buildfiles/main.o
 .v4_bx         0x0000ae58        0x0 ../../lib/cc3-ilp\libcc3-ilp_lpc2106-cmucam3.a(cc3_img_writer.o)
 .v4_bx         0x0000ae58        0x0 ../../lib/cc3-ilp\libcc3-ilp_lpc2106-cmucam3.a(cc3_hsv.o)
 .v4_bx         0x0000ae58        0x0 ../../lib/cc3-ilp\libcc3-ilp_lpc2106-cmucam3.a(cc3_ilp.o)
 .v4_bx         0x0000ae58        0x0 ../../hal/lpc2106-cmucam3\libhal-lpc2106-cmucam3.a(interrupt.o)
 .v4_bx         0x0000ae58        0x0 ../../hal/lpc2106-cmucam3\libhal-lpc2106-cmucam3.a(cc3.o)
 .v4_bx         0x0000ae58        0x0 ../../hal/lpc2106-cmucam3\libhal-lpc2106-cmucam3.a(cc3_hal.o)
 .v4_bx         0x0000ae58        0x0 ../../hal/lpc2106-cmucam3\libhal-lpc2106-cmucam3.a(syscalls.o)
 .v4_bx         0x0000ae58        0x0 ../../hal/lpc2106-cmucam3\libhal-lpc2106-cmucam3.a(serial.o)
 .v4_bx         0x0000ae58        0x0 ../../hal/lpc2106-cmucam3\libhal-lpc2106-cmucam3.a(servo.o)
 .v4_bx         0x0000ae58        0x0 ../../hal/lpc2106-cmucam3\libhal-lpc2106-cmucam3.a(rdcf2.o)
 .v4_bx         0x0000ae58        0x0 ../../hal/lpc2106-cmucam3\libhal-lpc2106-cmucam3.a(mmc_hardware.o)
 .v4_bx         0x0000ae58        0x0 ../../hal/lpc2106-cmucam3\libhal-lpc2106-cmucam3.a(mmc_driver.o)
 .v4_bx         0x0000ae58        0x0 ../../hal/lpc2106-cmucam3\libhal-lpc2106-cmucam3.a(gpio.o)
 .v4_bx         0x0000ae58        0x0 ../../hal/lpc2106-cmucam3\libhal-lpc2106-cmucam3.a(devices.o)
 .v4_bx         0x0000ae58        0x0 ../../hal/lpc2106-cmucam3\libhal-lpc2106-cmucam3.a(uart_driver.o)
 .v4_bx         0x0000ae58        0x0 ../../hal/lpc2106-cmucam3\libhal-lpc2106-cmucam3.a(startup.o)
 .v4_bx         0x0000ae58        0x0 c:/program files (x86)/codesourcery/sourcery g++ lite/bin/../lib/gcc/arm-none-eabi/4.2.3\libgcc.a(_udivsi3.o)
 .v4_bx         0x0000ae58        0x0 c:/program files (x86)/codesourcery/sourcery g++ lite/bin/../lib/gcc/arm-none-eabi/4.2.3\libgcc.a(_divsi3.o)
 .v4_bx         0x0000ae58        0x0 c:/program files (x86)/codesourcery/sourcery g++ lite/bin/../lib/gcc/arm-none-eabi/4.2.3\libgcc.a(_dvmd_tls.o)
 .v4_bx         0x0000ae58        0x0 c:/program files (x86)/codesourcery/sourcery g++ lite/bin/../lib/gcc/arm-none-eabi/4.2.3/../../../../arm-none-eabi/lib\libc.a(lib_a-calloc.o)
 .v4_bx         0x0000ae58        0x0 c:/program files (x86)/codesourcery/sourcery g++ lite/bin/../lib/gcc/arm-none-eabi/4.2.3/../../../../arm-none-eabi/lib\libc.a(lib_a-callocr.o)
 .v4_bx         0x0000ae58        0x0 c:/program files (x86)/codesourcery/sourcery g++ lite/bin/../lib/gcc/arm-none-eabi/4.2.3/../../../../arm-none-eabi/lib\libc.a(lib_a-ctype_.o)
 .v4_bx         0x0000ae58        0x0 c:/program files (x86)/codesourcery/sourcery g++ lite/bin/../lib/gcc/arm-none-eabi/4.2.3/../../../../arm-none-eabi/lib\libc.a(lib_a-exit.o)
 .v4_bx         0x0000ae58        0x0 c:/program files (x86)/codesourcery/sourcery g++ lite/bin/../lib/gcc/arm-none-eabi/4.2.3/../../../../arm-none-eabi/lib\libc.a(lib_a-fclose.o)
 .v4_bx         0x0000ae58        0x0 c:/program files (x86)/codesourcery/sourcery g++ lite/bin/../lib/gcc/arm-none-eabi/4.2.3/../../../../arm-none-eabi/lib\libc.a(lib_a-fflush.o)
 .v4_bx         0x0000ae58        0x0 c:/program files (x86)/codesourcery/sourcery g++ lite/bin/../lib/gcc/arm-none-eabi/4.2.3/../../../../arm-none-eabi/lib\libc.a(lib_a-findfp.o)
 .v4_bx         0x0000ae58        0x0 c:/program files (x86)/codesourcery/sourcery g++ lite/bin/../lib/gcc/arm-none-eabi/4.2.3/../../../../arm-none-eabi/lib\libc.a(lib_a-fiprintf.o)
 .v4_bx         0x0000ae58        0x0 c:/program files (x86)/codesourcery/sourcery g++ lite/bin/../lib/gcc/arm-none-eabi/4.2.3/../../../../arm-none-eabi/lib\libc.a(lib_a-fopen.o)
 .v4_bx         0x0000ae58        0x0 c:/program files (x86)/codesourcery/sourcery g++ lite/bin/../lib/gcc/arm-none-eabi/4.2.3/../../../../arm-none-eabi/lib\libc.a(lib_a-freer.o)
 .v4_bx         0x0000ae58        0x0 c:/program files (x86)/codesourcery/sourcery g++ lite/bin/../lib/gcc/arm-none-eabi/4.2.3/../../../../arm-none-eabi/lib\libc.a(lib_a-fseek.o)
 .v4_bx         0x0000ae58        0x0 c:/program files (x86)/codesourcery/sourcery g++ lite/bin/../lib/gcc/arm-none-eabi/4.2.3/../../../../arm-none-eabi/lib\libc.a(lib_a-fstatr.o)
 .v4_bx         0x0000ae58        0x0 c:/program files (x86)/codesourcery/sourcery g++ lite/bin/../lib/gcc/arm-none-eabi/4.2.3/../../../../arm-none-eabi/lib\libc.a(lib_a-fwalk.o)
 .v4_bx         0x0000ae58        0x0 c:/program files (x86)/codesourcery/sourcery g++ lite/bin/../lib/gcc/arm-none-eabi/4.2.3/../../../../arm-none-eabi/lib\libc.a(lib_a-gets.o)
 .v4_bx         0x0000ae58        0x0 c:/program files (x86)/codesourcery/sourcery g++ lite/bin/../lib/gcc/arm-none-eabi/4.2.3/../../../../arm-none-eabi/lib\libc.a(lib_a-impure.o)
 .v4_bx         0x0000ae58        0x0 c:/program files (x86)/codesourcery/sourcery g++ lite/bin/../lib/gcc/arm-none-eabi/4.2.3/../../../../arm-none-eabi/lib\libc.a(lib_a-iprintf.o)
 .v4_bx         0x0000ae58        0x0 c:/program files (x86)/codesourcery/sourcery g++ lite/bin/../lib/gcc/arm-none-eabi/4.2.3/../../../../arm-none-eabi/lib\libc.a(lib_a-lcltime_r.o)
 .v4_bx         0x0000ae58        0x0 c:/program files (x86)/codesourcery/sourcery g++ lite/bin/../lib/gcc/arm-none-eabi/4.2.3/../../../../arm-none-eabi/lib\libc.a(lib_a-makebuf.o)
 .v4_bx         0x0000ae58        0x0 c:/program files (x86)/codesourcery/sourcery g++ lite/bin/../lib/gcc/arm-none-eabi/4.2.3/../../../../arm-none-eabi/lib\libc.a(lib_a-malloc.o)
 .v4_bx         0x0000ae58        0x0 c:/program files (x86)/codesourcery/sourcery g++ lite/bin/../lib/gcc/arm-none-eabi/4.2.3/../../../../arm-none-eabi/lib\libc.a(lib_a-mallocr.o)
 .v4_bx         0x0000ae58        0x0 c:/program files (x86)/codesourcery/sourcery g++ lite/bin/../lib/gcc/arm-none-eabi/4.2.3/../../../../arm-none-eabi/lib\libc.a(lib_a-memcmp.o)
 .v4_bx         0x0000ae58        0x0 c:/program files (x86)/codesourcery/sourcery g++ lite/bin/../lib/gcc/arm-none-eabi/4.2.3/../../../../arm-none-eabi/lib\libc.a(lib_a-memcpy.o)
 .v4_bx         0x0000ae58        0x0 c:/program files (x86)/codesourcery/sourcery g++ lite/bin/../lib/gcc/arm-none-eabi/4.2.3/../../../../arm-none-eabi/lib\libc.a(lib_a-memset.o)
 .v4_bx         0x0000ae58        0x0 c:/program files (x86)/codesourcery/sourcery g++ lite/bin/../lib/gcc/arm-none-eabi/4.2.3/../../../../arm-none-eabi/lib\libc.a(lib_a-mktm_r.o)
 .v4_bx         0x0000ae58        0x0 c:/program files (x86)/codesourcery/sourcery g++ lite/bin/../lib/gcc/arm-none-eabi/4.2.3/../../../../arm-none-eabi/lib\libc.a(lib_a-mlock.o)
 .v4_bx         0x0000ae58        0x0 c:/program files (x86)/codesourcery/sourcery g++ lite/bin/../lib/gcc/arm-none-eabi/4.2.3/../../../../arm-none-eabi/lib\libc.a(lib_a-openr.o)
 .v4_bx         0x0000ae58        0x0 c:/program files (x86)/codesourcery/sourcery g++ lite/bin/../lib/gcc/arm-none-eabi/4.2.3/../../../../arm-none-eabi/lib\libc.a(lib_a-reent.o)
 .v4_bx         0x0000ae58        0x0 c:/program files (x86)/codesourcery/sourcery g++ lite/bin/../lib/gcc/arm-none-eabi/4.2.3/../../../../arm-none-eabi/lib\libc.a(lib_a-refill.o)
 .v4_bx         0x0000ae58        0x0 c:/program files (x86)/codesourcery/sourcery g++ lite/bin/../lib/gcc/arm-none-eabi/4.2.3/../../../../arm-none-eabi/lib\libc.a(lib_a-rget.o)
 .v4_bx         0x0000ae58        0x0 c:/program files (x86)/codesourcery/sourcery g++ lite/bin/../lib/gcc/arm-none-eabi/4.2.3/../../../../arm-none-eabi/lib\libc.a(lib_a-sbrkr.o)
 .v4_bx         0x0000ae58        0x0 c:/program files (x86)/codesourcery/sourcery g++ lite/bin/../lib/gcc/arm-none-eabi/4.2.3/../../../../arm-none-eabi/lib\libc.a(lib_a-setbuf.o)
 .v4_bx         0x0000ae58        0x0 c:/program files (x86)/codesourcery/sourcery g++ lite/bin/../lib/gcc/arm-none-eabi/4.2.3/../../../../arm-none-eabi/lib\libc.a(lib_a-setjmp.o)
 .v4_bx         0x0000ae58        0x0 c:/program files (x86)/codesourcery/sourcery g++ lite/bin/../lib/gcc/arm-none-eabi/4.2.3/../../../../arm-none-eabi/lib\libc.a(lib_a-setvbuf.o)
 .v4_bx         0x0000ae58        0x0 c:/program files (x86)/codesourcery/sourcery g++ lite/bin/../lib/gcc/arm-none-eabi/4.2.3/../../../../arm-none-eabi/lib\libc.a(lib_a-siprintf.o)
 .v4_bx         0x0000ae58        0x0 c:/program files (x86)/codesourcery/sourcery g++ lite/bin/../lib/gcc/arm-none-eabi/4.2.3/../../../../arm-none-eabi/lib\libc.a(lib_a-sniprintf.o)
 .v4_bx         0x0000ae58        0x0 c:/program files (x86)/codesourcery/sourcery g++ lite/bin/../lib/gcc/arm-none-eabi/4.2.3/../../../../arm-none-eabi/lib\libc.a(lib_a-stdio.o)
 .v4_bx         0x0000ae58        0x0 c:/program files (x86)/codesourcery/sourcery g++ lite/bin/../lib/gcc/arm-none-eabi/4.2.3/../../../../arm-none-eabi/lib\libc.a(lib_a-strdup.o)
 .v4_bx         0x0000ae58        0x0 c:/program files (x86)/codesourcery/sourcery g++ lite/bin/../lib/gcc/arm-none-eabi/4.2.3/../../../../arm-none-eabi/lib\libc.a(lib_a-strdup_r.o)
 .v4_bx         0x0000ae58        0x0 c:/program files (x86)/codesourcery/sourcery g++ lite/bin/../lib/gcc/arm-none-eabi/4.2.3/../../../../arm-none-eabi/lib\libc.a(lib_a-strlen.o)
 .v4_bx         0x0000ae58        0x0 c:/program files (x86)/codesourcery/sourcery g++ lite/bin/../lib/gcc/arm-none-eabi/4.2.3/../../../../arm-none-eabi/lib\libc.a(lib_a-strtol.o)
 .v4_bx         0x0000ae58        0x0 c:/program files (x86)/codesourcery/sourcery g++ lite/bin/../lib/gcc/arm-none-eabi/4.2.3/../../../../arm-none-eabi/lib\libc.a(lib_a-sysgettod.o)
 .v4_bx         0x0000ae58        0x0 c:/program files (x86)/codesourcery/sourcery g++ lite/bin/../lib/gcc/arm-none-eabi/4.2.3/../../../../arm-none-eabi/lib\libc.a(lib_a-tzlock.o)
 .v4_bx         0x0000ae58        0x0 c:/program files (x86)/codesourcery/sourcery g++ lite/bin/../lib/gcc/arm-none-eabi/4.2.3/../../../../arm-none-eabi/lib\libc.a(lib_a-tzvars.o)
 .v4_bx         0x0000ae58        0x0 c:/program files (x86)/codesourcery/sourcery g++ lite/bin/../lib/gcc/arm-none-eabi/4.2.3/../../../../arm-none-eabi/lib\libc.a(lib_a-vfiprintf.o)
 .v4_bx         0x0000ae58        0x0 c:/program files (x86)/codesourcery/sourcery g++ lite/bin/../lib/gcc/arm-none-eabi/4.2.3/../../../../arm-none-eabi/lib\libc.a(lib_a-writer.o)
 .v4_bx         0x0000ae58        0x0 c:/program files (x86)/codesourcery/sourcery g++ lite/bin/../lib/gcc/arm-none-eabi/4.2.3/../../../../arm-none-eabi/lib\libc.a(lib_a-wsetup.o)
 .v4_bx         0x0000ae58        0x0 c:/program files (x86)/codesourcery/sourcery g++ lite/bin/../lib/gcc/arm-none-eabi/4.2.3/../../../../arm-none-eabi/lib\libc.a(lib_a-__call_atexit.o)
 .v4_bx         0x0000ae58        0x0 c:/program files (x86)/codesourcery/sourcery g++ lite/bin/../lib/gcc/arm-none-eabi/4.2.3/../../../../arm-none-eabi/lib\libc.a(lib_a-atexit.o)
 .v4_bx         0x0000ae58        0x0 c:/program files (x86)/codesourcery/sourcery g++ lite/bin/../lib/gcc/arm-none-eabi/4.2.3/../../../../arm-none-eabi/lib\libc.a(lib_a-closer.o)
 .v4_bx         0x0000ae58        0x0 c:/program files (x86)/codesourcery/sourcery g++ lite/bin/../lib/gcc/arm-none-eabi/4.2.3/../../../../arm-none-eabi/lib\libc.a(lib_a-fini.o)
 .v4_bx         0x0000ae58        0x0 c:/program files (x86)/codesourcery/sourcery g++ lite/bin/../lib/gcc/arm-none-eabi/4.2.3/../../../../arm-none-eabi/lib\libc.a(lib_a-flags.o)
 .v4_bx         0x0000ae58        0x0 c:/program files (x86)/codesourcery/sourcery g++ lite/bin/../lib/gcc/arm-none-eabi/4.2.3/../../../../arm-none-eabi/lib\libc.a(lib_a-fvwrite.o)
 .v4_bx         0x0000ae58        0x0 c:/program files (x86)/codesourcery/sourcery g++ lite/bin/../lib/gcc/arm-none-eabi/4.2.3/../../../../arm-none-eabi/lib\libc.a(lib_a-getchar.o)
 .v4_bx         0x0000ae58        0x0 c:/program files (x86)/codesourcery/sourcery g++ lite/bin/../lib/gcc/arm-none-eabi/4.2.3/../../../../arm-none-eabi/lib\libc.a(lib_a-gettimeofdayr.o)
 .v4_bx         0x0000ae58        0x0 c:/program files (x86)/codesourcery/sourcery g++ lite/bin/../lib/gcc/arm-none-eabi/4.2.3/../../../../arm-none-eabi/lib\libc.a(lib_a-gettzinfo.o)
 .v4_bx         0x0000ae58        0x0 c:/program files (x86)/codesourcery/sourcery g++ lite/bin/../lib/gcc/arm-none-eabi/4.2.3/../../../../arm-none-eabi/lib\libc.a(lib_a-isattyr.o)
 .v4_bx         0x0000ae58        0x0 c:/program files (x86)/codesourcery/sourcery g++ lite/bin/../lib/gcc/arm-none-eabi/4.2.3/../../../../arm-none-eabi/lib\libc.a(lib_a-lseekr.o)
 .v4_bx         0x0000ae58        0x0 c:/program files (x86)/codesourcery/sourcery g++ lite/bin/../lib/gcc/arm-none-eabi/4.2.3/../../../../arm-none-eabi/lib\libc.a(lib_a-memchr.o)
 .v4_bx         0x0000ae58        0x0 c:/program files (x86)/codesourcery/sourcery g++ lite/bin/../lib/gcc/arm-none-eabi/4.2.3/../../../../arm-none-eabi/lib\libc.a(lib_a-memmove.o)
 .v4_bx         0x0000ae58        0x0 c:/program files (x86)/codesourcery/sourcery g++ lite/bin/../lib/gcc/arm-none-eabi/4.2.3/../../../../arm-none-eabi/lib\libc.a(lib_a-readr.o)
 .v4_bx         0x0000ae58        0x0 c:/program files (x86)/codesourcery/sourcery g++ lite/bin/../lib/gcc/arm-none-eabi/4.2.3/../../../../arm-none-eabi/lib\libc.a(lib_a-reallocr.o)
 .v4_bx         0x0000ae58        0x0 c:/program files (x86)/codesourcery/sourcery g++ lite/bin/../lib/gcc/arm-none-eabi/4.2.3/../../../../arm-none-eabi/lib\libc.a(lib_a-__atexit.o)
 .v4_bx         0x0000ae58        0x0 c:/program files (x86)/codesourcery/sourcery g++ lite/bin/../lib/gcc/arm-none-eabi/4.2.3/../../../../arm-none-eabi/lib\libc.a(lib_a-getc.o)
 .v4_bx         0x0000ae58        0x0 c:/program files (x86)/codesourcery/sourcery g++ lite/bin/../lib/gcc/arm-none-eabi/4.2.3\libgcc.a(_aeabi_uldivmod.o)
 .v4_bx         0x0000ae58        0x0 c:/program files (x86)/codesourcery/sourcery g++ lite/bin/../lib/gcc/arm-none-eabi/4.2.3\libgcc.a(bpabi.o)
 .v4_bx         0x0000ae58        0x0 c:/program files (x86)/codesourcery/sourcery g++ lite/bin/../lib/gcc/arm-none-eabi/4.2.3\libgcc.a(_divdi3.o)
 .v4_bx         0x0000ae58        0x0 c:/program files (x86)/codesourcery/sourcery g++ lite/bin/../lib/gcc/arm-none-eabi/4.2.3\libgcc.a(_udivdi3.o)
 .v4_bx         0x0000ae58        0x0 c:/program files (x86)/codesourcery/sourcery g++ lite/bin/../lib/gcc/arm-none-eabi/4.2.3\libgcc.a(_clz.o)
 .v4_bx         0x0000ae58        0x0 c:/program files (x86)/codesourcery/sourcery g++ lite/bin/../lib/gcc/arm-none-eabi/4.2.3/crtend.o
 .v4_bx         0x0000ae58        0x0 c:/program files (x86)/codesourcery/sourcery g++ lite/bin/../lib/gcc/arm-none-eabi/4.2.3/crtn.o

.ARM.exidx      0x0000ae58       0x10
 *(.ARM.exidx* .gnu.linkonce.armexidx.*)
 .ARM.exidx     0x0000ae58        0x8 c:/program files (x86)/codesourcery/sourcery g++ lite/bin/../lib/gcc/arm-none-eabi/4.2.3\libgcc.a(_divdi3.o)
 .ARM.exidx     0x0000ae60        0x8 c:/program files (x86)/codesourcery/sourcery g++ lite/bin/../lib/gcc/arm-none-eabi/4.2.3\libgcc.a(_udivdi3.o)
                0x0000ae68                __exidx_end = .

.text.align     0x0000ae68        0x0
                0x0000ae68                . = ALIGN (0x8)
                0x0000ae68                _etext = .

.stack          0x40000000     0x2400
                0x40002400                . = (. + STACK_SIZE)
 *fill*         0x40000000     0x2400 00
                0x40002400                _stack = .

.data           0x40002400      0x870 load address 0x0000ae68
                0x40002400                _data = .
 *(.jcr)
 .jcr           0x40002400        0x0 c:/program files (x86)/codesourcery/sourcery g++ lite/bin/../lib/gcc/arm-none-eabi/4.2.3/crtbegin.o
 .jcr           0x40002400        0x4 c:/program files (x86)/codesourcery/sourcery g++ lite/bin/../lib/gcc/arm-none-eabi/4.2.3/crtend.o
 *(.got.plt)
 *(.got)
 *(.shdata)
 *(.data .data.* .gnu.linkonce.d.*)
 .data.servo_val
                0x40002404        0x4 ../../hal/lpc2106-cmucam3\libhal-lpc2106-cmucam3.a(servo.o)
 .data.device_driver_table
                0x40002408        0x8 ../../hal/lpc2106-cmucam3\libhal-lpc2106-cmucam3.a(devices.o)
 .data          0x40002410        0x4 c:/program files (x86)/codesourcery/sourcery g++ lite/bin/../lib/gcc/arm-none-eabi/4.2.3/../../../../arm-none-eabi/lib\libc.a(lib_a-ctype_.o)
                0x40002410                __ctype_ptr
 *fill*         0x40002414        0x4 00
 .data          0x40002418      0x408 c:/program files (x86)/codesourcery/sourcery g++ lite/bin/../lib/gcc/arm-none-eabi/4.2.3/../../../../arm-none-eabi/lib\libc.a(lib_a-impure.o)
                0x40002418                _impure_ptr
 .data          0x40002820      0x410 c:/program files (x86)/codesourcery/sourcery g++ lite/bin/../lib/gcc/arm-none-eabi/4.2.3/../../../../arm-none-eabi/lib\libc.a(lib_a-mallocr.o)
                0x40002c28                __malloc_sbrk_base
                0x40002820                __malloc_av_
                0x40002c2c                __malloc_trim_threshold
 .data          0x40002c30       0x40 c:/program files (x86)/codesourcery/sourcery g++ lite/bin/../lib/gcc/arm-none-eabi/4.2.3/../../../../arm-none-eabi/lib\libc.a(lib_a-gettzinfo.o)
 *(.ram)
                0x40002c70                . = ALIGN (0x8)
                0x40002c70                _edata = .

.bss            0x40002c70       0xe0
                0x40002c70                _bss = .
 *(.shbss)
 *(.bss .bss.* .gnu.linkonce.b.*)
 .bss           0x40002c70       0x1c c:/program files (x86)/codesourcery/sourcery g++ lite/bin/../lib/gcc/arm-none-eabi/4.2.3/crtbegin.o
 .bss.img       0x40002c8c        0xc lpc2106-cmucam3_buildfiles/main.o
                0x40002c8c                img
 .bss.row       0x40002c98        0x4 lpc2106-cmucam3_buildfiles/main.o
                0x40002c98                row
 .bss._cc3_button_trigger
                0x40002c9c        0x1 ../../hal/lpc2106-cmucam3\libhal-lpc2106-cmucam3.a(interrupt.o)
                0x40002c9c                _cc3_button_trigger
 *fill*         0x40002c9d        0x1 00
 .bss._cc3_g_current_camera_state
                0x40002c9e        0xa ../../hal/lpc2106-cmucam3\libhal-lpc2106-cmucam3.a(cc3.o)
 .bss.cc3_g_pixbuf_frame
                0x40002ca8       0x18 ../../hal/lpc2106-cmucam3\libhal-lpc2106-cmucam3.a(cc3.o)
                0x40002ca8                cc3_g_pixbuf_frame
 .bss._cc3_second_green_valid
                0x40002cc0        0x1 ../../hal/lpc2106-cmucam3\libhal-lpc2106-cmucam3.a(cc3.o)
 .bss._cc3_second_green
                0x40002cc1        0x1 ../../hal/lpc2106-cmucam3\libhal-lpc2106-cmucam3.a(cc3.o)
 *fill*         0x40002cc2        0x2 00
 .bss.heap_ptr  0x40002cc4        0x4 ../../hal/lpc2106-cmucam3\libhal-lpc2106-cmucam3.a(syscalls.o)
 .bss._cc3_uart1_binmode
                0x40002cc8        0x1 ../../hal/lpc2106-cmucam3\libhal-lpc2106-cmucam3.a(serial.o)
                0x40002cc8                _cc3_uart1_binmode
 .bss.started.2339
                0x40002cc9        0x1 ../../hal/lpc2106-cmucam3\libhal-lpc2106-cmucam3.a(serial.o)
 .bss._cc3_uart0_binmode
                0x40002cca        0x1 ../../hal/lpc2106-cmucam3\libhal-lpc2106-cmucam3.a(serial.o)
                0x40002cca                _cc3_uart0_binmode
 *fill*         0x40002ccb        0x1 00
 .bss.servo_mask
                0x40002ccc        0x4 ../../hal/lpc2106-cmucam3\libhal-lpc2106-cmucam3.a(servo.o)
 .bss.servo_tmp
                0x40002cd0        0x4 ../../hal/lpc2106-cmucam3\libhal-lpc2106-cmucam3.a(servo.o)
 .bss.DriveDesc
                0x40002cd4       0x28 ../../hal/lpc2106-cmucam3\libhal-lpc2106-cmucam3.a(mmc_hardware.o)
                0x40002cd4                DriveDesc
 .bss.fcbs      0x40002cfc       0x14 ../../hal/lpc2106-cmucam3\libhal-lpc2106-cmucam3.a(mmc_driver.o)
 .bss           0x40002d10       0x34 c:/program files (x86)/codesourcery/sourcery g++ lite/bin/../lib/gcc/arm-none-eabi/4.2.3/../../../../arm-none-eabi/lib\libc.a(lib_a-mallocr.o)
                0x40002d10                __malloc_top_pad
                0x40002d3c                __malloc_max_sbrked_mem
                0x40002d14                __malloc_current_mallinfo
                0x40002d40                __malloc_max_total_mem
 .bss           0x40002d44        0x8 c:/program files (x86)/codesourcery/sourcery g++ lite/bin/../lib/gcc/arm-none-eabi/4.2.3/../../../../arm-none-eabi/lib\libc.a(lib_a-tzvars.o)
                0x40002d44                _daylight
                0x40002d48                _timezone
 *(COMMON)
 COMMON         0x40002d4c        0x4 c:/program files (x86)/codesourcery/sourcery g++ lite/bin/../lib/gcc/arm-none-eabi/4.2.3/../../../../arm-none-eabi/lib\libc.a(lib_a-reent.o)
                0x40002d4c                errno
 *(.ram.b)
                0x40002d50                . = ALIGN (0x8)
                0x40002d50                _end = .
                0x40002d50                __end = .
                0x40010000                _heap_end = 0x40010000

.stab
 *(.stab)

.stabstr
 *(.stabstr)

.debug
 *(.debug)

.line
 *(.line)

.debug_srcinfo
 *(.debug_srcinfo)

.debug_sfnames
 *(.debug_sfnames)

.debug_aranges  0x00000000      0x6e8
 *(.debug_aranges)
 .debug_aranges
                0x00000000       0x40 lpc2106-cmucam3_buildfiles/main.o
 .debug_aranges
                0x00000040       0x30 ../../lib/cc3-ilp\libcc3-ilp_lpc2106-cmucam3.a(cc3_img_writer.o)
 .debug_aranges
                0x00000070       0x28 ../../lib/cc3-ilp\libcc3-ilp_lpc2106-cmucam3.a(cc3_hsv.o)
 .debug_aranges
                0x00000098       0x30 ../../lib/cc3-ilp\libcc3-ilp_lpc2106-cmucam3.a(cc3_ilp.o)
 .debug_aranges
                0x000000c8       0x78 ../../hal/lpc2106-cmucam3\libhal-lpc2106-cmucam3.a(interrupt.o)
 .debug_aranges
                0x00000140       0xf8 ../../hal/lpc2106-cmucam3\libhal-lpc2106-cmucam3.a(cc3.o)
 .debug_aranges
                0x00000238       0x48 ../../hal/lpc2106-cmucam3\libhal-lpc2106-cmucam3.a(cc3_hal.o)
 .debug_aranges
                0x00000280       0xc0 ../../hal/lpc2106-cmucam3\libhal-lpc2106-cmucam3.a(syscalls.o)
 .debug_aranges
                0x00000340       0x88 ../../hal/lpc2106-cmucam3\libhal-lpc2106-cmucam3.a(serial.o)
 .debug_aranges
                0x000003c8       0x40 ../../hal/lpc2106-cmucam3\libhal-lpc2106-cmucam3.a(servo.o)
 .debug_aranges
                0x00000408      0x108 ../../hal/lpc2106-cmucam3\libhal-lpc2106-cmucam3.a(rdcf2.o)
 .debug_aranges
                0x00000510       0x68 ../../hal/lpc2106-cmucam3\libhal-lpc2106-cmucam3.a(mmc_hardware.o)
 .debug_aranges
                0x00000578       0x70 ../../hal/lpc2106-cmucam3\libhal-lpc2106-cmucam3.a(mmc_driver.o)
 .debug_aranges
                0x000005e8       0x38 ../../hal/lpc2106-cmucam3\libhal-lpc2106-cmucam3.a(gpio.o)
 .debug_aranges
                0x00000620       0x40 ../../hal/lpc2106-cmucam3\libhal-lpc2106-cmucam3.a(devices.o)
 .debug_aranges
                0x00000660       0x68 ../../hal/lpc2106-cmucam3\libhal-lpc2106-cmucam3.a(uart_driver.o)
 .debug_aranges
                0x000006c8       0x20 ../../hal/lpc2106-cmucam3\libhal-lpc2106-cmucam3.a(startup.o)

.debug_pubnames
                0x00000000      0xaea
 *(.debug_pubnames)
 .debug_pubnames
                0x00000000       0x6e lpc2106-cmucam3_buildfiles/main.o
 .debug_pubnames
                0x0000006e       0x5c ../../lib/cc3-ilp\libcc3-ilp_lpc2106-cmucam3.a(cc3_img_writer.o)
 .debug_pubnames
                0x000000ca       0x36 ../../lib/cc3-ilp\libcc3-ilp_lpc2106-cmucam3.a(cc3_hsv.o)
 .debug_pubnames
                0x00000100       0x4c ../../lib/cc3-ilp\libcc3-ilp_lpc2106-cmucam3.a(cc3_ilp.o)
 .debug_pubnames
                0x0000014c      0x113 ../../hal/lpc2106-cmucam3\libhal-lpc2106-cmucam3.a(interrupt.o)
 .debug_pubnames
                0x0000025f      0x2cc ../../hal/lpc2106-cmucam3\libhal-lpc2106-cmucam3.a(cc3.o)
 .debug_pubnames
                0x0000052b       0x97 ../../hal/lpc2106-cmucam3\libhal-lpc2106-cmucam3.a(cc3_hal.o)
 .debug_pubnames
                0x000005c2       0xf1 ../../hal/lpc2106-cmucam3\libhal-lpc2106-cmucam3.a(syscalls.o)
 .debug_pubnames
                0x000006b3      0x140 ../../hal/lpc2106-cmucam3\libhal-lpc2106-cmucam3.a(serial.o)
 .debug_pubnames
                0x000007f3       0x8e ../../hal/lpc2106-cmucam3\libhal-lpc2106-cmucam3.a(servo.o)
 .debug_pubnames
                0x00000881       0x93 ../../hal/lpc2106-cmucam3\libhal-lpc2106-cmucam3.a(rdcf2.o)
 .debug_pubnames
                0x00000914       0x75 ../../hal/lpc2106-cmucam3\libhal-lpc2106-cmucam3.a(mmc_hardware.o)
 .debug_pubnames
                0x00000989       0x26 ../../hal/lpc2106-cmucam3\libhal-lpc2106-cmucam3.a(mmc_driver.o)
 .debug_pubnames
                0x000009af       0x6d ../../hal/lpc2106-cmucam3\libhal-lpc2106-cmucam3.a(gpio.o)
 .debug_pubnames
                0x00000a1c       0xa7 ../../hal/lpc2106-cmucam3\libhal-lpc2106-cmucam3.a(devices.o)
 .debug_pubnames
                0x00000ac3       0x27 ../../hal/lpc2106-cmucam3\libhal-lpc2106-cmucam3.a(uart_driver.o)

.debug_info     0x00000000     0x85c2
 *(.debug_info .gnu.linkonce.wi.*)
 .debug_info    0x00000000      0xe86 lpc2106-cmucam3_buildfiles/main.o
 .debug_info    0x00000e86      0xbb4 ../../lib/cc3-ilp\libcc3-ilp_lpc2106-cmucam3.a(cc3_img_writer.o)
 .debug_info    0x00001a3a      0x21f ../../lib/cc3-ilp\libcc3-ilp_lpc2106-cmucam3.a(cc3_hsv.o)
 .debug_info    0x00001c59      0x1fa ../../lib/cc3-ilp\libcc3-ilp_lpc2106-cmucam3.a(cc3_ilp.o)
 .debug_info    0x00001e53      0x1e5 ../../hal/lpc2106-cmucam3\libhal-lpc2106-cmucam3.a(interrupt.o)
 .debug_info    0x00002038     0x14c4 ../../hal/lpc2106-cmucam3\libhal-lpc2106-cmucam3.a(cc3.o)
 .debug_info    0x000034fc      0x137 ../../hal/lpc2106-cmucam3\libhal-lpc2106-cmucam3.a(cc3_hal.o)
 .debug_info    0x00003633      0xa9b ../../hal/lpc2106-cmucam3\libhal-lpc2106-cmucam3.a(syscalls.o)
 .debug_info    0x000040ce      0xd1f ../../hal/lpc2106-cmucam3\libhal-lpc2106-cmucam3.a(serial.o)
 .debug_info    0x00004ded      0x26f ../../hal/lpc2106-cmucam3\libhal-lpc2106-cmucam3.a(servo.o)
 .debug_info    0x0000505c     0x1292 ../../hal/lpc2106-cmucam3\libhal-lpc2106-cmucam3.a(rdcf2.o)
 .debug_info    0x000062ee      0x7aa ../../hal/lpc2106-cmucam3\libhal-lpc2106-cmucam3.a(mmc_hardware.o)
 .debug_info    0x00006a98      0xc30 ../../hal/lpc2106-cmucam3\libhal-lpc2106-cmucam3.a(mmc_driver.o)
 .debug_info    0x000076c8      0x18d ../../hal/lpc2106-cmucam3\libhal-lpc2106-cmucam3.a(gpio.o)
 .debug_info    0x00007855      0x573 ../../hal/lpc2106-cmucam3\libhal-lpc2106-cmucam3.a(devices.o)
 .debug_info    0x00007dc8      0x781 ../../hal/lpc2106-cmucam3\libhal-lpc2106-cmucam3.a(uart_driver.o)
 .debug_info    0x00008549       0x79 ../../hal/lpc2106-cmucam3\libhal-lpc2106-cmucam3.a(startup.o)

.debug_abbrev   0x00000000     0x1fb1
 *(.debug_abbrev)
 .debug_abbrev  0x00000000      0x26b lpc2106-cmucam3_buildfiles/main.o
 .debug_abbrev  0x0000026b      0x1e5 ../../lib/cc3-ilp\libcc3-ilp_lpc2106-cmucam3.a(cc3_img_writer.o)
 .debug_abbrev  0x00000450      0x153 ../../lib/cc3-ilp\libcc3-ilp_lpc2106-cmucam3.a(cc3_hsv.o)
 .debug_abbrev  0x000005a3       0xfd ../../lib/cc3-ilp\libcc3-ilp_lpc2106-cmucam3.a(cc3_ilp.o)
 .debug_abbrev  0x000006a0       0xf5 ../../hal/lpc2106-cmucam3\libhal-lpc2106-cmucam3.a(interrupt.o)
 .debug_abbrev  0x00000795      0x403 ../../hal/lpc2106-cmucam3\libhal-lpc2106-cmucam3.a(cc3.o)
 .debug_abbrev  0x00000b98       0x82 ../../hal/lpc2106-cmucam3\libhal-lpc2106-cmucam3.a(cc3_hal.o)
 .debug_abbrev  0x00000c1a      0x2b5 ../../hal/lpc2106-cmucam3\libhal-lpc2106-cmucam3.a(syscalls.o)
 .debug_abbrev  0x00000ecf      0x28b ../../hal/lpc2106-cmucam3\libhal-lpc2106-cmucam3.a(serial.o)
 .debug_abbrev  0x0000115a      0x160 ../../hal/lpc2106-cmucam3\libhal-lpc2106-cmucam3.a(servo.o)
 .debug_abbrev  0x000012ba      0x312 ../../hal/lpc2106-cmucam3\libhal-lpc2106-cmucam3.a(rdcf2.o)
 .debug_abbrev  0x000015cc      0x321 ../../hal/lpc2106-cmucam3\libhal-lpc2106-cmucam3.a(mmc_hardware.o)
 .debug_abbrev  0x000018ed      0x262 ../../hal/lpc2106-cmucam3\libhal-lpc2106-cmucam3.a(mmc_driver.o)
 .debug_abbrev  0x00001b4f      0x114 ../../hal/lpc2106-cmucam3\libhal-lpc2106-cmucam3.a(gpio.o)
 .debug_abbrev  0x00001c63      0x187 ../../hal/lpc2106-cmucam3\libhal-lpc2106-cmucam3.a(devices.o)
 .debug_abbrev  0x00001dea      0x1b3 ../../hal/lpc2106-cmucam3\libhal-lpc2106-cmucam3.a(uart_driver.o)
 .debug_abbrev  0x00001f9d       0x14 ../../hal/lpc2106-cmucam3\libhal-lpc2106-cmucam3.a(startup.o)

.debug_line     0x00000000     0x2db1
 *(.debug_line)
 .debug_line    0x00000000      0x2e8 lpc2106-cmucam3_buildfiles/main.o
 .debug_line    0x000002e8      0x288 ../../lib/cc3-ilp\libcc3-ilp_lpc2106-cmucam3.a(cc3_img_writer.o)
 .debug_line    0x00000570      0x14c ../../lib/cc3-ilp\libcc3-ilp_lpc2106-cmucam3.a(cc3_hsv.o)
 .debug_line    0x000006bc      0x12f ../../lib/cc3-ilp\libcc3-ilp_lpc2106-cmucam3.a(cc3_ilp.o)
 .debug_line    0x000007eb      0x1d9 ../../hal/lpc2106-cmucam3\libhal-lpc2106-cmucam3.a(interrupt.o)
 .debug_line    0x000009c4      0x6a7 ../../hal/lpc2106-cmucam3\libhal-lpc2106-cmucam3.a(cc3.o)
 .debug_line    0x0000106b       0xe8 ../../hal/lpc2106-cmucam3\libhal-lpc2106-cmucam3.a(cc3_hal.o)
 .debug_line    0x00001153      0x3c2 ../../hal/lpc2106-cmucam3\libhal-lpc2106-cmucam3.a(syscalls.o)
 .debug_line    0x00001515      0x35a ../../hal/lpc2106-cmucam3\libhal-lpc2106-cmucam3.a(serial.o)
 .debug_line    0x0000186f      0x16f ../../hal/lpc2106-cmucam3\libhal-lpc2106-cmucam3.a(servo.o)
 .debug_line    0x000019de      0x73f ../../hal/lpc2106-cmucam3\libhal-lpc2106-cmucam3.a(rdcf2.o)
 .debug_line    0x0000211d      0x268 ../../hal/lpc2106-cmucam3\libhal-lpc2106-cmucam3.a(mmc_hardware.o)
 .debug_line    0x00002385      0x3d8 ../../hal/lpc2106-cmucam3\libhal-lpc2106-cmucam3.a(mmc_driver.o)
 .debug_line    0x0000275d      0x13c ../../hal/lpc2106-cmucam3\libhal-lpc2106-cmucam3.a(gpio.o)
 .debug_line    0x00002899      0x22d ../../hal/lpc2106-cmucam3\libhal-lpc2106-cmucam3.a(devices.o)
 .debug_line    0x00002ac6      0x26b ../../hal/lpc2106-cmucam3\libhal-lpc2106-cmucam3.a(uart_driver.o)
 .debug_line    0x00002d31       0x80 ../../hal/lpc2106-cmucam3\libhal-lpc2106-cmucam3.a(startup.o)

.debug_frame    0x00000000     0x1fdc
 *(.debug_frame)
 .debug_frame   0x00000000       0x98 lpc2106-cmucam3_buildfiles/main.o
 .debug_frame   0x00000098       0x84 ../../lib/cc3-ilp\libcc3-ilp_lpc2106-cmucam3.a(cc3_img_writer.o)
 .debug_frame   0x0000011c       0x5c ../../lib/cc3-ilp\libcc3-ilp_lpc2106-cmucam3.a(cc3_hsv.o)
 .debug_frame   0x00000178       0x58 ../../lib/cc3-ilp\libcc3-ilp_lpc2106-cmucam3.a(cc3_ilp.o)
 .debug_frame   0x000001d0      0x100 ../../hal/lpc2106-cmucam3\libhal-lpc2106-cmucam3.a(interrupt.o)
 .debug_frame   0x000002d0      0x270 ../../hal/lpc2106-cmucam3\libhal-lpc2106-cmucam3.a(cc3.o)
 .debug_frame   0x00000540       0xac ../../hal/lpc2106-cmucam3\libhal-lpc2106-cmucam3.a(cc3_hal.o)
 .debug_frame   0x000005ec      0x1d0 ../../hal/lpc2106-cmucam3\libhal-lpc2106-cmucam3.a(syscalls.o)
 .debug_frame   0x000007bc      0x13c ../../hal/lpc2106-cmucam3\libhal-lpc2106-cmucam3.a(serial.o)
 .debug_frame   0x000008f8       0x78 ../../hal/lpc2106-cmucam3\libhal-lpc2106-cmucam3.a(servo.o)
 .debug_frame   0x00000970      0x35c ../../hal/lpc2106-cmucam3\libhal-lpc2106-cmucam3.a(rdcf2.o)
 .debug_frame   0x00000ccc      0x104 ../../hal/lpc2106-cmucam3\libhal-lpc2106-cmucam3.a(mmc_hardware.o)
 .debug_frame   0x00000dd0      0x128 ../../hal/lpc2106-cmucam3\libhal-lpc2106-cmucam3.a(mmc_driver.o)
 .debug_frame   0x00000ef8       0x58 ../../hal/lpc2106-cmucam3\libhal-lpc2106-cmucam3.a(gpio.o)
 .debug_frame   0x00000f50       0x70 ../../hal/lpc2106-cmucam3\libhal-lpc2106-cmucam3.a(devices.o)
 .debug_frame   0x00000fc0       0xe8 ../../hal/lpc2106-cmucam3\libhal-lpc2106-cmucam3.a(uart_driver.o)
 .debug_frame   0x000010a8       0x20 c:/program files (x86)/codesourcery/sourcery g++ lite/bin/../lib/gcc/arm-none-eabi/4.2.3\libgcc.a(_udivsi3.o)
 .debug_frame   0x000010c8       0x20 c:/program files (x86)/codesourcery/sourcery g++ lite/bin/../lib/gcc/arm-none-eabi/4.2.3\libgcc.a(_divsi3.o)
 .debug_frame   0x000010e8       0x28 c:/program files (x86)/codesourcery/sourcery g++ lite/bin/../lib/gcc/arm-none-eabi/4.2.3/../../../../arm-none-eabi/lib\libc.a(lib_a-calloc.o)
 .debug_frame   0x00001110       0x28 c:/program files (x86)/codesourcery/sourcery g++ lite/bin/../lib/gcc/arm-none-eabi/4.2.3/../../../../arm-none-eabi/lib\libc.a(lib_a-callocr.o)
 .debug_frame   0x00001138       0x20 c:/program files (x86)/codesourcery/sourcery g++ lite/bin/../lib/gcc/arm-none-eabi/4.2.3/../../../../arm-none-eabi/lib\libc.a(lib_a-exit.o)
 .debug_frame   0x00001158       0x3c c:/program files (x86)/codesourcery/sourcery g++ lite/bin/../lib/gcc/arm-none-eabi/4.2.3/../../../../arm-none-eabi/lib\libc.a(lib_a-fclose.o)
 .debug_frame   0x00001194       0x48 c:/program files (x86)/codesourcery/sourcery g++ lite/bin/../lib/gcc/arm-none-eabi/4.2.3/../../../../arm-none-eabi/lib\libc.a(lib_a-fflush.o)
 .debug_frame   0x000011dc      0x12c c:/program files (x86)/codesourcery/sourcery g++ lite/bin/../lib/gcc/arm-none-eabi/4.2.3/../../../../arm-none-eabi/lib\libc.a(lib_a-findfp.o)
 .debug_frame   0x00001308       0x54 c:/program files (x86)/codesourcery/sourcery g++ lite/bin/../lib/gcc/arm-none-eabi/4.2.3/../../../../arm-none-eabi/lib\libc.a(lib_a-fiprintf.o)
 .debug_frame   0x0000135c       0x40 c:/program files (x86)/codesourcery/sourcery g++ lite/bin/../lib/gcc/arm-none-eabi/4.2.3/../../../../arm-none-eabi/lib\libc.a(lib_a-fopen.o)
 .debug_frame   0x0000139c       0x50 c:/program files (x86)/codesourcery/sourcery g++ lite/bin/../lib/gcc/arm-none-eabi/4.2.3/../../../../arm-none-eabi/lib\libc.a(lib_a-freer.o)
 .debug_frame   0x000013ec       0x50 c:/program files (x86)/codesourcery/sourcery g++ lite/bin/../lib/gcc/arm-none-eabi/4.2.3/../../../../arm-none-eabi/lib\libc.a(lib_a-fseek.o)
 .debug_frame   0x0000143c       0x2c c:/program files (x86)/codesourcery/sourcery g++ lite/bin/../lib/gcc/arm-none-eabi/4.2.3/../../../../arm-none-eabi/lib\libc.a(lib_a-fstatr.o)
 .debug_frame   0x00001468       0x58 c:/program files (x86)/codesourcery/sourcery g++ lite/bin/../lib/gcc/arm-none-eabi/4.2.3/../../../../arm-none-eabi/lib\libc.a(lib_a-fwalk.o)
 .debug_frame   0x000014c0       0x3c c:/program files (x86)/codesourcery/sourcery g++ lite/bin/../lib/gcc/arm-none-eabi/4.2.3/../../../../arm-none-eabi/lib\libc.a(lib_a-gets.o)
 .debug_frame   0x000014fc       0x58 c:/program files (x86)/codesourcery/sourcery g++ lite/bin/../lib/gcc/arm-none-eabi/4.2.3/../../../../arm-none-eabi/lib\libc.a(lib_a-iprintf.o)
 .debug_frame   0x00001554       0x28 c:/program files (x86)/codesourcery/sourcery g++ lite/bin/../lib/gcc/arm-none-eabi/4.2.3/../../../../arm-none-eabi/lib\libc.a(lib_a-lcltime_r.o)
 .debug_frame   0x0000157c       0x30 c:/program files (x86)/codesourcery/sourcery g++ lite/bin/../lib/gcc/arm-none-eabi/4.2.3/../../../../arm-none-eabi/lib\libc.a(lib_a-makebuf.o)
 .debug_frame   0x000015ac       0x40 c:/program files (x86)/codesourcery/sourcery g++ lite/bin/../lib/gcc/arm-none-eabi/4.2.3/../../../../arm-none-eabi/lib\libc.a(lib_a-malloc.o)
 .debug_frame   0x000015ec       0x38 c:/program files (x86)/codesourcery/sourcery g++ lite/bin/../lib/gcc/arm-none-eabi/4.2.3/../../../../arm-none-eabi/lib\libc.a(lib_a-mallocr.o)
 .debug_frame   0x00001624       0x28 c:/program files (x86)/codesourcery/sourcery g++ lite/bin/../lib/gcc/arm-none-eabi/4.2.3/../../../../arm-none-eabi/lib\libc.a(lib_a-memcmp.o)
 .debug_frame   0x0000164c       0x28 c:/program files (x86)/codesourcery/sourcery g++ lite/bin/../lib/gcc/arm-none-eabi/4.2.3/../../../../arm-none-eabi/lib\libc.a(lib_a-memcpy.o)
 .debug_frame   0x00001674       0x20 c:/program files (x86)/codesourcery/sourcery g++ lite/bin/../lib/gcc/arm-none-eabi/4.2.3/../../../../arm-none-eabi/lib\libc.a(lib_a-memset.o)
 .debug_frame   0x00001694       0x60 c:/program files (x86)/codesourcery/sourcery g++ lite/bin/../lib/gcc/arm-none-eabi/4.2.3/../../../../arm-none-eabi/lib\libc.a(lib_a-mktm_r.o)
 .debug_frame   0x000016f4       0x30 c:/program files (x86)/codesourcery/sourcery g++ lite/bin/../lib/gcc/arm-none-eabi/4.2.3/../../../../arm-none-eabi/lib\libc.a(lib_a-mlock.o)
 .debug_frame   0x00001724       0x2c c:/program files (x86)/codesourcery/sourcery g++ lite/bin/../lib/gcc/arm-none-eabi/4.2.3/../../../../arm-none-eabi/lib\libc.a(lib_a-openr.o)
 .debug_frame   0x00001750       0x68 c:/program files (x86)/codesourcery/sourcery g++ lite/bin/../lib/gcc/arm-none-eabi/4.2.3/../../../../arm-none-eabi/lib\libc.a(lib_a-reent.o)
 .debug_frame   0x000017b8       0x44 c:/program files (x86)/codesourcery/sourcery g++ lite/bin/../lib/gcc/arm-none-eabi/4.2.3/../../../../arm-none-eabi/lib\libc.a(lib_a-refill.o)
 .debug_frame   0x000017fc       0x38 c:/program files (x86)/codesourcery/sourcery g++ lite/bin/../lib/gcc/arm-none-eabi/4.2.3/../../../../arm-none-eabi/lib\libc.a(lib_a-rget.o)
 .debug_frame   0x00001834       0x2c c:/program files (x86)/codesourcery/sourcery g++ lite/bin/../lib/gcc/arm-none-eabi/4.2.3/../../../../arm-none-eabi/lib\libc.a(lib_a-sbrkr.o)
 .debug_frame   0x00001860       0x28 c:/program files (x86)/codesourcery/sourcery g++ lite/bin/../lib/gcc/arm-none-eabi/4.2.3/../../../../arm-none-eabi/lib\libc.a(lib_a-setbuf.o)
 .debug_frame   0x00001888       0x34 c:/program files (x86)/codesourcery/sourcery g++ lite/bin/../lib/gcc/arm-none-eabi/4.2.3/../../../../arm-none-eabi/lib\libc.a(lib_a-setvbuf.o)
 .debug_frame   0x000018bc       0x5c c:/program files (x86)/codesourcery/sourcery g++ lite/bin/../lib/gcc/arm-none-eabi/4.2.3/../../../../arm-none-eabi/lib\libc.a(lib_a-siprintf.o)
 .debug_frame   0x00001918       0x5c c:/program files (x86)/codesourcery/sourcery g++ lite/bin/../lib/gcc/arm-none-eabi/4.2.3/../../../../arm-none-eabi/lib\libc.a(lib_a-sniprintf.o)
 .debug_frame   0x00001974       0x78 c:/program files (x86)/codesourcery/sourcery g++ lite/bin/../lib/gcc/arm-none-eabi/4.2.3/../../../../arm-none-eabi/lib\libc.a(lib_a-stdio.o)
 .debug_frame   0x000019ec       0x28 c:/program files (x86)/codesourcery/sourcery g++ lite/bin/../lib/gcc/arm-none-eabi/4.2.3/../../../../arm-none-eabi/lib\libc.a(lib_a-strdup.o)
 .debug_frame   0x00001a14       0x2c c:/program files (x86)/codesourcery/sourcery g++ lite/bin/../lib/gcc/arm-none-eabi/4.2.3/../../../../arm-none-eabi/lib\libc.a(lib_a-strdup_r.o)
 .debug_frame   0x00001a40       0x20 c:/program files (x86)/codesourcery/sourcery g++ lite/bin/../lib/gcc/arm-none-eabi/4.2.3/../../../../arm-none-eabi/lib\libc.a(lib_a-strlen.o)
 .debug_frame   0x00001a60       0x50 c:/program files (x86)/codesourcery/sourcery g++ lite/bin/../lib/gcc/arm-none-eabi/4.2.3/../../../../arm-none-eabi/lib\libc.a(lib_a-strtol.o)
 .debug_frame   0x00001ab0       0x28 c:/program files (x86)/codesourcery/sourcery g++ lite/bin/../lib/gcc/arm-none-eabi/4.2.3/../../../../arm-none-eabi/lib\libc.a(lib_a-sysgettod.o)
 .debug_frame   0x00001ad8       0x30 c:/program files (x86)/codesourcery/sourcery g++ lite/bin/../lib/gcc/arm-none-eabi/4.2.3/../../../../arm-none-eabi/lib\libc.a(lib_a-tzlock.o)
 .debug_frame   0x00001b08       0x70 c:/program files (x86)/codesourcery/sourcery g++ lite/bin/../lib/gcc/arm-none-eabi/4.2.3/../../../../arm-none-eabi/lib\libc.a(lib_a-vfiprintf.o)
 .debug_frame   0x00001b78       0x2c c:/program files (x86)/codesourcery/sourcery g++ lite/bin/../lib/gcc/arm-none-eabi/4.2.3/../../../../arm-none-eabi/lib\libc.a(lib_a-writer.o)
 .debug_frame   0x00001ba4       0x2c c:/program files (x86)/codesourcery/sourcery g++ lite/bin/../lib/gcc/arm-none-eabi/4.2.3/../../../../arm-none-eabi/lib\libc.a(lib_a-wsetup.o)
 .debug_frame   0x00001bd0       0x50 c:/program files (x86)/codesourcery/sourcery g++ lite/bin/../lib/gcc/arm-none-eabi/4.2.3/../../../../arm-none-eabi/lib\libc.a(lib_a-__call_atexit.o)
 .debug_frame   0x00001c20       0x28 c:/program files (x86)/codesourcery/sourcery g++ lite/bin/../lib/gcc/arm-none-eabi/4.2.3/../../../../arm-none-eabi/lib\libc.a(lib_a-atexit.o)
 .debug_frame   0x00001c48       0x2c c:/program files (x86)/codesourcery/sourcery g++ lite/bin/../lib/gcc/arm-none-eabi/4.2.3/../../../../arm-none-eabi/lib\libc.a(lib_a-closer.o)
 .debug_frame   0x00001c74       0x2c c:/program files (x86)/codesourcery/sourcery g++ lite/bin/../lib/gcc/arm-none-eabi/4.2.3/../../../../arm-none-eabi/lib\libc.a(lib_a-fini.o)
 .debug_frame   0x00001ca0       0x28 c:/program files (x86)/codesourcery/sourcery g++ lite/bin/../lib/gcc/arm-none-eabi/4.2.3/../../../../arm-none-eabi/lib\libc.a(lib_a-flags.o)
 .debug_frame   0x00001cc8       0x38 c:/program files (x86)/codesourcery/sourcery g++ lite/bin/../lib/gcc/arm-none-eabi/4.2.3/../../../../arm-none-eabi/lib\libc.a(lib_a-fvwrite.o)
 .debug_frame   0x00001d00       0x40 c:/program files (x86)/codesourcery/sourcery g++ lite/bin/../lib/gcc/arm-none-eabi/4.2.3/../../../../arm-none-eabi/lib\libc.a(lib_a-getchar.o)
 .debug_frame   0x00001d40       0x2c c:/program files (x86)/codesourcery/sourcery g++ lite/bin/../lib/gcc/arm-none-eabi/4.2.3/../../../../arm-none-eabi/lib\libc.a(lib_a-gettimeofdayr.o)
 .debug_frame   0x00001d6c       0x20 c:/program files (x86)/codesourcery/sourcery g++ lite/bin/../lib/gcc/arm-none-eabi/4.2.3/../../../../arm-none-eabi/lib\libc.a(lib_a-gettzinfo.o)
 .debug_frame   0x00001d8c       0x2c c:/program files (x86)/codesourcery/sourcery g++ lite/bin/../lib/gcc/arm-none-eabi/4.2.3/../../../../arm-none-eabi/lib\libc.a(lib_a-isattyr.o)
 .debug_frame   0x00001db8       0x2c c:/program files (x86)/codesourcery/sourcery g++ lite/bin/../lib/gcc/arm-none-eabi/4.2.3/../../../../arm-none-eabi/lib\libc.a(lib_a-lseekr.o)
 .debug_frame   0x00001de4       0x28 c:/program files (x86)/codesourcery/sourcery g++ lite/bin/../lib/gcc/arm-none-eabi/4.2.3/../../../../arm-none-eabi/lib\libc.a(lib_a-memchr.o)
 .debug_frame   0x00001e0c       0x2c c:/program files (x86)/codesourcery/sourcery g++ lite/bin/../lib/gcc/arm-none-eabi/4.2.3/../../../../arm-none-eabi/lib\libc.a(lib_a-memmove.o)
 .debug_frame   0x00001e38       0x2c c:/program files (x86)/codesourcery/sourcery g++ lite/bin/../lib/gcc/arm-none-eabi/4.2.3/../../../../arm-none-eabi/lib\libc.a(lib_a-readr.o)
 .debug_frame   0x00001e64       0x38 c:/program files (x86)/codesourcery/sourcery g++ lite/bin/../lib/gcc/arm-none-eabi/4.2.3/../../../../arm-none-eabi/lib\libc.a(lib_a-reallocr.o)
 .debug_frame   0x00001e9c       0x30 c:/program files (x86)/codesourcery/sourcery g++ lite/bin/../lib/gcc/arm-none-eabi/4.2.3/../../../../arm-none-eabi/lib\libc.a(lib_a-__atexit.o)
 .debug_frame   0x00001ecc       0x48 c:/program files (x86)/codesourcery/sourcery g++ lite/bin/../lib/gcc/arm-none-eabi/4.2.3/../../../../arm-none-eabi/lib\libc.a(lib_a-getc.o)
 .debug_frame   0x00001f14       0x58 c:/program files (x86)/codesourcery/sourcery g++ lite/bin/../lib/gcc/arm-none-eabi/4.2.3\libgcc.a(bpabi.o)
 .debug_frame   0x00001f6c       0x38 c:/program files (x86)/codesourcery/sourcery g++ lite/bin/../lib/gcc/arm-none-eabi/4.2.3\libgcc.a(_divdi3.o)
 .debug_frame   0x00001fa4       0x38 c:/program files (x86)/codesourcery/sourcery g++ lite/bin/../lib/gcc/arm-none-eabi/4.2.3\libgcc.a(_udivdi3.o)

.debug_str      0x00000000     0x2091
 *(.debug_str)
 .debug_str     0x00000000      0x947 lpc2106-cmucam3_buildfiles/main.o
                                0x9fc (size before relaxing)
 .debug_str     0x00000947       0xaf ../../lib/cc3-ilp\libcc3-ilp_lpc2106-cmucam3.a(cc3_img_writer.o)
                                0x5ef (size before relaxing)
 .debug_str     0x000009f6       0x36 ../../lib/cc3-ilp\libcc3-ilp_lpc2106-cmucam3.a(cc3_hsv.o)
                                0x1e5 (size before relaxing)
 .debug_str     0x00000a2c       0x47 ../../lib/cc3-ilp\libcc3-ilp_lpc2106-cmucam3.a(cc3_ilp.o)
                                0x16c (size before relaxing)
 .debug_str     0x00000a73      0x133 ../../hal/lpc2106-cmucam3\libhal-lpc2106-cmucam3.a(interrupt.o)
                                0x1e0 (size before relaxing)
 .debug_str     0x00000ba6      0x461 ../../hal/lpc2106-cmucam3\libhal-lpc2106-cmucam3.a(cc3.o)
                                0x83a (size before relaxing)
 .debug_str     0x00001007       0x77 ../../hal/lpc2106-cmucam3\libhal-lpc2106-cmucam3.a(cc3_hal.o)
                                0x158 (size before relaxing)
 .debug_str     0x0000107e      0x244 ../../hal/lpc2106-cmucam3\libhal-lpc2106-cmucam3.a(syscalls.o)
                                0x425 (size before relaxing)
 .debug_str     0x000012c2      0x15b ../../hal/lpc2106-cmucam3\libhal-lpc2106-cmucam3.a(serial.o)
                                0x80c (size before relaxing)
 .debug_str     0x0000141d       0xd9 ../../hal/lpc2106-cmucam3\libhal-lpc2106-cmucam3.a(servo.o)
                                0x1d7 (size before relaxing)
 .debug_str     0x000014f6      0x564 ../../hal/lpc2106-cmucam3\libhal-lpc2106-cmucam3.a(rdcf2.o)
                                0x7a5 (size before relaxing)
 .debug_str     0x00001a5a      0x358 ../../hal/lpc2106-cmucam3\libhal-lpc2106-cmucam3.a(mmc_hardware.o)
                                0x558 (size before relaxing)
 .debug_str     0x00001db2       0xb9 ../../hal/lpc2106-cmucam3\libhal-lpc2106-cmucam3.a(mmc_driver.o)
                                0x629 (size before relaxing)
 .debug_str     0x00001e6b       0xa7 ../../hal/lpc2106-cmucam3\libhal-lpc2106-cmucam3.a(gpio.o)
                                0x1b3 (size before relaxing)
 .debug_str     0x00001f12       0xb0 ../../hal/lpc2106-cmucam3\libhal-lpc2106-cmucam3.a(devices.o)
                                0x348 (size before relaxing)
 .debug_str     0x00001fc2       0xcf ../../hal/lpc2106-cmucam3\libhal-lpc2106-cmucam3.a(uart_driver.o)
                                0x3dd (size before relaxing)

.debug_loc      0x00000000     0x3936
 *(.debug_loc)
 .debug_loc     0x00000000      0x163 lpc2106-cmucam3_buildfiles/main.o
 .debug_loc     0x00000163      0x22d ../../lib/cc3-ilp\libcc3-ilp_lpc2106-cmucam3.a(cc3_img_writer.o)
 .debug_loc     0x00000390      0x16f ../../lib/cc3-ilp\libcc3-ilp_lpc2106-cmucam3.a(cc3_hsv.o)
 .debug_loc     0x000004ff      0x141 ../../lib/cc3-ilp\libcc3-ilp_lpc2106-cmucam3.a(cc3_ilp.o)
 .debug_loc     0x00000640       0xd4 ../../hal/lpc2106-cmucam3\libhal-lpc2106-cmucam3.a(interrupt.o)
 .debug_loc     0x00000714      0x8a8 ../../hal/lpc2106-cmucam3\libhal-lpc2106-cmucam3.a(cc3.o)
 .debug_loc     0x00000fbc       0xba ../../hal/lpc2106-cmucam3\libhal-lpc2106-cmucam3.a(cc3_hal.o)
 .debug_loc     0x00001076      0x61d ../../hal/lpc2106-cmucam3\libhal-lpc2106-cmucam3.a(syscalls.o)
 .debug_loc     0x00001693      0x343 ../../hal/lpc2106-cmucam3\libhal-lpc2106-cmucam3.a(serial.o)
 .debug_loc     0x000019d6      0x178 ../../hal/lpc2106-cmucam3\libhal-lpc2106-cmucam3.a(servo.o)
 .debug_loc     0x00001b4e     0x11bd ../../hal/lpc2106-cmucam3\libhal-lpc2106-cmucam3.a(rdcf2.o)
 .debug_loc     0x00002d0b      0x233 ../../hal/lpc2106-cmucam3\libhal-lpc2106-cmucam3.a(mmc_hardware.o)
 .debug_loc     0x00002f3e      0x51b ../../hal/lpc2106-cmucam3\libhal-lpc2106-cmucam3.a(mmc_driver.o)
 .debug_loc     0x00003459       0x97 ../../hal/lpc2106-cmucam3\libhal-lpc2106-cmucam3.a(gpio.o)
 .debug_loc     0x000034f0       0xbd ../../hal/lpc2106-cmucam3\libhal-lpc2106-cmucam3.a(devices.o)
 .debug_loc     0x000035ad      0x389 ../../hal/lpc2106-cmucam3\libhal-lpc2106-cmucam3.a(uart_driver.o)

.debug_macinfo
 *(.debug_macinfo)

.debug_weaknames
 *(.debug_weaknames)

.debug_funcnames
 *(.debug_funcnames)

.debug_typenames
 *(.debug_typenames)

.debug_varnames
 *(.debug_varnames)

.note.gnu.arm.ident
 *(.note.gnu.arm.ident)

.ARM.attributes
                0x00000000       0x2c
 *(.ARM.attributes)
 .ARM.attributes
                0x00000000       0x14 c:/program files (x86)/codesourcery/sourcery g++ lite/bin/../lib/gcc/arm-none-eabi/4.2.3/crti.o
 .ARM.attributes
                0x00000014       0x2e c:/program files (x86)/codesourcery/sourcery g++ lite/bin/../lib/gcc/arm-none-eabi/4.2.3/crtbegin.o
 .ARM.attributes
                0x00000042       0x30 lpc2106-cmucam3_buildfiles/main.o
 .ARM.attributes
                0x00000072       0x30 ../../lib/cc3-ilp\libcc3-ilp_lpc2106-cmucam3.a(cc3_img_writer.o)
 .ARM.attributes
                0x000000a2       0x30 ../../lib/cc3-ilp\libcc3-ilp_lpc2106-cmucam3.a(cc3_hsv.o)
 .ARM.attributes
                0x000000d2       0x30 ../../lib/cc3-ilp\libcc3-ilp_lpc2106-cmucam3.a(cc3_ilp.o)
 .ARM.attributes
                0x00000102       0x30 ../../hal/lpc2106-cmucam3\libhal-lpc2106-cmucam3.a(interrupt.o)
 .ARM.attributes
                0x00000132       0x30 ../../hal/lpc2106-cmucam3\libhal-lpc2106-cmucam3.a(cc3.o)
 .ARM.attributes
                0x00000162       0x30 ../../hal/lpc2106-cmucam3\libhal-lpc2106-cmucam3.a(cc3_hal.o)
 .ARM.attributes
                0x00000192       0x30 ../../hal/lpc2106-cmucam3\libhal-lpc2106-cmucam3.a(syscalls.o)
 .ARM.attributes
                0x000001c2       0x30 ../../hal/lpc2106-cmucam3\libhal-lpc2106-cmucam3.a(serial.o)
 .ARM.attributes
                0x000001f2       0x30 ../../hal/lpc2106-cmucam3\libhal-lpc2106-cmucam3.a(servo.o)
 .ARM.attributes
                0x00000222       0x30 ../../hal/lpc2106-cmucam3\libhal-lpc2106-cmucam3.a(rdcf2.o)
 .ARM.attributes
                0x00000252       0x30 ../../hal/lpc2106-cmucam3\libhal-lpc2106-cmucam3.a(mmc_hardware.o)
 .ARM.attributes
                0x00000282       0x30 ../../hal/lpc2106-cmucam3\libhal-lpc2106-cmucam3.a(mmc_driver.o)
 .ARM.attributes
                0x000002b2       0x30 ../../hal/lpc2106-cmucam3\libhal-lpc2106-cmucam3.a(gpio.o)
 .ARM.attributes
                0x000002e2       0x30 ../../hal/lpc2106-cmucam3\libhal-lpc2106-cmucam3.a(devices.o)
 .ARM.attributes
                0x00000312       0x30 ../../hal/lpc2106-cmucam3\libhal-lpc2106-cmucam3.a(uart_driver.o)
 .ARM.attributes
                0x00000342       0x20 ../../hal/lpc2106-cmucam3\libhal-lpc2106-cmucam3.a(startup.o)
 .ARM.attributes
                0x00000362       0x14 c:/program files (x86)/codesourcery/sourcery g++ lite/bin/../lib/gcc/arm-none-eabi/4.2.3\libgcc.a(_udivsi3.o)
 .ARM.attributes
                0x00000376       0x14 c:/program files (x86)/codesourcery/sourcery g++ lite/bin/../lib/gcc/arm-none-eabi/4.2.3\libgcc.a(_divsi3.o)
 .ARM.attributes
                0x0000038a       0x14 c:/program files (x86)/codesourcery/sourcery g++ lite/bin/../lib/gcc/arm-none-eabi/4.2.3\libgcc.a(_dvmd_tls.o)
 .ARM.attributes
                0x0000039e       0x2e c:/program files (x86)/codesourcery/sourcery g++ lite/bin/../lib/gcc/arm-none-eabi/4.2.3/../../../../arm-none-eabi/lib\libc.a(lib_a-calloc.o)
 .ARM.attributes
                0x000003cc       0x2e c:/program files (x86)/codesourcery/sourcery g++ lite/bin/../lib/gcc/arm-none-eabi/4.2.3/../../../../arm-none-eabi/lib\libc.a(lib_a-callocr.o)
 .ARM.attributes
                0x000003fa       0x2c c:/program files (x86)/codesourcery/sourcery g++ lite/bin/../lib/gcc/arm-none-eabi/4.2.3/../../../../arm-none-eabi/lib\libc.a(lib_a-ctype_.o)
 .ARM.attributes
                0x00000426       0x2e c:/program files (x86)/codesourcery/sourcery g++ lite/bin/../lib/gcc/arm-none-eabi/4.2.3/../../../../arm-none-eabi/lib\libc.a(lib_a-exit.o)
 .ARM.attributes
                0x00000454       0x2e c:/program files (x86)/codesourcery/sourcery g++ lite/bin/../lib/gcc/arm-none-eabi/4.2.3/../../../../arm-none-eabi/lib\libc.a(lib_a-fclose.o)
 .ARM.attributes
                0x00000482       0x2e c:/program files (x86)/codesourcery/sourcery g++ lite/bin/../lib/gcc/arm-none-eabi/4.2.3/../../../../arm-none-eabi/lib\libc.a(lib_a-fflush.o)
 .ARM.attributes
                0x000004b0       0x2e c:/program files (x86)/codesourcery/sourcery g++ lite/bin/../lib/gcc/arm-none-eabi/4.2.3/../../../../arm-none-eabi/lib\libc.a(lib_a-findfp.o)
 .ARM.attributes
                0x000004de       0x2e c:/program files (x86)/codesourcery/sourcery g++ lite/bin/../lib/gcc/arm-none-eabi/4.2.3/../../../../arm-none-eabi/lib\libc.a(lib_a-fiprintf.o)
 .ARM.attributes
                0x0000050c       0x2e c:/program files (x86)/codesourcery/sourcery g++ lite/bin/../lib/gcc/arm-none-eabi/4.2.3/../../../../arm-none-eabi/lib\libc.a(lib_a-fopen.o)
 .ARM.attributes
                0x0000053a       0x2e c:/program files (x86)/codesourcery/sourcery g++ lite/bin/../lib/gcc/arm-none-eabi/4.2.3/../../../../arm-none-eabi/lib\libc.a(lib_a-freer.o)
 .ARM.attributes
                0x00000568       0x2e c:/program files (x86)/codesourcery/sourcery g++ lite/bin/../lib/gcc/arm-none-eabi/4.2.3/../../../../arm-none-eabi/lib\libc.a(lib_a-fseek.o)
 .ARM.attributes
                0x00000596       0x2e c:/program files (x86)/codesourcery/sourcery g++ lite/bin/../lib/gcc/arm-none-eabi/4.2.3/../../../../arm-none-eabi/lib\libc.a(lib_a-fstatr.o)
 .ARM.attributes
                0x000005c4       0x2e c:/program files (x86)/codesourcery/sourcery g++ lite/bin/../lib/gcc/arm-none-eabi/4.2.3/../../../../arm-none-eabi/lib\libc.a(lib_a-fwalk.o)
 .ARM.attributes
                0x000005f2       0x2e c:/program files (x86)/codesourcery/sourcery g++ lite/bin/../lib/gcc/arm-none-eabi/4.2.3/../../../../arm-none-eabi/lib\libc.a(lib_a-gets.o)
 .ARM.attributes
                0x00000620       0x2c c:/program files (x86)/codesourcery/sourcery g++ lite/bin/../lib/gcc/arm-none-eabi/4.2.3/../../../../arm-none-eabi/lib\libc.a(lib_a-impure.o)
 .ARM.attributes
                0x0000064c       0x2e c:/program files (x86)/codesourcery/sourcery g++ lite/bin/../lib/gcc/arm-none-eabi/4.2.3/../../../../arm-none-eabi/lib\libc.a(lib_a-iprintf.o)
 .ARM.attributes
                0x0000067a       0x2e c:/program files (x86)/codesourcery/sourcery g++ lite/bin/../lib/gcc/arm-none-eabi/4.2.3/../../../../arm-none-eabi/lib\libc.a(lib_a-lcltime_r.o)
 .ARM.attributes
                0x000006a8       0x2e c:/program files (x86)/codesourcery/sourcery g++ lite/bin/../lib/gcc/arm-none-eabi/4.2.3/../../../../arm-none-eabi/lib\libc.a(lib_a-makebuf.o)
 .ARM.attributes
                0x000006d6       0x2e c:/program files (x86)/codesourcery/sourcery g++ lite/bin/../lib/gcc/arm-none-eabi/4.2.3/../../../../arm-none-eabi/lib\libc.a(lib_a-malloc.o)
 .ARM.attributes
                0x00000704       0x2e c:/program files (x86)/codesourcery/sourcery g++ lite/bin/../lib/gcc/arm-none-eabi/4.2.3/../../../../arm-none-eabi/lib\libc.a(lib_a-mallocr.o)
 .ARM.attributes
                0x00000732       0x2e c:/program files (x86)/codesourcery/sourcery g++ lite/bin/../lib/gcc/arm-none-eabi/4.2.3/../../../../arm-none-eabi/lib\libc.a(lib_a-memcmp.o)
 .ARM.attributes
                0x00000760       0x2e c:/program files (x86)/codesourcery/sourcery g++ lite/bin/../lib/gcc/arm-none-eabi/4.2.3/../../../../arm-none-eabi/lib\libc.a(lib_a-memcpy.o)
 .ARM.attributes
                0x0000078e       0x2e c:/program files (x86)/codesourcery/sourcery g++ lite/bin/../lib/gcc/arm-none-eabi/4.2.3/../../../../arm-none-eabi/lib\libc.a(lib_a-memset.o)
 .ARM.attributes
                0x000007bc       0x2e c:/program files (x86)/codesourcery/sourcery g++ lite/bin/../lib/gcc/arm-none-eabi/4.2.3/../../../../arm-none-eabi/lib\libc.a(lib_a-mktm_r.o)
 .ARM.attributes
                0x000007ea       0x2e c:/program files (x86)/codesourcery/sourcery g++ lite/bin/../lib/gcc/arm-none-eabi/4.2.3/../../../../arm-none-eabi/lib\libc.a(lib_a-mlock.o)
 .ARM.attributes
                0x00000818       0x2e c:/program files (x86)/codesourcery/sourcery g++ lite/bin/../lib/gcc/arm-none-eabi/4.2.3/../../../../arm-none-eabi/lib\libc.a(lib_a-openr.o)
 .ARM.attributes
                0x00000846       0x2e c:/program files (x86)/codesourcery/sourcery g++ lite/bin/../lib/gcc/arm-none-eabi/4.2.3/../../../../arm-none-eabi/lib\libc.a(lib_a-reent.o)
 .ARM.attributes
                0x00000874       0x2e c:/program files (x86)/codesourcery/sourcery g++ lite/bin/../lib/gcc/arm-none-eabi/4.2.3/../../../../arm-none-eabi/lib\libc.a(lib_a-refill.o)
 .ARM.attributes
                0x000008a2       0x2e c:/program files (x86)/codesourcery/sourcery g++ lite/bin/../lib/gcc/arm-none-eabi/4.2.3/../../../../arm-none-eabi/lib\libc.a(lib_a-rget.o)
 .ARM.attributes
                0x000008d0       0x2e c:/program files (x86)/codesourcery/sourcery g++ lite/bin/../lib/gcc/arm-none-eabi/4.2.3/../../../../arm-none-eabi/lib\libc.a(lib_a-sbrkr.o)
 .ARM.attributes
                0x000008fe       0x2e c:/program files (x86)/codesourcery/sourcery g++ lite/bin/../lib/gcc/arm-none-eabi/4.2.3/../../../../arm-none-eabi/lib\libc.a(lib_a-setbuf.o)
 .ARM.attributes
                0x0000092c       0x14 c:/program files (x86)/codesourcery/sourcery g++ lite/bin/../lib/gcc/arm-none-eabi/4.2.3/../../../../arm-none-eabi/lib\libc.a(lib_a-setjmp.o)
 .ARM.attributes
                0x00000940       0x2e c:/program files (x86)/codesourcery/sourcery g++ lite/bin/../lib/gcc/arm-none-eabi/4.2.3/../../../../arm-none-eabi/lib\libc.a(lib_a-setvbuf.o)
 .ARM.attributes
                0x0000096e       0x2e c:/program files (x86)/codesourcery/sourcery g++ lite/bin/../lib/gcc/arm-none-eabi/4.2.3/../../../../arm-none-eabi/lib\libc.a(lib_a-siprintf.o)
 .ARM.attributes
                0x0000099c       0x2e c:/program files (x86)/codesourcery/sourcery g++ lite/bin/../lib/gcc/arm-none-eabi/4.2.3/../../../../arm-none-eabi/lib\libc.a(lib_a-sniprintf.o)
 .ARM.attributes
                0x000009ca       0x2e c:/program files (x86)/codesourcery/sourcery g++ lite/bin/../lib/gcc/arm-none-eabi/4.2.3/../../../../arm-none-eabi/lib\libc.a(lib_a-stdio.o)
 .ARM.attributes
                0x000009f8       0x2e c:/program files (x86)/codesourcery/sourcery g++ lite/bin/../lib/gcc/arm-none-eabi/4.2.3/../../../../arm-none-eabi/lib\libc.a(lib_a-strdup.o)
 .ARM.attributes
                0x00000a26       0x2e c:/program files (x86)/codesourcery/sourcery g++ lite/bin/../lib/gcc/arm-none-eabi/4.2.3/../../../../arm-none-eabi/lib\libc.a(lib_a-strdup_r.o)
 .ARM.attributes
                0x00000a54       0x2e c:/program files (x86)/codesourcery/sourcery g++ lite/bin/../lib/gcc/arm-none-eabi/4.2.3/../../../../arm-none-eabi/lib\libc.a(lib_a-strlen.o)
 .ARM.attributes
                0x00000a82       0x2e c:/program files (x86)/codesourcery/sourcery g++ lite/bin/../lib/gcc/arm-none-eabi/4.2.3/../../../../arm-none-eabi/lib\libc.a(lib_a-strtol.o)
 .ARM.attributes
                0x00000ab0       0x2e c:/program files (x86)/codesourcery/sourcery g++ lite/bin/../lib/gcc/arm-none-eabi/4.2.3/../../../../arm-none-eabi/lib\libc.a(lib_a-sysgettod.o)
 .ARM.attributes
                0x00000ade       0x2e c:/program files (x86)/codesourcery/sourcery g++ lite/bin/../lib/gcc/arm-none-eabi/4.2.3/../../../../arm-none-eabi/lib\libc.a(lib_a-tzlock.o)
 .ARM.attributes
                0x00000b0c       0x2c c:/program files (x86)/codesourcery/sourcery g++ lite/bin/../lib/gcc/arm-none-eabi/4.2.3/../../../../arm-none-eabi/lib\libc.a(lib_a-tzvars.o)
 .ARM.attributes
                0x00000b38       0x2e c:/program files (x86)/codesourcery/sourcery g++ lite/bin/../lib/gcc/arm-none-eabi/4.2.3/../../../../arm-none-eabi/lib\libc.a(lib_a-vfiprintf.o)
 .ARM.attributes
                0x00000b66       0x2e c:/program files (x86)/codesourcery/sourcery g++ lite/bin/../lib/gcc/arm-none-eabi/4.2.3/../../../../arm-none-eabi/lib\libc.a(lib_a-writer.o)
 .ARM.attributes
                0x00000b94       0x2e c:/program files (x86)/codesourcery/sourcery g++ lite/bin/../lib/gcc/arm-none-eabi/4.2.3/../../../../arm-none-eabi/lib\libc.a(lib_a-wsetup.o)
 .ARM.attributes
                0x00000bc2       0x2e c:/program files (x86)/codesourcery/sourcery g++ lite/bin/../lib/gcc/arm-none-eabi/4.2.3/../../../../arm-none-eabi/lib\libc.a(lib_a-__call_atexit.o)
 .ARM.attributes
                0x00000bf0       0x2e c:/program files (x86)/codesourcery/sourcery g++ lite/bin/../lib/gcc/arm-none-eabi/4.2.3/../../../../arm-none-eabi/lib\libc.a(lib_a-atexit.o)
 .ARM.attributes
                0x00000c1e       0x2e c:/program files (x86)/codesourcery/sourcery g++ lite/bin/../lib/gcc/arm-none-eabi/4.2.3/../../../../arm-none-eabi/lib\libc.a(lib_a-closer.o)
 .ARM.attributes
                0x00000c4c       0x2e c:/program files (x86)/codesourcery/sourcery g++ lite/bin/../lib/gcc/arm-none-eabi/4.2.3/../../../../arm-none-eabi/lib\libc.a(lib_a-fini.o)
 .ARM.attributes
                0x00000c7a       0x2e c:/program files (x86)/codesourcery/sourcery g++ lite/bin/../lib/gcc/arm-none-eabi/4.2.3/../../../../arm-none-eabi/lib\libc.a(lib_a-flags.o)
 .ARM.attributes
                0x00000ca8       0x2e c:/program files (x86)/codesourcery/sourcery g++ lite/bin/../lib/gcc/arm-none-eabi/4.2.3/../../../../arm-none-eabi/lib\libc.a(lib_a-fvwrite.o)
 .ARM.attributes
                0x00000cd6       0x2e c:/program files (x86)/codesourcery/sourcery g++ lite/bin/../lib/gcc/arm-none-eabi/4.2.3/../../../../arm-none-eabi/lib\libc.a(lib_a-getchar.o)
 .ARM.attributes
                0x00000d04       0x2e c:/program files (x86)/codesourcery/sourcery g++ lite/bin/../lib/gcc/arm-none-eabi/4.2.3/../../../../arm-none-eabi/lib\libc.a(lib_a-gettimeofdayr.o)
 .ARM.attributes
                0x00000d32       0x2e c:/program files (x86)/codesourcery/sourcery g++ lite/bin/../lib/gcc/arm-none-eabi/4.2.3/../../../../arm-none-eabi/lib\libc.a(lib_a-gettzinfo.o)
 .ARM.attributes
                0x00000d60       0x2e c:/program files (x86)/codesourcery/sourcery g++ lite/bin/../lib/gcc/arm-none-eabi/4.2.3/../../../../arm-none-eabi/lib\libc.a(lib_a-isattyr.o)
 .ARM.attributes
                0x00000d8e       0x2e c:/program files (x86)/codesourcery/sourcery g++ lite/bin/../lib/gcc/arm-none-eabi/4.2.3/../../../../arm-none-eabi/lib\libc.a(lib_a-lseekr.o)
 .ARM.attributes
                0x00000dbc       0x2e c:/program files (x86)/codesourcery/sourcery g++ lite/bin/../lib/gcc/arm-none-eabi/4.2.3/../../../../arm-none-eabi/lib\libc.a(lib_a-memchr.o)
 .ARM.attributes
                0x00000dea       0x2e c:/program files (x86)/codesourcery/sourcery g++ lite/bin/../lib/gcc/arm-none-eabi/4.2.3/../../../../arm-none-eabi/lib\libc.a(lib_a-memmove.o)
 .ARM.attributes
                0x00000e18       0x2e c:/program files (x86)/codesourcery/sourcery g++ lite/bin/../lib/gcc/arm-none-eabi/4.2.3/../../../../arm-none-eabi/lib\libc.a(lib_a-readr.o)
 .ARM.attributes
                0x00000e46       0x2e c:/program files (x86)/codesourcery/sourcery g++ lite/bin/../lib/gcc/arm-none-eabi/4.2.3/../../../../arm-none-eabi/lib\libc.a(lib_a-reallocr.o)
 .ARM.attributes
                0x00000e74       0x2e c:/program files (x86)/codesourcery/sourcery g++ lite/bin/../lib/gcc/arm-none-eabi/4.2.3/../../../../arm-none-eabi/lib\libc.a(lib_a-__atexit.o)
 .ARM.attributes
                0x00000ea2       0x2e c:/program files (x86)/codesourcery/sourcery g++ lite/bin/../lib/gcc/arm-none-eabi/4.2.3/../../../../arm-none-eabi/lib\libc.a(lib_a-getc.o)
 .ARM.attributes
                0x00000ed0       0x14 c:/program files (x86)/codesourcery/sourcery g++ lite/bin/../lib/gcc/arm-none-eabi/4.2.3\libgcc.a(_aeabi_uldivmod.o)
 .ARM.attributes
                0x00000ee4       0x2e c:/program files (x86)/codesourcery/sourcery g++ lite/bin/../lib/gcc/arm-none-eabi/4.2.3\libgcc.a(bpabi.o)
 .ARM.attributes
                0x00000f12       0x2e c:/program files (x86)/codesourcery/sourcery g++ lite/bin/../lib/gcc/arm-none-eabi/4.2.3\libgcc.a(_divdi3.o)
 .ARM.attributes
                0x00000f40       0x2e c:/program files (x86)/codesourcery/sourcery g++ lite/bin/../lib/gcc/arm-none-eabi/4.2.3\libgcc.a(_udivdi3.o)
 .ARM.attributes
                0x00000f6e       0x2c c:/program files (x86)/codesourcery/sourcery g++ lite/bin/../lib/gcc/arm-none-eabi/4.2.3\libgcc.a(_clz.o)
 .ARM.attributes
                0x00000f9a       0x2c c:/program files (x86)/codesourcery/sourcery g++ lite/bin/../lib/gcc/arm-none-eabi/4.2.3/crtend.o
 .ARM.attributes
                0x00000fc6       0x14 c:/program files (x86)/codesourcery/sourcery g++ lite/bin/../lib/gcc/arm-none-eabi/4.2.3/crtn.o

/DISCARD/
 *(.note.GNU-stack)
OUTPUT(test_image_sdcard_lpc2106-cmucam3 elf32-littlearm)

.comment        0x00000000      0x2b0
 .comment       0x00000000       0x2b lpc2106-cmucam3_buildfiles/main.o
 .comment       0x0000002b       0x2b ../../lib/cc3-ilp\libcc3-ilp_lpc2106-cmucam3.a(cc3_img_writer.o)
 .comment       0x00000056       0x2b ../../lib/cc3-ilp\libcc3-ilp_lpc2106-cmucam3.a(cc3_hsv.o)
 .comment       0x00000081       0x2b ../../lib/cc3-ilp\libcc3-ilp_lpc2106-cmucam3.a(cc3_ilp.o)
 .comment       0x000000ac       0x2b ../../hal/lpc2106-cmucam3\libhal-lpc2106-cmucam3.a(interrupt.o)
 .comment       0x000000d7       0x2b ../../hal/lpc2106-cmucam3\libhal-lpc2106-cmucam3.a(cc3.o)
 .comment       0x00000102       0x2b ../../hal/lpc2106-cmucam3\libhal-lpc2106-cmucam3.a(cc3_hal.o)
 .comment       0x0000012d       0x2b ../../hal/lpc2106-cmucam3\libhal-lpc2106-cmucam3.a(syscalls.o)
 .comment       0x00000158       0x2b ../../hal/lpc2106-cmucam3\libhal-lpc2106-cmucam3.a(serial.o)
 .comment       0x00000183       0x2b ../../hal/lpc2106-cmucam3\libhal-lpc2106-cmucam3.a(servo.o)
 .comment       0x000001ae       0x2b ../../hal/lpc2106-cmucam3\libhal-lpc2106-cmucam3.a(rdcf2.o)
 .comment       0x000001d9       0x2b ../../hal/lpc2106-cmucam3\libhal-lpc2106-cmucam3.a(mmc_hardware.o)
 .comment       0x00000204       0x2b ../../hal/lpc2106-cmucam3\libhal-lpc2106-cmucam3.a(mmc_driver.o)
 .comment       0x0000022f       0x2b ../../hal/lpc2106-cmucam3\libhal-lpc2106-cmucam3.a(gpio.o)
 .comment       0x0000025a       0x2b ../../hal/lpc2106-cmucam3\libhal-lpc2106-cmucam3.a(devices.o)
 .comment       0x00000285       0x2b ../../hal/lpc2106-cmucam3\libhal-lpc2106-cmucam3.a(uart_driver.o)

.debug_ranges   0x00000000      0x938
 .debug_ranges  0x00000000       0x30 ../../lib/cc3-ilp\libcc3-ilp_lpc2106-cmucam3.a(cc3_hsv.o)
 .debug_ranges  0x00000030      0x648 ../../hal/lpc2106-cmucam3\libhal-lpc2106-cmucam3.a(cc3.o)
 .debug_ranges  0x00000678       0x18 ../../hal/lpc2106-cmucam3\libhal-lpc2106-cmucam3.a(servo.o)
 .debug_ranges  0x00000690      0x1b0 ../../hal/lpc2106-cmucam3\libhal-lpc2106-cmucam3.a(rdcf2.o)
 .debug_ranges  0x00000840       0xa0 ../../hal/lpc2106-cmucam3\libhal-lpc2106-cmucam3.a(mmc_hardware.o)
 .debug_ranges  0x000008e0       0x40 ../../hal/lpc2106-cmucam3\libhal-lpc2106-cmucam3.a(mmc_driver.o)
 .debug_ranges  0x00000920       0x18 ../../hal/lpc2106-cmucam3\libhal-lpc2106-cmucam3.a(uart_driver.o)

Cross Reference Table

Symbol                                            File
DriveDesc                                         ../../hal/lpc2106-cmucam3\libhal-lpc2106-cmucam3.a(mmc_hardware.o)
                                                  ../../hal/lpc2106-cmucam3\libhal-lpc2106-cmucam3.a(mmc_driver.o)
                                                  ../../hal/lpc2106-cmucam3\libhal-lpc2106-cmucam3.a(rdcf2.o)
GetHistogram                                      lpc2106-cmucam3_buildfiles/main.o
GetImage                                          lpc2106-cmucam3_buildfiles/main.o
ImageProcessing                                   lpc2106-cmucam3_buildfiles/main.o
Thresholding                                      lpc2106-cmucam3_buildfiles/main.o
_Jv_RegisterClasses                               c:/program files (x86)/codesourcery/sourcery g++ lite/bin/../lib/gcc/arm-none-eabi/4.2.3/crtbegin.o
__aeabi_idiv                                      c:/program files (x86)/codesourcery/sourcery g++ lite/bin/../lib/gcc/arm-none-eabi/4.2.3\libgcc.a(_divsi3.o)
                                                  ../../hal/lpc2106-cmucam3\libhal-lpc2106-cmucam3.a(cc3.o)
                                                  ../../lib/cc3-ilp\libcc3-ilp_lpc2106-cmucam3.a(cc3_hsv.o)
__aeabi_idiv0                                     c:/program files (x86)/codesourcery/sourcery g++ lite/bin/../lib/gcc/arm-none-eabi/4.2.3\libgcc.a(_dvmd_tls.o)
                                                  c:/program files (x86)/codesourcery/sourcery g++ lite/bin/../lib/gcc/arm-none-eabi/4.2.3\libgcc.a(_divsi3.o)
                                                  c:/program files (x86)/codesourcery/sourcery g++ lite/bin/../lib/gcc/arm-none-eabi/4.2.3\libgcc.a(_udivsi3.o)
__aeabi_idivmod                                   c:/program files (x86)/codesourcery/sourcery g++ lite/bin/../lib/gcc/arm-none-eabi/4.2.3\libgcc.a(_divsi3.o)
__aeabi_ldiv0                                     c:/program files (x86)/codesourcery/sourcery g++ lite/bin/../lib/gcc/arm-none-eabi/4.2.3\libgcc.a(_dvmd_tls.o)
                                                  c:/program files (x86)/codesourcery/sourcery g++ lite/bin/../lib/gcc/arm-none-eabi/4.2.3\libgcc.a(_aeabi_uldivmod.o)
__aeabi_uidiv                                     c:/program files (x86)/codesourcery/sourcery g++ lite/bin/../lib/gcc/arm-none-eabi/4.2.3\libgcc.a(_udivsi3.o)
                                                  c:/program files (x86)/codesourcery/sourcery g++ lite/bin/../lib/gcc/arm-none-eabi/4.2.3\libgcc.a(_udivdi3.o)
                                                  c:/program files (x86)/codesourcery/sourcery g++ lite/bin/../lib/gcc/arm-none-eabi/4.2.3\libgcc.a(_divdi3.o)
                                                  c:/program files (x86)/codesourcery/sourcery g++ lite/bin/../lib/gcc/arm-none-eabi/4.2.3/../../../../arm-none-eabi/lib\libc.a(lib_a-strtol.o)
                                                  ../../hal/lpc2106-cmucam3\libhal-lpc2106-cmucam3.a(rdcf2.o)
                                                  ../../hal/lpc2106-cmucam3\libhal-lpc2106-cmucam3.a(serial.o)
__aeabi_uidivmod                                  c:/program files (x86)/codesourcery/sourcery g++ lite/bin/../lib/gcc/arm-none-eabi/4.2.3\libgcc.a(_udivsi3.o)
                                                  c:/program files (x86)/codesourcery/sourcery g++ lite/bin/../lib/gcc/arm-none-eabi/4.2.3\libgcc.a(_udivdi3.o)
                                                  c:/program files (x86)/codesourcery/sourcery g++ lite/bin/../lib/gcc/arm-none-eabi/4.2.3\libgcc.a(_divdi3.o)
                                                  c:/program files (x86)/codesourcery/sourcery g++ lite/bin/../lib/gcc/arm-none-eabi/4.2.3/../../../../arm-none-eabi/lib\libc.a(lib_a-strtol.o)
                                                  ../../hal/lpc2106-cmucam3\libhal-lpc2106-cmucam3.a(rdcf2.o)
__aeabi_uldivmod                                  c:/program files (x86)/codesourcery/sourcery g++ lite/bin/../lib/gcc/arm-none-eabi/4.2.3\libgcc.a(_aeabi_uldivmod.o)
                                                  c:/program files (x86)/codesourcery/sourcery g++ lite/bin/../lib/gcc/arm-none-eabi/4.2.3/../../../../arm-none-eabi/lib\libc.a(lib_a-vfiprintf.o)
__call_exitprocs                                  c:/program files (x86)/codesourcery/sourcery g++ lite/bin/../lib/gcc/arm-none-eabi/4.2.3/../../../../arm-none-eabi/lib\libc.a(lib_a-__call_atexit.o)
                                                  c:/program files (x86)/codesourcery/sourcery g++ lite/bin/../lib/gcc/arm-none-eabi/4.2.3/../../../../arm-none-eabi/lib\libc.a(lib_a-exit.o)
__clz_tab                                         c:/program files (x86)/codesourcery/sourcery g++ lite/bin/../lib/gcc/arm-none-eabi/4.2.3\libgcc.a(_clz.o)
                                                  c:/program files (x86)/codesourcery/sourcery g++ lite/bin/../lib/gcc/arm-none-eabi/4.2.3\libgcc.a(_udivdi3.o)
                                                  c:/program files (x86)/codesourcery/sourcery g++ lite/bin/../lib/gcc/arm-none-eabi/4.2.3\libgcc.a(_divdi3.o)
__ctype_ptr                                       c:/program files (x86)/codesourcery/sourcery g++ lite/bin/../lib/gcc/arm-none-eabi/4.2.3/../../../../arm-none-eabi/lib\libc.a(lib_a-ctype_.o)
                                                  c:/program files (x86)/codesourcery/sourcery g++ lite/bin/../lib/gcc/arm-none-eabi/4.2.3/../../../../arm-none-eabi/lib\libc.a(lib_a-strtol.o)
                                                  ../../hal/lpc2106-cmucam3\libhal-lpc2106-cmucam3.a(rdcf2.o)
                                                  ../../hal/lpc2106-cmucam3\libhal-lpc2106-cmucam3.a(syscalls.o)
__deregister_frame_info                           c:/program files (x86)/codesourcery/sourcery g++ lite/bin/../lib/gcc/arm-none-eabi/4.2.3/crtbegin.o
__divdi3                                          c:/program files (x86)/codesourcery/sourcery g++ lite/bin/../lib/gcc/arm-none-eabi/4.2.3\libgcc.a(_divdi3.o)
                                                  c:/program files (x86)/codesourcery/sourcery g++ lite/bin/../lib/gcc/arm-none-eabi/4.2.3\libgcc.a(bpabi.o)
__divsi3                                          c:/program files (x86)/codesourcery/sourcery g++ lite/bin/../lib/gcc/arm-none-eabi/4.2.3\libgcc.a(_divsi3.o)
__dso_handle                                      c:/program files (x86)/codesourcery/sourcery g++ lite/bin/../lib/gcc/arm-none-eabi/4.2.3/crtbegin.o
__fini_array_end                                  c:/program files (x86)/codesourcery/sourcery g++ lite/bin/../lib/gcc/arm-none-eabi/4.2.3/../../../../arm-none-eabi/lib\libc.a(lib_a-fini.o)
__fini_array_start                                c:/program files (x86)/codesourcery/sourcery g++ lite/bin/../lib/gcc/arm-none-eabi/4.2.3/../../../../arm-none-eabi/lib\libc.a(lib_a-fini.o)
__fp_lock_all                                     c:/program files (x86)/codesourcery/sourcery g++ lite/bin/../lib/gcc/arm-none-eabi/4.2.3/../../../../arm-none-eabi/lib\libc.a(lib_a-findfp.o)
__fp_unlock_all                                   c:/program files (x86)/codesourcery/sourcery g++ lite/bin/../lib/gcc/arm-none-eabi/4.2.3/../../../../arm-none-eabi/lib\libc.a(lib_a-findfp.o)
__gettzinfo                                       c:/program files (x86)/codesourcery/sourcery g++ lite/bin/../lib/gcc/arm-none-eabi/4.2.3/../../../../arm-none-eabi/lib\libc.a(lib_a-gettzinfo.o)
                                                  c:/program files (x86)/codesourcery/sourcery g++ lite/bin/../lib/gcc/arm-none-eabi/4.2.3/../../../../arm-none-eabi/lib\libc.a(lib_a-mktm_r.o)
__gnu_ldivmod_helper                              c:/program files (x86)/codesourcery/sourcery g++ lite/bin/../lib/gcc/arm-none-eabi/4.2.3\libgcc.a(bpabi.o)
__gnu_uldivmod_helper                             c:/program files (x86)/codesourcery/sourcery g++ lite/bin/../lib/gcc/arm-none-eabi/4.2.3\libgcc.a(bpabi.o)
                                                  c:/program files (x86)/codesourcery/sourcery g++ lite/bin/../lib/gcc/arm-none-eabi/4.2.3\libgcc.a(_aeabi_uldivmod.o)
__libc_fini                                       c:/program files (x86)/codesourcery/sourcery g++ lite/bin/../lib/gcc/arm-none-eabi/4.2.3/../../../../arm-none-eabi/lib\libc.a(lib_a-__call_atexit.o)
__libc_fini_array                                 c:/program files (x86)/codesourcery/sourcery g++ lite/bin/../lib/gcc/arm-none-eabi/4.2.3/../../../../arm-none-eabi/lib\libc.a(lib_a-fini.o)
                                                  c:/program files (x86)/codesourcery/sourcery g++ lite/bin/../lib/gcc/arm-none-eabi/4.2.3/../../../../arm-none-eabi/lib\libc.a(lib_a-__call_atexit.o)
__malloc_av_                                      c:/program files (x86)/codesourcery/sourcery g++ lite/bin/../lib/gcc/arm-none-eabi/4.2.3/../../../../arm-none-eabi/lib\libc.a(lib_a-mallocr.o)
                                                  c:/program files (x86)/codesourcery/sourcery g++ lite/bin/../lib/gcc/arm-none-eabi/4.2.3/../../../../arm-none-eabi/lib\libc.a(lib_a-reallocr.o)
                                                  c:/program files (x86)/codesourcery/sourcery g++ lite/bin/../lib/gcc/arm-none-eabi/4.2.3/../../../../arm-none-eabi/lib\libc.a(lib_a-freer.o)
__malloc_current_mallinfo                         c:/program files (x86)/codesourcery/sourcery g++ lite/bin/../lib/gcc/arm-none-eabi/4.2.3/../../../../arm-none-eabi/lib\libc.a(lib_a-mallocr.o)
                                                  c:/program files (x86)/codesourcery/sourcery g++ lite/bin/../lib/gcc/arm-none-eabi/4.2.3/../../../../arm-none-eabi/lib\libc.a(lib_a-freer.o)
__malloc_lock                                     c:/program files (x86)/codesourcery/sourcery g++ lite/bin/../lib/gcc/arm-none-eabi/4.2.3/../../../../arm-none-eabi/lib\libc.a(lib_a-mlock.o)
                                                  c:/program files (x86)/codesourcery/sourcery g++ lite/bin/../lib/gcc/arm-none-eabi/4.2.3/../../../../arm-none-eabi/lib\libc.a(lib_a-reallocr.o)
                                                  c:/program files (x86)/codesourcery/sourcery g++ lite/bin/../lib/gcc/arm-none-eabi/4.2.3/../../../../arm-none-eabi/lib\libc.a(lib_a-mallocr.o)
                                                  c:/program files (x86)/codesourcery/sourcery g++ lite/bin/../lib/gcc/arm-none-eabi/4.2.3/../../../../arm-none-eabi/lib\libc.a(lib_a-freer.o)
__malloc_max_sbrked_mem                           c:/program files (x86)/codesourcery/sourcery g++ lite/bin/../lib/gcc/arm-none-eabi/4.2.3/../../../../arm-none-eabi/lib\libc.a(lib_a-mallocr.o)
__malloc_max_total_mem                            c:/program files (x86)/codesourcery/sourcery g++ lite/bin/../lib/gcc/arm-none-eabi/4.2.3/../../../../arm-none-eabi/lib\libc.a(lib_a-mallocr.o)
__malloc_sbrk_base                                c:/program files (x86)/codesourcery/sourcery g++ lite/bin/../lib/gcc/arm-none-eabi/4.2.3/../../../../arm-none-eabi/lib\libc.a(lib_a-mallocr.o)
                                                  c:/program files (x86)/codesourcery/sourcery g++ lite/bin/../lib/gcc/arm-none-eabi/4.2.3/../../../../arm-none-eabi/lib\libc.a(lib_a-freer.o)
__malloc_top_pad                                  c:/program files (x86)/codesourcery/sourcery g++ lite/bin/../lib/gcc/arm-none-eabi/4.2.3/../../../../arm-none-eabi/lib\libc.a(lib_a-mallocr.o)
                                                  c:/program files (x86)/codesourcery/sourcery g++ lite/bin/../lib/gcc/arm-none-eabi/4.2.3/../../../../arm-none-eabi/lib\libc.a(lib_a-freer.o)
__malloc_trim_threshold                           c:/program files (x86)/codesourcery/sourcery g++ lite/bin/../lib/gcc/arm-none-eabi/4.2.3/../../../../arm-none-eabi/lib\libc.a(lib_a-mallocr.o)
                                                  c:/program files (x86)/codesourcery/sourcery g++ lite/bin/../lib/gcc/arm-none-eabi/4.2.3/../../../../arm-none-eabi/lib\libc.a(lib_a-freer.o)
__malloc_unlock                                   c:/program files (x86)/codesourcery/sourcery g++ lite/bin/../lib/gcc/arm-none-eabi/4.2.3/../../../../arm-none-eabi/lib\libc.a(lib_a-mlock.o)
                                                  c:/program files (x86)/codesourcery/sourcery g++ lite/bin/../lib/gcc/arm-none-eabi/4.2.3/../../../../arm-none-eabi/lib\libc.a(lib_a-reallocr.o)
                                                  c:/program files (x86)/codesourcery/sourcery g++ lite/bin/../lib/gcc/arm-none-eabi/4.2.3/../../../../arm-none-eabi/lib\libc.a(lib_a-mallocr.o)
                                                  c:/program files (x86)/codesourcery/sourcery g++ lite/bin/../lib/gcc/arm-none-eabi/4.2.3/../../../../arm-none-eabi/lib\libc.a(lib_a-freer.o)
__register_exitproc                               c:/program files (x86)/codesourcery/sourcery g++ lite/bin/../lib/gcc/arm-none-eabi/4.2.3/../../../../arm-none-eabi/lib\libc.a(lib_a-__atexit.o)
                                                  c:/program files (x86)/codesourcery/sourcery g++ lite/bin/../lib/gcc/arm-none-eabi/4.2.3/../../../../arm-none-eabi/lib\libc.a(lib_a-atexit.o)
__register_frame_info                             c:/program files (x86)/codesourcery/sourcery g++ lite/bin/../lib/gcc/arm-none-eabi/4.2.3/crtbegin.o
__sclose                                          c:/program files (x86)/codesourcery/sourcery g++ lite/bin/../lib/gcc/arm-none-eabi/4.2.3/../../../../arm-none-eabi/lib\libc.a(lib_a-stdio.o)
                                                  c:/program files (x86)/codesourcery/sourcery g++ lite/bin/../lib/gcc/arm-none-eabi/4.2.3/../../../../arm-none-eabi/lib\libc.a(lib_a-fopen.o)
                                                  c:/program files (x86)/codesourcery/sourcery g++ lite/bin/../lib/gcc/arm-none-eabi/4.2.3/../../../../arm-none-eabi/lib\libc.a(lib_a-findfp.o)
__sflags                                          c:/program files (x86)/codesourcery/sourcery g++ lite/bin/../lib/gcc/arm-none-eabi/4.2.3/../../../../arm-none-eabi/lib\libc.a(lib_a-flags.o)
                                                  c:/program files (x86)/codesourcery/sourcery g++ lite/bin/../lib/gcc/arm-none-eabi/4.2.3/../../../../arm-none-eabi/lib\libc.a(lib_a-fopen.o)
__sfmoreglue                                      c:/program files (x86)/codesourcery/sourcery g++ lite/bin/../lib/gcc/arm-none-eabi/4.2.3/../../../../arm-none-eabi/lib\libc.a(lib_a-findfp.o)
__sfp                                             c:/program files (x86)/codesourcery/sourcery g++ lite/bin/../lib/gcc/arm-none-eabi/4.2.3/../../../../arm-none-eabi/lib\libc.a(lib_a-findfp.o)
                                                  c:/program files (x86)/codesourcery/sourcery g++ lite/bin/../lib/gcc/arm-none-eabi/4.2.3/../../../../arm-none-eabi/lib\libc.a(lib_a-fopen.o)
__sfp_lock_acquire                                c:/program files (x86)/codesourcery/sourcery g++ lite/bin/../lib/gcc/arm-none-eabi/4.2.3/../../../../arm-none-eabi/lib\libc.a(lib_a-findfp.o)
                                                  c:/program files (x86)/codesourcery/sourcery g++ lite/bin/../lib/gcc/arm-none-eabi/4.2.3/../../../../arm-none-eabi/lib\libc.a(lib_a-fwalk.o)
                                                  c:/program files (x86)/codesourcery/sourcery g++ lite/bin/../lib/gcc/arm-none-eabi/4.2.3/../../../../arm-none-eabi/lib\libc.a(lib_a-fopen.o)
                                                  c:/program files (x86)/codesourcery/sourcery g++ lite/bin/../lib/gcc/arm-none-eabi/4.2.3/../../../../arm-none-eabi/lib\libc.a(lib_a-fclose.o)
__sfp_lock_release                                c:/program files (x86)/codesourcery/sourcery g++ lite/bin/../lib/gcc/arm-none-eabi/4.2.3/../../../../arm-none-eabi/lib\libc.a(lib_a-findfp.o)
                                                  c:/program files (x86)/codesourcery/sourcery g++ lite/bin/../lib/gcc/arm-none-eabi/4.2.3/../../../../arm-none-eabi/lib\libc.a(lib_a-fwalk.o)
                                                  c:/program files (x86)/codesourcery/sourcery g++ lite/bin/../lib/gcc/arm-none-eabi/4.2.3/../../../../arm-none-eabi/lib\libc.a(lib_a-fopen.o)
                                                  c:/program files (x86)/codesourcery/sourcery g++ lite/bin/../lib/gcc/arm-none-eabi/4.2.3/../../../../arm-none-eabi/lib\libc.a(lib_a-fclose.o)
__sfvwrite_r                                      c:/program files (x86)/codesourcery/sourcery g++ lite/bin/../lib/gcc/arm-none-eabi/4.2.3/../../../../arm-none-eabi/lib\libc.a(lib_a-fvwrite.o)
                                                  c:/program files (x86)/codesourcery/sourcery g++ lite/bin/../lib/gcc/arm-none-eabi/4.2.3/../../../../arm-none-eabi/lib\libc.a(lib_a-vfiprintf.o)
__sinit                                           c:/program files (x86)/codesourcery/sourcery g++ lite/bin/../lib/gcc/arm-none-eabi/4.2.3/../../../../arm-none-eabi/lib\libc.a(lib_a-findfp.o)
                                                  c:/program files (x86)/codesourcery/sourcery g++ lite/bin/../lib/gcc/arm-none-eabi/4.2.3/../../../../arm-none-eabi/lib\libc.a(lib_a-getc.o)
                                                  c:/program files (x86)/codesourcery/sourcery g++ lite/bin/../lib/gcc/arm-none-eabi/4.2.3/../../../../arm-none-eabi/lib\libc.a(lib_a-wsetup.o)
                                                  c:/program files (x86)/codesourcery/sourcery g++ lite/bin/../lib/gcc/arm-none-eabi/4.2.3/../../../../arm-none-eabi/lib\libc.a(lib_a-vfiprintf.o)
                                                  c:/program files (x86)/codesourcery/sourcery g++ lite/bin/../lib/gcc/arm-none-eabi/4.2.3/../../../../arm-none-eabi/lib\libc.a(lib_a-setvbuf.o)
                                                  c:/program files (x86)/codesourcery/sourcery g++ lite/bin/../lib/gcc/arm-none-eabi/4.2.3/../../../../arm-none-eabi/lib\libc.a(lib_a-refill.o)
                                                  c:/program files (x86)/codesourcery/sourcery g++ lite/bin/../lib/gcc/arm-none-eabi/4.2.3/../../../../arm-none-eabi/lib\libc.a(lib_a-fseek.o)
                                                  c:/program files (x86)/codesourcery/sourcery g++ lite/bin/../lib/gcc/arm-none-eabi/4.2.3/../../../../arm-none-eabi/lib\libc.a(lib_a-fflush.o)
                                                  c:/program files (x86)/codesourcery/sourcery g++ lite/bin/../lib/gcc/arm-none-eabi/4.2.3/../../../../arm-none-eabi/lib\libc.a(lib_a-fclose.o)
__sinit_lock_acquire                              c:/program files (x86)/codesourcery/sourcery g++ lite/bin/../lib/gcc/arm-none-eabi/4.2.3/../../../../arm-none-eabi/lib\libc.a(lib_a-findfp.o)
__sinit_lock_release                              c:/program files (x86)/codesourcery/sourcery g++ lite/bin/../lib/gcc/arm-none-eabi/4.2.3/../../../../arm-none-eabi/lib\libc.a(lib_a-findfp.o)
__smakebuf_r                                      c:/program files (x86)/codesourcery/sourcery g++ lite/bin/../lib/gcc/arm-none-eabi/4.2.3/../../../../arm-none-eabi/lib\libc.a(lib_a-makebuf.o)
                                                  c:/program files (x86)/codesourcery/sourcery g++ lite/bin/../lib/gcc/arm-none-eabi/4.2.3/../../../../arm-none-eabi/lib\libc.a(lib_a-wsetup.o)
                                                  c:/program files (x86)/codesourcery/sourcery g++ lite/bin/../lib/gcc/arm-none-eabi/4.2.3/../../../../arm-none-eabi/lib\libc.a(lib_a-refill.o)
                                                  c:/program files (x86)/codesourcery/sourcery g++ lite/bin/../lib/gcc/arm-none-eabi/4.2.3/../../../../arm-none-eabi/lib\libc.a(lib_a-fseek.o)
__sread                                           c:/program files (x86)/codesourcery/sourcery g++ lite/bin/../lib/gcc/arm-none-eabi/4.2.3/../../../../arm-none-eabi/lib\libc.a(lib_a-stdio.o)
                                                  c:/program files (x86)/codesourcery/sourcery g++ lite/bin/../lib/gcc/arm-none-eabi/4.2.3/../../../../arm-none-eabi/lib\libc.a(lib_a-fopen.o)
                                                  c:/program files (x86)/codesourcery/sourcery g++ lite/bin/../lib/gcc/arm-none-eabi/4.2.3/../../../../arm-none-eabi/lib\libc.a(lib_a-findfp.o)
__srefill_r                                       c:/program files (x86)/codesourcery/sourcery g++ lite/bin/../lib/gcc/arm-none-eabi/4.2.3/../../../../arm-none-eabi/lib\libc.a(lib_a-refill.o)
                                                  c:/program files (x86)/codesourcery/sourcery g++ lite/bin/../lib/gcc/arm-none-eabi/4.2.3/../../../../arm-none-eabi/lib\libc.a(lib_a-rget.o)
                                                  c:/program files (x86)/codesourcery/sourcery g++ lite/bin/../lib/gcc/arm-none-eabi/4.2.3/../../../../arm-none-eabi/lib\libc.a(lib_a-fseek.o)
__srget                                           c:/program files (x86)/codesourcery/sourcery g++ lite/bin/../lib/gcc/arm-none-eabi/4.2.3/../../../../arm-none-eabi/lib\libc.a(lib_a-rget.o)
__srget_r                                         c:/program files (x86)/codesourcery/sourcery g++ lite/bin/../lib/gcc/arm-none-eabi/4.2.3/../../../../arm-none-eabi/lib\libc.a(lib_a-rget.o)
                                                  c:/program files (x86)/codesourcery/sourcery g++ lite/bin/../lib/gcc/arm-none-eabi/4.2.3/../../../../arm-none-eabi/lib\libc.a(lib_a-getc.o)
                                                  lpc2106-cmucam3_buildfiles/main.o
__sseek                                           c:/program files (x86)/codesourcery/sourcery g++ lite/bin/../lib/gcc/arm-none-eabi/4.2.3/../../../../arm-none-eabi/lib\libc.a(lib_a-stdio.o)
                                                  c:/program files (x86)/codesourcery/sourcery g++ lite/bin/../lib/gcc/arm-none-eabi/4.2.3/../../../../arm-none-eabi/lib\libc.a(lib_a-makebuf.o)
                                                  c:/program files (x86)/codesourcery/sourcery g++ lite/bin/../lib/gcc/arm-none-eabi/4.2.3/../../../../arm-none-eabi/lib\libc.a(lib_a-fseek.o)
                                                  c:/program files (x86)/codesourcery/sourcery g++ lite/bin/../lib/gcc/arm-none-eabi/4.2.3/../../../../arm-none-eabi/lib\libc.a(lib_a-fopen.o)
                                                  c:/program files (x86)/codesourcery/sourcery g++ lite/bin/../lib/gcc/arm-none-eabi/4.2.3/../../../../arm-none-eabi/lib\libc.a(lib_a-findfp.o)
__swrite                                          c:/program files (x86)/codesourcery/sourcery g++ lite/bin/../lib/gcc/arm-none-eabi/4.2.3/../../../../arm-none-eabi/lib\libc.a(lib_a-stdio.o)
                                                  c:/program files (x86)/codesourcery/sourcery g++ lite/bin/../lib/gcc/arm-none-eabi/4.2.3/../../../../arm-none-eabi/lib\libc.a(lib_a-fopen.o)
                                                  c:/program files (x86)/codesourcery/sourcery g++ lite/bin/../lib/gcc/arm-none-eabi/4.2.3/../../../../arm-none-eabi/lib\libc.a(lib_a-findfp.o)
__swsetup_r                                       c:/program files (x86)/codesourcery/sourcery g++ lite/bin/../lib/gcc/arm-none-eabi/4.2.3/../../../../arm-none-eabi/lib\libc.a(lib_a-wsetup.o)
                                                  c:/program files (x86)/codesourcery/sourcery g++ lite/bin/../lib/gcc/arm-none-eabi/4.2.3/../../../../arm-none-eabi/lib\libc.a(lib_a-fvwrite.o)
                                                  c:/program files (x86)/codesourcery/sourcery g++ lite/bin/../lib/gcc/arm-none-eabi/4.2.3/../../../../arm-none-eabi/lib\libc.a(lib_a-vfiprintf.o)
__tz_lock                                         c:/program files (x86)/codesourcery/sourcery g++ lite/bin/../lib/gcc/arm-none-eabi/4.2.3/../../../../arm-none-eabi/lib\libc.a(lib_a-tzlock.o)
                                                  c:/program files (x86)/codesourcery/sourcery g++ lite/bin/../lib/gcc/arm-none-eabi/4.2.3/../../../../arm-none-eabi/lib\libc.a(lib_a-mktm_r.o)
__tz_unlock                                       c:/program files (x86)/codesourcery/sourcery g++ lite/bin/../lib/gcc/arm-none-eabi/4.2.3/../../../../arm-none-eabi/lib\libc.a(lib_a-tzlock.o)
                                                  c:/program files (x86)/codesourcery/sourcery g++ lite/bin/../lib/gcc/arm-none-eabi/4.2.3/../../../../arm-none-eabi/lib\libc.a(lib_a-mktm_r.o)
__tzcalc_limits                                   c:/program files (x86)/codesourcery/sourcery g++ lite/bin/../lib/gcc/arm-none-eabi/4.2.3/../../../../arm-none-eabi/lib\libc.a(lib_a-mktm_r.o)
__udivdi3                                         c:/program files (x86)/codesourcery/sourcery g++ lite/bin/../lib/gcc/arm-none-eabi/4.2.3\libgcc.a(_udivdi3.o)
                                                  c:/program files (x86)/codesourcery/sourcery g++ lite/bin/../lib/gcc/arm-none-eabi/4.2.3\libgcc.a(bpabi.o)
__udivsi3                                         c:/program files (x86)/codesourcery/sourcery g++ lite/bin/../lib/gcc/arm-none-eabi/4.2.3\libgcc.a(_udivsi3.o)
_boot                                             ../../hal/lpc2106-cmucam3\libhal-lpc2106-cmucam3.a(startup.o)
_bss                                              ../../hal/lpc2106-cmucam3\libhal-lpc2106-cmucam3.a(startup.o)
_calloc_r                                         c:/program files (x86)/codesourcery/sourcery g++ lite/bin/../lib/gcc/arm-none-eabi/4.2.3/../../../../arm-none-eabi/lib\libc.a(lib_a-callocr.o)
                                                  c:/program files (x86)/codesourcery/sourcery g++ lite/bin/../lib/gcc/arm-none-eabi/4.2.3/../../../../arm-none-eabi/lib\libc.a(lib_a-calloc.o)
_cc3_button_trigger                               ../../hal/lpc2106-cmucam3\libhal-lpc2106-cmucam3.a(interrupt.o)
                                                  ../../hal/lpc2106-cmucam3\libhal-lpc2106-cmucam3.a(mmc_hardware.o)
                                                  ../../hal/lpc2106-cmucam3\libhal-lpc2106-cmucam3.a(cc3.o)
_cc3_camera_reset                                 ../../hal/lpc2106-cmucam3\libhal-lpc2106-cmucam3.a(cc3_hal.o)
                                                  ../../hal/lpc2106-cmucam3\libhal-lpc2106-cmucam3.a(cc3.o)
_cc3_delay_sccb                                   ../../hal/lpc2106-cmucam3\libhal-lpc2106-cmucam3.a(cc3_hal.o)
                                                  ../../hal/lpc2106-cmucam3\libhal-lpc2106-cmucam3.a(cc3.o)
_cc3_delay_us_4                                   ../../hal/lpc2106-cmucam3\libhal-lpc2106-cmucam3.a(cc3_hal.o)
                                                  ../../hal/lpc2106-cmucam3\libhal-lpc2106-cmucam3.a(cc3.o)
_cc3_fifo_reset                                   ../../hal/lpc2106-cmucam3\libhal-lpc2106-cmucam3.a(cc3_hal.o)
                                                  ../../hal/lpc2106-cmucam3\libhal-lpc2106-cmucam3.a(cc3.o)
_cc3_get_driver_for_file_number                   ../../hal/lpc2106-cmucam3\libhal-lpc2106-cmucam3.a(devices.o)
                                                  ../../hal/lpc2106-cmucam3\libhal-lpc2106-cmucam3.a(syscalls.o)
_cc3_get_driver_for_name                          ../../hal/lpc2106-cmucam3\libhal-lpc2106-cmucam3.a(devices.o)
                                                  ../../hal/lpc2106-cmucam3\libhal-lpc2106-cmucam3.a(syscalls.o)
_cc3_get_internal_file_number                     ../../hal/lpc2106-cmucam3\libhal-lpc2106-cmucam3.a(devices.o)
                                                  ../../hal/lpc2106-cmucam3\libhal-lpc2106-cmucam3.a(syscalls.o)
_cc3_make_file_number                             ../../hal/lpc2106-cmucam3\libhal-lpc2106-cmucam3.a(devices.o)
                                                  ../../hal/lpc2106-cmucam3\libhal-lpc2106-cmucam3.a(syscalls.o)
_cc3_mmc_block_read                               ../../hal/lpc2106-cmucam3\libhal-lpc2106-cmucam3.a(mmc_hardware.o)
                                                  ../../hal/lpc2106-cmucam3\libhal-lpc2106-cmucam3.a(mmc_driver.o)
_cc3_mmc_block_write                              ../../hal/lpc2106-cmucam3\libhal-lpc2106-cmucam3.a(mmc_hardware.o)
                                                  ../../hal/lpc2106-cmucam3\libhal-lpc2106-cmucam3.a(mmc_driver.o)
_cc3_mmc_driver                                   ../../hal/lpc2106-cmucam3\libhal-lpc2106-cmucam3.a(mmc_driver.o)
                                                  ../../hal/lpc2106-cmucam3\libhal-lpc2106-cmucam3.a(devices.o)
_cc3_mmc_idle                                     ../../hal/lpc2106-cmucam3\libhal-lpc2106-cmucam3.a(mmc_hardware.o)
                                                  ../../hal/lpc2106-cmucam3\libhal-lpc2106-cmucam3.a(mmc_driver.o)
_cc3_mmc_init                                     ../../hal/lpc2106-cmucam3\libhal-lpc2106-cmucam3.a(mmc_hardware.o)
                                                  ../../hal/lpc2106-cmucam3\libhal-lpc2106-cmucam3.a(mmc_driver.o)
_cc3_pixbuf_write_rewind                          ../../hal/lpc2106-cmucam3\libhal-lpc2106-cmucam3.a(cc3_hal.o)
                                                  ../../hal/lpc2106-cmucam3\libhal-lpc2106-cmucam3.a(cc3.o)
                                                  ../../hal/lpc2106-cmucam3\libhal-lpc2106-cmucam3.a(interrupt.o)
_cc3_servo_enable                                 ../../hal/lpc2106-cmucam3\libhal-lpc2106-cmucam3.a(servo.o)
                                                  ../../hal/lpc2106-cmucam3\libhal-lpc2106-cmucam3.a(gpio.o)
_cc3_servo_int                                    ../../hal/lpc2106-cmucam3\libhal-lpc2106-cmucam3.a(servo.o)
                                                  ../../hal/lpc2106-cmucam3\libhal-lpc2106-cmucam3.a(interrupt.o)
_cc3_servo_map                                    ../../hal/lpc2106-cmucam3\libhal-lpc2106-cmucam3.a(servo.o)
                                                  ../../hal/lpc2106-cmucam3\libhal-lpc2106-cmucam3.a(gpio.o)
_cc3_system_setup                                 ../../hal/lpc2106-cmucam3\libhal-lpc2106-cmucam3.a(cc3_hal.o)
                                                  ../../hal/lpc2106-cmucam3\libhal-lpc2106-cmucam3.a(startup.o)
_cc3_uart0_binmode                                ../../hal/lpc2106-cmucam3\libhal-lpc2106-cmucam3.a(serial.o)
                                                  ../../hal/lpc2106-cmucam3\libhal-lpc2106-cmucam3.a(uart_driver.o)
_cc3_uart0_setup                                  ../../hal/lpc2106-cmucam3\libhal-lpc2106-cmucam3.a(serial.o)
_cc3_uart1_binmode                                ../../hal/lpc2106-cmucam3\libhal-lpc2106-cmucam3.a(serial.o)
                                                  ../../hal/lpc2106-cmucam3\libhal-lpc2106-cmucam3.a(uart_driver.o)
_cc3_uart1_setup                                  ../../hal/lpc2106-cmucam3\libhal-lpc2106-cmucam3.a(serial.o)
_cc3_uart_driver                                  ../../hal/lpc2106-cmucam3\libhal-lpc2106-cmucam3.a(uart_driver.o)
                                                  ../../hal/lpc2106-cmucam3\libhal-lpc2106-cmucam3.a(devices.o)
_cleanup                                          c:/program files (x86)/codesourcery/sourcery g++ lite/bin/../lib/gcc/arm-none-eabi/4.2.3/../../../../arm-none-eabi/lib\libc.a(lib_a-findfp.o)
_cleanup_r                                        c:/program files (x86)/codesourcery/sourcery g++ lite/bin/../lib/gcc/arm-none-eabi/4.2.3/../../../../arm-none-eabi/lib\libc.a(lib_a-findfp.o)
                                                  c:/program files (x86)/codesourcery/sourcery g++ lite/bin/../lib/gcc/arm-none-eabi/4.2.3/../../../../arm-none-eabi/lib\libc.a(lib_a-setvbuf.o)
                                                  c:/program files (x86)/codesourcery/sourcery g++ lite/bin/../lib/gcc/arm-none-eabi/4.2.3/../../../../arm-none-eabi/lib\libc.a(lib_a-makebuf.o)
_close                                            ../../hal/lpc2106-cmucam3\libhal-lpc2106-cmucam3.a(syscalls.o)
                                                  c:/program files (x86)/codesourcery/sourcery g++ lite/bin/../lib/gcc/arm-none-eabi/4.2.3/../../../../arm-none-eabi/lib\libc.a(lib_a-closer.o)
_close_r                                          c:/program files (x86)/codesourcery/sourcery g++ lite/bin/../lib/gcc/arm-none-eabi/4.2.3/../../../../arm-none-eabi/lib\libc.a(lib_a-closer.o)
                                                  c:/program files (x86)/codesourcery/sourcery g++ lite/bin/../lib/gcc/arm-none-eabi/4.2.3/../../../../arm-none-eabi/lib\libc.a(lib_a-stdio.o)
_ctype_                                           c:/program files (x86)/codesourcery/sourcery g++ lite/bin/../lib/gcc/arm-none-eabi/4.2.3/../../../../arm-none-eabi/lib\libc.a(lib_a-ctype_.o)
_data                                             ../../hal/lpc2106-cmucam3\libhal-lpc2106-cmucam3.a(startup.o)
_daylight                                         c:/program files (x86)/codesourcery/sourcery g++ lite/bin/../lib/gcc/arm-none-eabi/4.2.3/../../../../arm-none-eabi/lib\libc.a(lib_a-tzvars.o)
                                                  c:/program files (x86)/codesourcery/sourcery g++ lite/bin/../lib/gcc/arm-none-eabi/4.2.3/../../../../arm-none-eabi/lib\libc.a(lib_a-mktm_r.o)
_edata                                            ../../hal/lpc2106-cmucam3\libhal-lpc2106-cmucam3.a(startup.o)
_end                                              ../../hal/lpc2106-cmucam3\libhal-lpc2106-cmucam3.a(startup.o)
                                                  ../../hal/lpc2106-cmucam3\libhal-lpc2106-cmucam3.a(syscalls.o)
_etext                                            ../../hal/lpc2106-cmucam3\libhal-lpc2106-cmucam3.a(startup.o)
_exit                                             ../../hal/lpc2106-cmucam3\libhal-lpc2106-cmucam3.a(syscalls.o)
                                                  c:/program files (x86)/codesourcery/sourcery g++ lite/bin/../lib/gcc/arm-none-eabi/4.2.3/../../../../arm-none-eabi/lib\libc.a(lib_a-exit.o)
_fclose_r                                         c:/program files (x86)/codesourcery/sourcery g++ lite/bin/../lib/gcc/arm-none-eabi/4.2.3/../../../../arm-none-eabi/lib\libc.a(lib_a-fclose.o)
_fflush_r                                         c:/program files (x86)/codesourcery/sourcery g++ lite/bin/../lib/gcc/arm-none-eabi/4.2.3/../../../../arm-none-eabi/lib\libc.a(lib_a-fflush.o)
                                                  c:/program files (x86)/codesourcery/sourcery g++ lite/bin/../lib/gcc/arm-none-eabi/4.2.3/../../../../arm-none-eabi/lib\libc.a(lib_a-fvwrite.o)
                                                  c:/program files (x86)/codesourcery/sourcery g++ lite/bin/../lib/gcc/arm-none-eabi/4.2.3/../../../../arm-none-eabi/lib\libc.a(lib_a-vfiprintf.o)
                                                  c:/program files (x86)/codesourcery/sourcery g++ lite/bin/../lib/gcc/arm-none-eabi/4.2.3/../../../../arm-none-eabi/lib\libc.a(lib_a-setvbuf.o)
                                                  c:/program files (x86)/codesourcery/sourcery g++ lite/bin/../lib/gcc/arm-none-eabi/4.2.3/../../../../arm-none-eabi/lib\libc.a(lib_a-refill.o)
                                                  c:/program files (x86)/codesourcery/sourcery g++ lite/bin/../lib/gcc/arm-none-eabi/4.2.3/../../../../arm-none-eabi/lib\libc.a(lib_a-fseek.o)
                                                  c:/program files (x86)/codesourcery/sourcery g++ lite/bin/../lib/gcc/arm-none-eabi/4.2.3/../../../../arm-none-eabi/lib\libc.a(lib_a-fclose.o)
_fini                                             c:/program files (x86)/codesourcery/sourcery g++ lite/bin/../lib/gcc/arm-none-eabi/4.2.3/crti.o
                                                  c:/program files (x86)/codesourcery/sourcery g++ lite/bin/../lib/gcc/arm-none-eabi/4.2.3/../../../../arm-none-eabi/lib\libc.a(lib_a-fini.o)
_fiprintf_r                                       c:/program files (x86)/codesourcery/sourcery g++ lite/bin/../lib/gcc/arm-none-eabi/4.2.3/../../../../arm-none-eabi/lib\libc.a(lib_a-fiprintf.o)
_fopen_r                                          c:/program files (x86)/codesourcery/sourcery g++ lite/bin/../lib/gcc/arm-none-eabi/4.2.3/../../../../arm-none-eabi/lib\libc.a(lib_a-fopen.o)
_free_r                                           c:/program files (x86)/codesourcery/sourcery g++ lite/bin/../lib/gcc/arm-none-eabi/4.2.3/../../../../arm-none-eabi/lib\libc.a(lib_a-freer.o)
                                                  c:/program files (x86)/codesourcery/sourcery g++ lite/bin/../lib/gcc/arm-none-eabi/4.2.3/../../../../arm-none-eabi/lib\libc.a(lib_a-reallocr.o)
                                                  c:/program files (x86)/codesourcery/sourcery g++ lite/bin/../lib/gcc/arm-none-eabi/4.2.3/../../../../arm-none-eabi/lib\libc.a(lib_a-fvwrite.o)
                                                  c:/program files (x86)/codesourcery/sourcery g++ lite/bin/../lib/gcc/arm-none-eabi/4.2.3/../../../../arm-none-eabi/lib\libc.a(lib_a-wsetup.o)
                                                  c:/program files (x86)/codesourcery/sourcery g++ lite/bin/../lib/gcc/arm-none-eabi/4.2.3/../../../../arm-none-eabi/lib\libc.a(lib_a-setvbuf.o)
                                                  c:/program files (x86)/codesourcery/sourcery g++ lite/bin/../lib/gcc/arm-none-eabi/4.2.3/../../../../arm-none-eabi/lib\libc.a(lib_a-refill.o)
                                                  c:/program files (x86)/codesourcery/sourcery g++ lite/bin/../lib/gcc/arm-none-eabi/4.2.3/../../../../arm-none-eabi/lib\libc.a(lib_a-reent.o)
                                                  c:/program files (x86)/codesourcery/sourcery g++ lite/bin/../lib/gcc/arm-none-eabi/4.2.3/../../../../arm-none-eabi/lib\libc.a(lib_a-mallocr.o)
                                                  c:/program files (x86)/codesourcery/sourcery g++ lite/bin/../lib/gcc/arm-none-eabi/4.2.3/../../../../arm-none-eabi/lib\libc.a(lib_a-malloc.o)
                                                  c:/program files (x86)/codesourcery/sourcery g++ lite/bin/../lib/gcc/arm-none-eabi/4.2.3/../../../../arm-none-eabi/lib\libc.a(lib_a-fseek.o)
                                                  c:/program files (x86)/codesourcery/sourcery g++ lite/bin/../lib/gcc/arm-none-eabi/4.2.3/../../../../arm-none-eabi/lib\libc.a(lib_a-fclose.o)
_fseek_r                                          c:/program files (x86)/codesourcery/sourcery g++ lite/bin/../lib/gcc/arm-none-eabi/4.2.3/../../../../arm-none-eabi/lib\libc.a(lib_a-fseek.o)
                                                  c:/program files (x86)/codesourcery/sourcery g++ lite/bin/../lib/gcc/arm-none-eabi/4.2.3/../../../../arm-none-eabi/lib\libc.a(lib_a-fopen.o)
_fstat                                            ../../hal/lpc2106-cmucam3\libhal-lpc2106-cmucam3.a(syscalls.o)
                                                  c:/program files (x86)/codesourcery/sourcery g++ lite/bin/../lib/gcc/arm-none-eabi/4.2.3/../../../../arm-none-eabi/lib\libc.a(lib_a-fstatr.o)
_fstat_r                                          c:/program files (x86)/codesourcery/sourcery g++ lite/bin/../lib/gcc/arm-none-eabi/4.2.3/../../../../arm-none-eabi/lib\libc.a(lib_a-fstatr.o)
                                                  c:/program files (x86)/codesourcery/sourcery g++ lite/bin/../lib/gcc/arm-none-eabi/4.2.3/../../../../arm-none-eabi/lib\libc.a(lib_a-makebuf.o)
                                                  c:/program files (x86)/codesourcery/sourcery g++ lite/bin/../lib/gcc/arm-none-eabi/4.2.3/../../../../arm-none-eabi/lib\libc.a(lib_a-fseek.o)
_fwalk                                            c:/program files (x86)/codesourcery/sourcery g++ lite/bin/../lib/gcc/arm-none-eabi/4.2.3/../../../../arm-none-eabi/lib\libc.a(lib_a-fwalk.o)
                                                  c:/program files (x86)/codesourcery/sourcery g++ lite/bin/../lib/gcc/arm-none-eabi/4.2.3/../../../../arm-none-eabi/lib\libc.a(lib_a-refill.o)
                                                  c:/program files (x86)/codesourcery/sourcery g++ lite/bin/../lib/gcc/arm-none-eabi/4.2.3/../../../../arm-none-eabi/lib\libc.a(lib_a-findfp.o)
_fwalk_reent                                      c:/program files (x86)/codesourcery/sourcery g++ lite/bin/../lib/gcc/arm-none-eabi/4.2.3/../../../../arm-none-eabi/lib\libc.a(lib_a-fwalk.o)
                                                  c:/program files (x86)/codesourcery/sourcery g++ lite/bin/../lib/gcc/arm-none-eabi/4.2.3/../../../../arm-none-eabi/lib\libc.a(lib_a-fflush.o)
_getc_r                                           c:/program files (x86)/codesourcery/sourcery g++ lite/bin/../lib/gcc/arm-none-eabi/4.2.3/../../../../arm-none-eabi/lib\libc.a(lib_a-getc.o)
                                                  c:/program files (x86)/codesourcery/sourcery g++ lite/bin/../lib/gcc/arm-none-eabi/4.2.3/../../../../arm-none-eabi/lib\libc.a(lib_a-getchar.o)
_getchar_r                                        c:/program files (x86)/codesourcery/sourcery g++ lite/bin/../lib/gcc/arm-none-eabi/4.2.3/../../../../arm-none-eabi/lib\libc.a(lib_a-getchar.o)
                                                  c:/program files (x86)/codesourcery/sourcery g++ lite/bin/../lib/gcc/arm-none-eabi/4.2.3/../../../../arm-none-eabi/lib\libc.a(lib_a-gets.o)
_getpid                                           ../../hal/lpc2106-cmucam3\libhal-lpc2106-cmucam3.a(syscalls.o)
_gets_r                                           c:/program files (x86)/codesourcery/sourcery g++ lite/bin/../lib/gcc/arm-none-eabi/4.2.3/../../../../arm-none-eabi/lib\libc.a(lib_a-gets.o)
_gettimeofday                                     ../../hal/lpc2106-cmucam3\libhal-lpc2106-cmucam3.a(syscalls.o)
                                                  c:/program files (x86)/codesourcery/sourcery g++ lite/bin/../lib/gcc/arm-none-eabi/4.2.3/../../../../arm-none-eabi/lib\libc.a(lib_a-gettimeofdayr.o)
_gettimeofday_r                                   c:/program files (x86)/codesourcery/sourcery g++ lite/bin/../lib/gcc/arm-none-eabi/4.2.3/../../../../arm-none-eabi/lib\libc.a(lib_a-gettimeofdayr.o)
                                                  c:/program files (x86)/codesourcery/sourcery g++ lite/bin/../lib/gcc/arm-none-eabi/4.2.3/../../../../arm-none-eabi/lib\libc.a(lib_a-sysgettod.o)
_global_impure_ptr                                c:/program files (x86)/codesourcery/sourcery g++ lite/bin/../lib/gcc/arm-none-eabi/4.2.3/../../../../arm-none-eabi/lib\libc.a(lib_a-impure.o)
                                                  c:/program files (x86)/codesourcery/sourcery g++ lite/bin/../lib/gcc/arm-none-eabi/4.2.3/../../../../arm-none-eabi/lib\libc.a(lib_a-__atexit.o)
                                                  c:/program files (x86)/codesourcery/sourcery g++ lite/bin/../lib/gcc/arm-none-eabi/4.2.3/../../../../arm-none-eabi/lib\libc.a(lib_a-__call_atexit.o)
                                                  c:/program files (x86)/codesourcery/sourcery g++ lite/bin/../lib/gcc/arm-none-eabi/4.2.3/../../../../arm-none-eabi/lib\libc.a(lib_a-refill.o)
                                                  c:/program files (x86)/codesourcery/sourcery g++ lite/bin/../lib/gcc/arm-none-eabi/4.2.3/../../../../arm-none-eabi/lib\libc.a(lib_a-findfp.o)
                                                  c:/program files (x86)/codesourcery/sourcery g++ lite/bin/../lib/gcc/arm-none-eabi/4.2.3/../../../../arm-none-eabi/lib\libc.a(lib_a-fflush.o)
                                                  c:/program files (x86)/codesourcery/sourcery g++ lite/bin/../lib/gcc/arm-none-eabi/4.2.3/../../../../arm-none-eabi/lib\libc.a(lib_a-exit.o)
_heap_end                                         ../../hal/lpc2106-cmucam3\libhal-lpc2106-cmucam3.a(syscalls.o)
_impure_ptr                                       c:/program files (x86)/codesourcery/sourcery g++ lite/bin/../lib/gcc/arm-none-eabi/4.2.3/../../../../arm-none-eabi/lib\libc.a(lib_a-impure.o)
                                                  c:/program files (x86)/codesourcery/sourcery g++ lite/bin/../lib/gcc/arm-none-eabi/4.2.3/../../../../arm-none-eabi/lib\libc.a(lib_a-getc.o)
                                                  c:/program files (x86)/codesourcery/sourcery g++ lite/bin/../lib/gcc/arm-none-eabi/4.2.3/../../../../arm-none-eabi/lib\libc.a(lib_a-getchar.o)
                                                  c:/program files (x86)/codesourcery/sourcery g++ lite/bin/../lib/gcc/arm-none-eabi/4.2.3/../../../../arm-none-eabi/lib\libc.a(lib_a-wsetup.o)
                                                  c:/program files (x86)/codesourcery/sourcery g++ lite/bin/../lib/gcc/arm-none-eabi/4.2.3/../../../../arm-none-eabi/lib\libc.a(lib_a-vfiprintf.o)
                                                  c:/program files (x86)/codesourcery/sourcery g++ lite/bin/../lib/gcc/arm-none-eabi/4.2.3/../../../../arm-none-eabi/lib\libc.a(lib_a-sysgettod.o)
                                                  c:/program files (x86)/codesourcery/sourcery g++ lite/bin/../lib/gcc/arm-none-eabi/4.2.3/../../../../arm-none-eabi/lib\libc.a(lib_a-strtol.o)
                                                  c:/program files (x86)/codesourcery/sourcery g++ lite/bin/../lib/gcc/arm-none-eabi/4.2.3/../../../../arm-none-eabi/lib\libc.a(lib_a-strdup.o)
                                                  c:/program files (x86)/codesourcery/sourcery g++ lite/bin/../lib/gcc/arm-none-eabi/4.2.3/../../../../arm-none-eabi/lib\libc.a(lib_a-sniprintf.o)
                                                  c:/program files (x86)/codesourcery/sourcery g++ lite/bin/../lib/gcc/arm-none-eabi/4.2.3/../../../../arm-none-eabi/lib\libc.a(lib_a-siprintf.o)
                                                  c:/program files (x86)/codesourcery/sourcery g++ lite/bin/../lib/gcc/arm-none-eabi/4.2.3/../../../../arm-none-eabi/lib\libc.a(lib_a-setvbuf.o)
                                                  c:/program files (x86)/codesourcery/sourcery g++ lite/bin/../lib/gcc/arm-none-eabi/4.2.3/../../../../arm-none-eabi/lib\libc.a(lib_a-rget.o)
                                                  c:/program files (x86)/codesourcery/sourcery g++ lite/bin/../lib/gcc/arm-none-eabi/4.2.3/../../../../arm-none-eabi/lib\libc.a(lib_a-reent.o)
                                                  c:/program files (x86)/codesourcery/sourcery g++ lite/bin/../lib/gcc/arm-none-eabi/4.2.3/../../../../arm-none-eabi/lib\libc.a(lib_a-malloc.o)
                                                  c:/program files (x86)/codesourcery/sourcery g++ lite/bin/../lib/gcc/arm-none-eabi/4.2.3/../../../../arm-none-eabi/lib\libc.a(lib_a-iprintf.o)
                                                  c:/program files (x86)/codesourcery/sourcery g++ lite/bin/../lib/gcc/arm-none-eabi/4.2.3/../../../../arm-none-eabi/lib\libc.a(lib_a-gets.o)
                                                  c:/program files (x86)/codesourcery/sourcery g++ lite/bin/../lib/gcc/arm-none-eabi/4.2.3/../../../../arm-none-eabi/lib\libc.a(lib_a-fseek.o)
                                                  c:/program files (x86)/codesourcery/sourcery g++ lite/bin/../lib/gcc/arm-none-eabi/4.2.3/../../../../arm-none-eabi/lib\libc.a(lib_a-fopen.o)
                                                  c:/program files (x86)/codesourcery/sourcery g++ lite/bin/../lib/gcc/arm-none-eabi/4.2.3/../../../../arm-none-eabi/lib\libc.a(lib_a-fiprintf.o)
                                                  c:/program files (x86)/codesourcery/sourcery g++ lite/bin/../lib/gcc/arm-none-eabi/4.2.3/../../../../arm-none-eabi/lib\libc.a(lib_a-findfp.o)
                                                  c:/program files (x86)/codesourcery/sourcery g++ lite/bin/../lib/gcc/arm-none-eabi/4.2.3/../../../../arm-none-eabi/lib\libc.a(lib_a-fflush.o)
                                                  c:/program files (x86)/codesourcery/sourcery g++ lite/bin/../lib/gcc/arm-none-eabi/4.2.3/../../../../arm-none-eabi/lib\libc.a(lib_a-fclose.o)
                                                  c:/program files (x86)/codesourcery/sourcery g++ lite/bin/../lib/gcc/arm-none-eabi/4.2.3/../../../../arm-none-eabi/lib\libc.a(lib_a-calloc.o)
                                                  ../../hal/lpc2106-cmucam3\libhal-lpc2106-cmucam3.a(serial.o)
                                                  ../../lib/cc3-ilp\libcc3-ilp_lpc2106-cmucam3.a(cc3_img_writer.o)
                                                  lpc2106-cmucam3_buildfiles/main.o
_init                                             c:/program files (x86)/codesourcery/sourcery g++ lite/bin/../lib/gcc/arm-none-eabi/4.2.3/crti.o
_iprintf_r                                        c:/program files (x86)/codesourcery/sourcery g++ lite/bin/../lib/gcc/arm-none-eabi/4.2.3/../../../../arm-none-eabi/lib\libc.a(lib_a-iprintf.o)
_isatty                                           ../../hal/lpc2106-cmucam3\libhal-lpc2106-cmucam3.a(syscalls.o)
                                                  c:/program files (x86)/codesourcery/sourcery g++ lite/bin/../lib/gcc/arm-none-eabi/4.2.3/../../../../arm-none-eabi/lib\libc.a(lib_a-isattyr.o)
_isatty_r                                         c:/program files (x86)/codesourcery/sourcery g++ lite/bin/../lib/gcc/arm-none-eabi/4.2.3/../../../../arm-none-eabi/lib\libc.a(lib_a-isattyr.o)
                                                  c:/program files (x86)/codesourcery/sourcery g++ lite/bin/../lib/gcc/arm-none-eabi/4.2.3/../../../../arm-none-eabi/lib\libc.a(lib_a-makebuf.o)
_kill                                             ../../hal/lpc2106-cmucam3\libhal-lpc2106-cmucam3.a(syscalls.o)
_link                                             ../../hal/lpc2106-cmucam3\libhal-lpc2106-cmucam3.a(syscalls.o)
_lseek                                            ../../hal/lpc2106-cmucam3\libhal-lpc2106-cmucam3.a(syscalls.o)
                                                  c:/program files (x86)/codesourcery/sourcery g++ lite/bin/../lib/gcc/arm-none-eabi/4.2.3/../../../../arm-none-eabi/lib\libc.a(lib_a-lseekr.o)
_lseek_r                                          c:/program files (x86)/codesourcery/sourcery g++ lite/bin/../lib/gcc/arm-none-eabi/4.2.3/../../../../arm-none-eabi/lib\libc.a(lib_a-lseekr.o)
                                                  c:/program files (x86)/codesourcery/sourcery g++ lite/bin/../lib/gcc/arm-none-eabi/4.2.3/../../../../arm-none-eabi/lib\libc.a(lib_a-stdio.o)
_mainCRTStartup                                   ../../hal/lpc2106-cmucam3\libhal-lpc2106-cmucam3.a(startup.o)
_malloc_r                                         c:/program files (x86)/codesourcery/sourcery g++ lite/bin/../lib/gcc/arm-none-eabi/4.2.3/../../../../arm-none-eabi/lib\libc.a(lib_a-mallocr.o)
                                                  c:/program files (x86)/codesourcery/sourcery g++ lite/bin/../lib/gcc/arm-none-eabi/4.2.3/../../../../arm-none-eabi/lib\libc.a(lib_a-reallocr.o)
                                                  c:/program files (x86)/codesourcery/sourcery g++ lite/bin/../lib/gcc/arm-none-eabi/4.2.3/../../../../arm-none-eabi/lib\libc.a(lib_a-fvwrite.o)
                                                  c:/program files (x86)/codesourcery/sourcery g++ lite/bin/../lib/gcc/arm-none-eabi/4.2.3/../../../../arm-none-eabi/lib\libc.a(lib_a-strdup_r.o)
                                                  c:/program files (x86)/codesourcery/sourcery g++ lite/bin/../lib/gcc/arm-none-eabi/4.2.3/../../../../arm-none-eabi/lib\libc.a(lib_a-malloc.o)
                                                  c:/program files (x86)/codesourcery/sourcery g++ lite/bin/../lib/gcc/arm-none-eabi/4.2.3/../../../../arm-none-eabi/lib\libc.a(lib_a-makebuf.o)
                                                  c:/program files (x86)/codesourcery/sourcery g++ lite/bin/../lib/gcc/arm-none-eabi/4.2.3/../../../../arm-none-eabi/lib\libc.a(lib_a-findfp.o)
                                                  c:/program files (x86)/codesourcery/sourcery g++ lite/bin/../lib/gcc/arm-none-eabi/4.2.3/../../../../arm-none-eabi/lib\libc.a(lib_a-callocr.o)
_malloc_trim_r                                    c:/program files (x86)/codesourcery/sourcery g++ lite/bin/../lib/gcc/arm-none-eabi/4.2.3/../../../../arm-none-eabi/lib\libc.a(lib_a-freer.o)
_mktm_r                                           c:/program files (x86)/codesourcery/sourcery g++ lite/bin/../lib/gcc/arm-none-eabi/4.2.3/../../../../arm-none-eabi/lib\libc.a(lib_a-mktm_r.o)
                                                  c:/program files (x86)/codesourcery/sourcery g++ lite/bin/../lib/gcc/arm-none-eabi/4.2.3/../../../../arm-none-eabi/lib\libc.a(lib_a-lcltime_r.o)
_open                                             ../../hal/lpc2106-cmucam3\libhal-lpc2106-cmucam3.a(syscalls.o)
                                                  c:/program files (x86)/codesourcery/sourcery g++ lite/bin/../lib/gcc/arm-none-eabi/4.2.3/../../../../arm-none-eabi/lib\libc.a(lib_a-openr.o)
_open_r                                           c:/program files (x86)/codesourcery/sourcery g++ lite/bin/../lib/gcc/arm-none-eabi/4.2.3/../../../../arm-none-eabi/lib\libc.a(lib_a-openr.o)
                                                  c:/program files (x86)/codesourcery/sourcery g++ lite/bin/../lib/gcc/arm-none-eabi/4.2.3/../../../../arm-none-eabi/lib\libc.a(lib_a-fopen.o)
_raise                                            ../../hal/lpc2106-cmucam3\libhal-lpc2106-cmucam3.a(syscalls.o)
_read                                             ../../hal/lpc2106-cmucam3\libhal-lpc2106-cmucam3.a(syscalls.o)
                                                  c:/program files (x86)/codesourcery/sourcery g++ lite/bin/../lib/gcc/arm-none-eabi/4.2.3/../../../../arm-none-eabi/lib\libc.a(lib_a-readr.o)
_read_r                                           c:/program files (x86)/codesourcery/sourcery g++ lite/bin/../lib/gcc/arm-none-eabi/4.2.3/../../../../arm-none-eabi/lib\libc.a(lib_a-readr.o)
                                                  c:/program files (x86)/codesourcery/sourcery g++ lite/bin/../lib/gcc/arm-none-eabi/4.2.3/../../../../arm-none-eabi/lib\libc.a(lib_a-stdio.o)
_realloc_r                                        c:/program files (x86)/codesourcery/sourcery g++ lite/bin/../lib/gcc/arm-none-eabi/4.2.3/../../../../arm-none-eabi/lib\libc.a(lib_a-reallocr.o)
                                                  c:/program files (x86)/codesourcery/sourcery g++ lite/bin/../lib/gcc/arm-none-eabi/4.2.3/../../../../arm-none-eabi/lib\libc.a(lib_a-fvwrite.o)
_reclaim_reent                                    c:/program files (x86)/codesourcery/sourcery g++ lite/bin/../lib/gcc/arm-none-eabi/4.2.3/../../../../arm-none-eabi/lib\libc.a(lib_a-reent.o)
_rename                                           ../../hal/lpc2106-cmucam3\libhal-lpc2106-cmucam3.a(syscalls.o)
_sbrk                                             ../../hal/lpc2106-cmucam3\libhal-lpc2106-cmucam3.a(syscalls.o)
                                                  c:/program files (x86)/codesourcery/sourcery g++ lite/bin/../lib/gcc/arm-none-eabi/4.2.3/../../../../arm-none-eabi/lib\libc.a(lib_a-sbrkr.o)
_sbrk_r                                           c:/program files (x86)/codesourcery/sourcery g++ lite/bin/../lib/gcc/arm-none-eabi/4.2.3/../../../../arm-none-eabi/lib\libc.a(lib_a-sbrkr.o)
                                                  c:/program files (x86)/codesourcery/sourcery g++ lite/bin/../lib/gcc/arm-none-eabi/4.2.3/../../../../arm-none-eabi/lib\libc.a(lib_a-mallocr.o)
                                                  c:/program files (x86)/codesourcery/sourcery g++ lite/bin/../lib/gcc/arm-none-eabi/4.2.3/../../../../arm-none-eabi/lib\libc.a(lib_a-freer.o)
_siprintf_r                                       c:/program files (x86)/codesourcery/sourcery g++ lite/bin/../lib/gcc/arm-none-eabi/4.2.3/../../../../arm-none-eabi/lib\libc.a(lib_a-siprintf.o)
_sniprintf_r                                      c:/program files (x86)/codesourcery/sourcery g++ lite/bin/../lib/gcc/arm-none-eabi/4.2.3/../../../../arm-none-eabi/lib\libc.a(lib_a-sniprintf.o)
_stack                                            ../../hal/lpc2106-cmucam3\libhal-lpc2106-cmucam3.a(startup.o)
_start                                            ../../hal/lpc2106-cmucam3\libhal-lpc2106-cmucam3.a(startup.o)
_strdup_r                                         c:/program files (x86)/codesourcery/sourcery g++ lite/bin/../lib/gcc/arm-none-eabi/4.2.3/../../../../arm-none-eabi/lib\libc.a(lib_a-strdup_r.o)
                                                  c:/program files (x86)/codesourcery/sourcery g++ lite/bin/../lib/gcc/arm-none-eabi/4.2.3/../../../../arm-none-eabi/lib\libc.a(lib_a-strdup.o)
_strtol_r                                         c:/program files (x86)/codesourcery/sourcery g++ lite/bin/../lib/gcc/arm-none-eabi/4.2.3/../../../../arm-none-eabi/lib\libc.a(lib_a-strtol.o)
_system                                           ../../hal/lpc2106-cmucam3\libhal-lpc2106-cmucam3.a(syscalls.o)
_times                                            ../../hal/lpc2106-cmucam3\libhal-lpc2106-cmucam3.a(syscalls.o)
_timezone                                         c:/program files (x86)/codesourcery/sourcery g++ lite/bin/../lib/gcc/arm-none-eabi/4.2.3/../../../../arm-none-eabi/lib\libc.a(lib_a-tzvars.o)
_tzname                                           c:/program files (x86)/codesourcery/sourcery g++ lite/bin/../lib/gcc/arm-none-eabi/4.2.3/../../../../arm-none-eabi/lib\libc.a(lib_a-tzvars.o)
_unlink                                           ../../hal/lpc2106-cmucam3\libhal-lpc2106-cmucam3.a(syscalls.o)
_vfiprintf_r                                      c:/program files (x86)/codesourcery/sourcery g++ lite/bin/../lib/gcc/arm-none-eabi/4.2.3/../../../../arm-none-eabi/lib\libc.a(lib_a-vfiprintf.o)
                                                  c:/program files (x86)/codesourcery/sourcery g++ lite/bin/../lib/gcc/arm-none-eabi/4.2.3/../../../../arm-none-eabi/lib\libc.a(lib_a-sniprintf.o)
                                                  c:/program files (x86)/codesourcery/sourcery g++ lite/bin/../lib/gcc/arm-none-eabi/4.2.3/../../../../arm-none-eabi/lib\libc.a(lib_a-siprintf.o)
                                                  c:/program files (x86)/codesourcery/sourcery g++ lite/bin/../lib/gcc/arm-none-eabi/4.2.3/../../../../arm-none-eabi/lib\libc.a(lib_a-iprintf.o)
                                                  c:/program files (x86)/codesourcery/sourcery g++ lite/bin/../lib/gcc/arm-none-eabi/4.2.3/../../../../arm-none-eabi/lib\libc.a(lib_a-fiprintf.o)
_wrapup_reent                                     c:/program files (x86)/codesourcery/sourcery g++ lite/bin/../lib/gcc/arm-none-eabi/4.2.3/../../../../arm-none-eabi/lib\libc.a(lib_a-reent.o)
_write                                            ../../hal/lpc2106-cmucam3\libhal-lpc2106-cmucam3.a(syscalls.o)
                                                  c:/program files (x86)/codesourcery/sourcery g++ lite/bin/../lib/gcc/arm-none-eabi/4.2.3/../../../../arm-none-eabi/lib\libc.a(lib_a-writer.o)
_write_r                                          c:/program files (x86)/codesourcery/sourcery g++ lite/bin/../lib/gcc/arm-none-eabi/4.2.3/../../../../arm-none-eabi/lib\libc.a(lib_a-writer.o)
                                                  c:/program files (x86)/codesourcery/sourcery g++ lite/bin/../lib/gcc/arm-none-eabi/4.2.3/../../../../arm-none-eabi/lib\libc.a(lib_a-stdio.o)
abort                                             ../../hal/lpc2106-cmucam3\libhal-lpc2106-cmucam3.a(syscalls.o)
atexit                                            c:/program files (x86)/codesourcery/sourcery g++ lite/bin/../lib/gcc/arm-none-eabi/4.2.3/../../../../arm-none-eabi/lib\libc.a(lib_a-atexit.o)
                                                  c:/program files (x86)/codesourcery/sourcery g++ lite/bin/../lib/gcc/arm-none-eabi/4.2.3/../../../../arm-none-eabi/lib\libc.a(lib_a-__call_atexit.o)
calloc                                            c:/program files (x86)/codesourcery/sourcery g++ lite/bin/../lib/gcc/arm-none-eabi/4.2.3/../../../../arm-none-eabi/lib\libc.a(lib_a-calloc.o)
                                                  ../../hal/lpc2106-cmucam3\libhal-lpc2106-cmucam3.a(mmc_driver.o)
                                                  ../../hal/lpc2106-cmucam3\libhal-lpc2106-cmucam3.a(mmc_hardware.o)
cc3_button_get_and_reset_trigger                  ../../hal/lpc2106-cmucam3\libhal-lpc2106-cmucam3.a(cc3.o)
cc3_button_get_state                              ../../hal/lpc2106-cmucam3\libhal-lpc2106-cmucam3.a(cc3.o)
cc3_camera_init                                   ../../hal/lpc2106-cmucam3\libhal-lpc2106-cmucam3.a(cc3.o)
                                                  lpc2106-cmucam3_buildfiles/main.o
cc3_camera_set_auto_exposure                      ../../hal/lpc2106-cmucam3\libhal-lpc2106-cmucam3.a(cc3.o)
                                                  lpc2106-cmucam3_buildfiles/main.o
cc3_camera_set_auto_white_balance                 ../../hal/lpc2106-cmucam3\libhal-lpc2106-cmucam3.a(cc3.o)
                                                  lpc2106-cmucam3_buildfiles/main.o
cc3_camera_set_brightness                         ../../hal/lpc2106-cmucam3\libhal-lpc2106-cmucam3.a(cc3.o)
cc3_camera_set_colorspace                         ../../hal/lpc2106-cmucam3\libhal-lpc2106-cmucam3.a(cc3.o)
                                                  lpc2106-cmucam3_buildfiles/main.o
cc3_camera_set_contrast                           ../../hal/lpc2106-cmucam3\libhal-lpc2106-cmucam3.a(cc3.o)
cc3_camera_set_framerate_divider                  ../../hal/lpc2106-cmucam3\libhal-lpc2106-cmucam3.a(cc3.o)
cc3_camera_set_power_state                        ../../hal/lpc2106-cmucam3\libhal-lpc2106-cmucam3.a(cc3.o)
cc3_camera_set_raw_register                       ../../hal/lpc2106-cmucam3\libhal-lpc2106-cmucam3.a(cc3.o)
cc3_camera_set_resolution                         ../../hal/lpc2106-cmucam3\libhal-lpc2106-cmucam3.a(cc3.o)
                                                  lpc2106-cmucam3_buildfiles/main.o
cc3_filesystem_init                               ../../hal/lpc2106-cmucam3\libhal-lpc2106-cmucam3.a(devices.o)
                                                  lpc2106-cmucam3_buildfiles/main.o
cc3_g_current_pixel                               ../../hal/lpc2106-cmucam3\libhal-lpc2106-cmucam3.a(cc3.o)
cc3_g_pixbuf_frame                                ../../hal/lpc2106-cmucam3\libhal-lpc2106-cmucam3.a(cc3.o)
                                                  lpc2106-cmucam3_buildfiles/main.o
cc3_get_pixel                                     ../../lib/cc3-ilp\libcc3-ilp_lpc2106-cmucam3.a(cc3_ilp.o)
                                                  ../../lib/cc3-ilp\libcc3-ilp_lpc2106-cmucam3.a(cc3_img_writer.o)
cc3_gpio_get_count                                ../../hal/lpc2106-cmucam3\libhal-lpc2106-cmucam3.a(gpio.o)
cc3_gpio_get_servo_position                       ../../hal/lpc2106-cmucam3\libhal-lpc2106-cmucam3.a(servo.o)
cc3_gpio_get_value                                ../../hal/lpc2106-cmucam3\libhal-lpc2106-cmucam3.a(gpio.o)
cc3_gpio_set_mode                                 ../../hal/lpc2106-cmucam3\libhal-lpc2106-cmucam3.a(gpio.o)
cc3_gpio_set_servo_position                       ../../hal/lpc2106-cmucam3\libhal-lpc2106-cmucam3.a(servo.o)
cc3_gpio_set_value                                ../../hal/lpc2106-cmucam3\libhal-lpc2106-cmucam3.a(gpio.o)
cc3_img_write_file_create                         ../../lib/cc3-ilp\libcc3-ilp_lpc2106-cmucam3.a(cc3_img_writer.o)
cc3_led_set_state                                 ../../hal/lpc2106-cmucam3\libhal-lpc2106-cmucam3.a(cc3.o)
                                                  lpc2106-cmucam3_buildfiles/main.o
cc3_load_img_rows                                 ../../lib/cc3-ilp\libcc3-ilp_lpc2106-cmucam3.a(cc3_ilp.o)
cc3_malloc_rows                                   ../../hal/lpc2106-cmucam3\libhal-lpc2106-cmucam3.a(cc3.o)
                                                  lpc2106-cmucam3_buildfiles/main.o
cc3_pgm_img_write                                 ../../lib/cc3-ilp\libcc3-ilp_lpc2106-cmucam3.a(cc3_img_writer.o)
cc3_pixbuf_frame_reset                            ../../hal/lpc2106-cmucam3\libhal-lpc2106-cmucam3.a(cc3.o)
cc3_pixbuf_frame_set_coi                          ../../hal/lpc2106-cmucam3\libhal-lpc2106-cmucam3.a(cc3.o)
cc3_pixbuf_frame_set_roi                          ../../hal/lpc2106-cmucam3\libhal-lpc2106-cmucam3.a(cc3.o)
cc3_pixbuf_frame_set_subsample                    ../../hal/lpc2106-cmucam3\libhal-lpc2106-cmucam3.a(cc3.o)
                                                  lpc2106-cmucam3_buildfiles/main.o
cc3_pixbuf_load                                   ../../hal/lpc2106-cmucam3\libhal-lpc2106-cmucam3.a(cc3.o)
                                                  lpc2106-cmucam3_buildfiles/main.o
cc3_pixbuf_read_rows                              ../../hal/lpc2106-cmucam3\libhal-lpc2106-cmucam3.a(cc3.o)
                                                  lpc2106-cmucam3_buildfiles/main.o
cc3_pixbuf_rewind                                 ../../hal/lpc2106-cmucam3\libhal-lpc2106-cmucam3.a(cc3.o)
cc3_ppm_img_write                                 ../../lib/cc3-ilp\libcc3-ilp_lpc2106-cmucam3.a(cc3_img_writer.o)
                                                  lpc2106-cmucam3_buildfiles/main.o
cc3_rgb2hsv                                       ../../lib/cc3-ilp\libcc3-ilp_lpc2106-cmucam3.a(cc3_hsv.o)
cc3_rgb2hsv_row                                   ../../lib/cc3-ilp\libcc3-ilp_lpc2106-cmucam3.a(cc3_hsv.o)
                                                  lpc2106-cmucam3_buildfiles/main.o
cc3_set_pixel                                     ../../lib/cc3-ilp\libcc3-ilp_lpc2106-cmucam3.a(cc3_ilp.o)
cc3_timer_get_current_ms                          ../../hal/lpc2106-cmucam3\libhal-lpc2106-cmucam3.a(cc3.o)
                                                  lpc2106-cmucam3_buildfiles/main.o
cc3_timer_wait_ms                                 ../../hal/lpc2106-cmucam3\libhal-lpc2106-cmucam3.a(cc3.o)
                                                  ../../hal/lpc2106-cmucam3\libhal-lpc2106-cmucam3.a(interrupt.o)
                                                  lpc2106-cmucam3_buildfiles/main.o
cc3_uart_fopen                                    ../../hal/lpc2106-cmucam3\libhal-lpc2106-cmucam3.a(serial.o)
cc3_uart_get_count                                ../../hal/lpc2106-cmucam3\libhal-lpc2106-cmucam3.a(serial.o)
                                                  ../../hal/lpc2106-cmucam3\libhal-lpc2106-cmucam3.a(uart_driver.o)
cc3_uart_has_data                                 ../../hal/lpc2106-cmucam3\libhal-lpc2106-cmucam3.a(serial.o)
cc3_uart_init                                     ../../hal/lpc2106-cmucam3\libhal-lpc2106-cmucam3.a(serial.o)
                                                  lpc2106-cmucam3_buildfiles/main.o
cleanup_glue                                      c:/program files (x86)/codesourcery/sourcery g++ lite/bin/../lib/gcc/arm-none-eabi/4.2.3/../../../../arm-none-eabi/lib\libc.a(lib_a-reent.o)
data_abort                                        ../../hal/lpc2106-cmucam3\libhal-lpc2106-cmucam3.a(interrupt.o)
                                                  ../../hal/lpc2106-cmucam3\libhal-lpc2106-cmucam3.a(startup.o)
disable_button_interrupt                          ../../hal/lpc2106-cmucam3\libhal-lpc2106-cmucam3.a(interrupt.o)
                                                  ../../hal/lpc2106-cmucam3\libhal-lpc2106-cmucam3.a(mmc_hardware.o)
disable_ext_interrupt                             ../../hal/lpc2106-cmucam3\libhal-lpc2106-cmucam3.a(interrupt.o)
disable_servo_interrupt                           ../../hal/lpc2106-cmucam3\libhal-lpc2106-cmucam3.a(interrupt.o)
                                                  ../../hal/lpc2106-cmucam3\libhal-lpc2106-cmucam3.a(servo.o)
enable_button_interrupt                           ../../hal/lpc2106-cmucam3\libhal-lpc2106-cmucam3.a(interrupt.o)
                                                  ../../hal/lpc2106-cmucam3\libhal-lpc2106-cmucam3.a(mmc_hardware.o)
                                                  ../../hal/lpc2106-cmucam3\libhal-lpc2106-cmucam3.a(cc3_hal.o)
                                                  ../../hal/lpc2106-cmucam3\libhal-lpc2106-cmucam3.a(cc3.o)
enable_ext_interrupt                              ../../hal/lpc2106-cmucam3\libhal-lpc2106-cmucam3.a(interrupt.o)
                                                  ../../hal/lpc2106-cmucam3\libhal-lpc2106-cmucam3.a(cc3.o)
enable_servo_interrupt                            ../../hal/lpc2106-cmucam3\libhal-lpc2106-cmucam3.a(interrupt.o)
                                                  ../../hal/lpc2106-cmucam3\libhal-lpc2106-cmucam3.a(servo.o)
errno                                             c:/program files (x86)/codesourcery/sourcery g++ lite/bin/../lib/gcc/arm-none-eabi/4.2.3/../../../../arm-none-eabi/lib\libc.a(lib_a-readr.o)
                                                  c:/program files (x86)/codesourcery/sourcery g++ lite/bin/../lib/gcc/arm-none-eabi/4.2.3/../../../../arm-none-eabi/lib\libc.a(lib_a-lseekr.o)
                                                  c:/program files (x86)/codesourcery/sourcery g++ lite/bin/../lib/gcc/arm-none-eabi/4.2.3/../../../../arm-none-eabi/lib\libc.a(lib_a-isattyr.o)
                                                  c:/program files (x86)/codesourcery/sourcery g++ lite/bin/../lib/gcc/arm-none-eabi/4.2.3/../../../../arm-none-eabi/lib\libc.a(lib_a-gettimeofdayr.o)
                                                  c:/program files (x86)/codesourcery/sourcery g++ lite/bin/../lib/gcc/arm-none-eabi/4.2.3/../../../../arm-none-eabi/lib\libc.a(lib_a-closer.o)
                                                  c:/program files (x86)/codesourcery/sourcery g++ lite/bin/../lib/gcc/arm-none-eabi/4.2.3/../../../../arm-none-eabi/lib\libc.a(lib_a-writer.o)
                                                  c:/program files (x86)/codesourcery/sourcery g++ lite/bin/../lib/gcc/arm-none-eabi/4.2.3/../../../../arm-none-eabi/lib\libc.a(lib_a-sbrkr.o)
                                                  c:/program files (x86)/codesourcery/sourcery g++ lite/bin/../lib/gcc/arm-none-eabi/4.2.3/../../../../arm-none-eabi/lib\libc.a(lib_a-reent.o)
                                                  c:/program files (x86)/codesourcery/sourcery g++ lite/bin/../lib/gcc/arm-none-eabi/4.2.3/../../../../arm-none-eabi/lib\libc.a(lib_a-openr.o)
                                                  c:/program files (x86)/codesourcery/sourcery g++ lite/bin/../lib/gcc/arm-none-eabi/4.2.3/../../../../arm-none-eabi/lib\libc.a(lib_a-fstatr.o)
                                                  ../../hal/lpc2106-cmucam3\libhal-lpc2106-cmucam3.a(uart_driver.o)
                                                  ../../hal/lpc2106-cmucam3\libhal-lpc2106-cmucam3.a(mmc_driver.o)
                                                  ../../hal/lpc2106-cmucam3\libhal-lpc2106-cmucam3.a(syscalls.o)
exit                                              c:/program files (x86)/codesourcery/sourcery g++ lite/bin/../lib/gcc/arm-none-eabi/4.2.3/../../../../arm-none-eabi/lib\libc.a(lib_a-exit.o)
                                                  ../../hal/lpc2106-cmucam3\libhal-lpc2106-cmucam3.a(interrupt.o)
                                                  lpc2106-cmucam3_buildfiles/main.o
fclose                                            c:/program files (x86)/codesourcery/sourcery g++ lite/bin/../lib/gcc/arm-none-eabi/4.2.3/../../../../arm-none-eabi/lib\libc.a(lib_a-fclose.o)
                                                  c:/program files (x86)/codesourcery/sourcery g++ lite/bin/../lib/gcc/arm-none-eabi/4.2.3/../../../../arm-none-eabi/lib\libc.a(lib_a-findfp.o)
                                                  ../../lib/cc3-ilp\libcc3-ilp_lpc2106-cmucam3.a(cc3_img_writer.o)
fflush                                            c:/program files (x86)/codesourcery/sourcery g++ lite/bin/../lib/gcc/arm-none-eabi/4.2.3/../../../../arm-none-eabi/lib\libc.a(lib_a-fflush.o)
                                                  c:/program files (x86)/codesourcery/sourcery g++ lite/bin/../lib/gcc/arm-none-eabi/4.2.3/../../../../arm-none-eabi/lib\libc.a(lib_a-refill.o)
fiprintf                                          c:/program files (x86)/codesourcery/sourcery g++ lite/bin/../lib/gcc/arm-none-eabi/4.2.3/../../../../arm-none-eabi/lib\libc.a(lib_a-fiprintf.o)
                                                  ../../lib/cc3-ilp\libcc3-ilp_lpc2106-cmucam3.a(cc3_img_writer.o)
fopen                                             c:/program files (x86)/codesourcery/sourcery g++ lite/bin/../lib/gcc/arm-none-eabi/4.2.3/../../../../arm-none-eabi/lib\libc.a(lib_a-fopen.o)
                                                  ../../hal/lpc2106-cmucam3\libhal-lpc2106-cmucam3.a(serial.o)
                                                  ../../lib/cc3-ilp\libcc3-ilp_lpc2106-cmucam3.a(cc3_img_writer.o)
free                                              c:/program files (x86)/codesourcery/sourcery g++ lite/bin/../lib/gcc/arm-none-eabi/4.2.3/../../../../arm-none-eabi/lib\libc.a(lib_a-malloc.o)
                                                  c:/program files (x86)/codesourcery/sourcery g++ lite/bin/../lib/gcc/arm-none-eabi/4.2.3/../../../../arm-none-eabi/lib\libc.a(lib_a-__call_atexit.o)
                                                  ../../hal/lpc2106-cmucam3\libhal-lpc2106-cmucam3.a(mmc_driver.o)
                                                  ../../hal/lpc2106-cmucam3\libhal-lpc2106-cmucam3.a(mmc_hardware.o)
                                                  ../../hal/lpc2106-cmucam3\libhal-lpc2106-cmucam3.a(syscalls.o)
                                                  lpc2106-cmucam3_buildfiles/main.o
fseek                                             c:/program files (x86)/codesourcery/sourcery g++ lite/bin/../lib/gcc/arm-none-eabi/4.2.3/../../../../arm-none-eabi/lib\libc.a(lib_a-fseek.o)
getc                                              c:/program files (x86)/codesourcery/sourcery g++ lite/bin/../lib/gcc/arm-none-eabi/4.2.3/../../../../arm-none-eabi/lib\libc.a(lib_a-getc.o)
getchar                                           c:/program files (x86)/codesourcery/sourcery g++ lite/bin/../lib/gcc/arm-none-eabi/4.2.3/../../../../arm-none-eabi/lib\libc.a(lib_a-getchar.o)
gets                                              c:/program files (x86)/codesourcery/sourcery g++ lite/bin/../lib/gcc/arm-none-eabi/4.2.3/../../../../arm-none-eabi/lib\libc.a(lib_a-gets.o)
                                                  lpc2106-cmucam3_buildfiles/main.o
gettimeofday                                      c:/program files (x86)/codesourcery/sourcery g++ lite/bin/../lib/gcc/arm-none-eabi/4.2.3/../../../../arm-none-eabi/lib\libc.a(lib_a-sysgettod.o)
                                                  ../../hal/lpc2106-cmucam3\libhal-lpc2106-cmucam3.a(rdcf2.o)
img                                               lpc2106-cmucam3_buildfiles/main.o
interrupt                                         ../../hal/lpc2106-cmucam3\libhal-lpc2106-cmucam3.a(interrupt.o)
                                                  ../../hal/lpc2106-cmucam3\libhal-lpc2106-cmucam3.a(startup.o)
iprintf                                           c:/program files (x86)/codesourcery/sourcery g++ lite/bin/../lib/gcc/arm-none-eabi/4.2.3/../../../../arm-none-eabi/lib\libc.a(lib_a-iprintf.o)
                                                  ../../lib/cc3-ilp\libcc3-ilp_lpc2106-cmucam3.a(cc3_img_writer.o)
                                                  lpc2106-cmucam3_buildfiles/main.o
kill                                              ../../hal/lpc2106-cmucam3\libhal-lpc2106-cmucam3.a(syscalls.o)
localtime_r                                       c:/program files (x86)/codesourcery/sourcery g++ lite/bin/../lib/gcc/arm-none-eabi/4.2.3/../../../../arm-none-eabi/lib\libc.a(lib_a-lcltime_r.o)
                                                  ../../hal/lpc2106-cmucam3\libhal-lpc2106-cmucam3.a(rdcf2.o)
longjmp                                           c:/program files (x86)/codesourcery/sourcery g++ lite/bin/../lib/gcc/arm-none-eabi/4.2.3/../../../../arm-none-eabi/lib\libc.a(lib_a-setjmp.o)
                                                  ../../hal/lpc2106-cmucam3\libhal-lpc2106-cmucam3.a(rdcf2.o)
main                                              lpc2106-cmucam3_buildfiles/main.o
                                                  ../../hal/lpc2106-cmucam3\libhal-lpc2106-cmucam3.a(startup.o)
malloc                                            c:/program files (x86)/codesourcery/sourcery g++ lite/bin/../lib/gcc/arm-none-eabi/4.2.3/../../../../arm-none-eabi/lib\libc.a(lib_a-malloc.o)
                                                  c:/program files (x86)/codesourcery/sourcery g++ lite/bin/../lib/gcc/arm-none-eabi/4.2.3/../../../../arm-none-eabi/lib\libc.a(lib_a-__atexit.o)
                                                  c:/program files (x86)/codesourcery/sourcery g++ lite/bin/../lib/gcc/arm-none-eabi/4.2.3/../../../../arm-none-eabi/lib\libc.a(lib_a-setvbuf.o)
                                                  ../../hal/lpc2106-cmucam3\libhal-lpc2106-cmucam3.a(cc3.o)
                                                  lpc2106-cmucam3_buildfiles/main.o
memchr                                            c:/program files (x86)/codesourcery/sourcery g++ lite/bin/../lib/gcc/arm-none-eabi/4.2.3/../../../../arm-none-eabi/lib\libc.a(lib_a-memchr.o)
                                                  c:/program files (x86)/codesourcery/sourcery g++ lite/bin/../lib/gcc/arm-none-eabi/4.2.3/../../../../arm-none-eabi/lib\libc.a(lib_a-fvwrite.o)
                                                  c:/program files (x86)/codesourcery/sourcery g++ lite/bin/../lib/gcc/arm-none-eabi/4.2.3/../../../../arm-none-eabi/lib\libc.a(lib_a-vfiprintf.o)
memcmp                                            c:/program files (x86)/codesourcery/sourcery g++ lite/bin/../lib/gcc/arm-none-eabi/4.2.3/../../../../arm-none-eabi/lib\libc.a(lib_a-memcmp.o)
                                                  ../../hal/lpc2106-cmucam3\libhal-lpc2106-cmucam3.a(rdcf2.o)
memcpy                                            c:/program files (x86)/codesourcery/sourcery g++ lite/bin/../lib/gcc/arm-none-eabi/4.2.3/../../../../arm-none-eabi/lib\libc.a(lib_a-memcpy.o)
                                                  c:/program files (x86)/codesourcery/sourcery g++ lite/bin/../lib/gcc/arm-none-eabi/4.2.3/../../../../arm-none-eabi/lib\libc.a(lib_a-fvwrite.o)
                                                  c:/program files (x86)/codesourcery/sourcery g++ lite/bin/../lib/gcc/arm-none-eabi/4.2.3/../../../../arm-none-eabi/lib\libc.a(lib_a-strdup_r.o)
                                                  ../../hal/lpc2106-cmucam3\libhal-lpc2106-cmucam3.a(rdcf2.o)
memmove                                           c:/program files (x86)/codesourcery/sourcery g++ lite/bin/../lib/gcc/arm-none-eabi/4.2.3/../../../../arm-none-eabi/lib\libc.a(lib_a-memmove.o)
                                                  c:/program files (x86)/codesourcery/sourcery g++ lite/bin/../lib/gcc/arm-none-eabi/4.2.3/../../../../arm-none-eabi/lib\libc.a(lib_a-reallocr.o)
                                                  c:/program files (x86)/codesourcery/sourcery g++ lite/bin/../lib/gcc/arm-none-eabi/4.2.3/../../../../arm-none-eabi/lib\libc.a(lib_a-fvwrite.o)
memset                                            c:/program files (x86)/codesourcery/sourcery g++ lite/bin/../lib/gcc/arm-none-eabi/4.2.3/../../../../arm-none-eabi/lib\libc.a(lib_a-memset.o)
                                                  c:/program files (x86)/codesourcery/sourcery g++ lite/bin/../lib/gcc/arm-none-eabi/4.2.3/../../../../arm-none-eabi/lib\libc.a(lib_a-findfp.o)
                                                  c:/program files (x86)/codesourcery/sourcery g++ lite/bin/../lib/gcc/arm-none-eabi/4.2.3/../../../../arm-none-eabi/lib\libc.a(lib_a-callocr.o)
                                                  ../../hal/lpc2106-cmucam3\libhal-lpc2106-cmucam3.a(rdcf2.o)
prefetch_abort                                    ../../hal/lpc2106-cmucam3\libhal-lpc2106-cmucam3.a(interrupt.o)
                                                  ../../hal/lpc2106-cmucam3\libhal-lpc2106-cmucam3.a(startup.o)
rdcf_close                                        ../../hal/lpc2106-cmucam3\libhal-lpc2106-cmucam3.a(rdcf2.o)
                                                  ../../hal/lpc2106-cmucam3\libhal-lpc2106-cmucam3.a(mmc_driver.o)
rdcf_delete                                       ../../hal/lpc2106-cmucam3\libhal-lpc2106-cmucam3.a(rdcf2.o)
                                                  ../../hal/lpc2106-cmucam3\libhal-lpc2106-cmucam3.a(mmc_driver.o)
rdcf_flush_directory                              ../../hal/lpc2106-cmucam3\libhal-lpc2106-cmucam3.a(rdcf2.o)
rdcf_open                                         ../../hal/lpc2106-cmucam3\libhal-lpc2106-cmucam3.a(rdcf2.o)
                                                  ../../hal/lpc2106-cmucam3\libhal-lpc2106-cmucam3.a(mmc_driver.o)
rdcf_read                                         ../../hal/lpc2106-cmucam3\libhal-lpc2106-cmucam3.a(rdcf2.o)
                                                  ../../hal/lpc2106-cmucam3\libhal-lpc2106-cmucam3.a(mmc_driver.o)
rdcf_rename                                       ../../hal/lpc2106-cmucam3\libhal-lpc2106-cmucam3.a(rdcf2.o)
                                                  ../../hal/lpc2106-cmucam3\libhal-lpc2106-cmucam3.a(mmc_driver.o)
rdcf_seek                                         ../../hal/lpc2106-cmucam3\libhal-lpc2106-cmucam3.a(rdcf2.o)
                                                  ../../hal/lpc2106-cmucam3\libhal-lpc2106-cmucam3.a(mmc_driver.o)
rdcf_write                                        ../../hal/lpc2106-cmucam3\libhal-lpc2106-cmucam3.a(rdcf2.o)
                                                  ../../hal/lpc2106-cmucam3\libhal-lpc2106-cmucam3.a(mmc_driver.o)
row                                               lpc2106-cmucam3_buildfiles/main.o
setbuf                                            c:/program files (x86)/codesourcery/sourcery g++ lite/bin/../lib/gcc/arm-none-eabi/4.2.3/../../../../arm-none-eabi/lib\libc.a(lib_a-setbuf.o)
                                                  ../../hal/lpc2106-cmucam3\libhal-lpc2106-cmucam3.a(serial.o)
setjmp                                            c:/program files (x86)/codesourcery/sourcery g++ lite/bin/../lib/gcc/arm-none-eabi/4.2.3/../../../../arm-none-eabi/lib\libc.a(lib_a-setjmp.o)
                                                  ../../hal/lpc2106-cmucam3\libhal-lpc2106-cmucam3.a(rdcf2.o)
setvbuf                                           c:/program files (x86)/codesourcery/sourcery g++ lite/bin/../lib/gcc/arm-none-eabi/4.2.3/../../../../arm-none-eabi/lib\libc.a(lib_a-setvbuf.o)
                                                  c:/program files (x86)/codesourcery/sourcery g++ lite/bin/../lib/gcc/arm-none-eabi/4.2.3/../../../../arm-none-eabi/lib\libc.a(lib_a-setbuf.o)
                                                  lpc2106-cmucam3_buildfiles/main.o
siprintf                                          c:/program files (x86)/codesourcery/sourcery g++ lite/bin/../lib/gcc/arm-none-eabi/4.2.3/../../../../arm-none-eabi/lib\libc.a(lib_a-siprintf.o)
                                                  ../../lib/cc3-ilp\libcc3-ilp_lpc2106-cmucam3.a(cc3_img_writer.o)
                                                  lpc2106-cmucam3_buildfiles/main.o
sniprintf                                         c:/program files (x86)/codesourcery/sourcery g++ lite/bin/../lib/gcc/arm-none-eabi/4.2.3/../../../../arm-none-eabi/lib\libc.a(lib_a-sniprintf.o)
                                                  ../../hal/lpc2106-cmucam3\libhal-lpc2106-cmucam3.a(serial.o)
start                                             ../../hal/lpc2106-cmucam3\libhal-lpc2106-cmucam3.a(startup.o)
strdup                                            c:/program files (x86)/codesourcery/sourcery g++ lite/bin/../lib/gcc/arm-none-eabi/4.2.3/../../../../arm-none-eabi/lib\libc.a(lib_a-strdup.o)
                                                  ../../hal/lpc2106-cmucam3\libhal-lpc2106-cmucam3.a(syscalls.o)
strlen                                            c:/program files (x86)/codesourcery/sourcery g++ lite/bin/../lib/gcc/arm-none-eabi/4.2.3/../../../../arm-none-eabi/lib\libc.a(lib_a-strlen.o)
                                                  c:/program files (x86)/codesourcery/sourcery g++ lite/bin/../lib/gcc/arm-none-eabi/4.2.3/../../../../arm-none-eabi/lib\libc.a(lib_a-vfiprintf.o)
                                                  c:/program files (x86)/codesourcery/sourcery g++ lite/bin/../lib/gcc/arm-none-eabi/4.2.3/../../../../arm-none-eabi/lib\libc.a(lib_a-strdup_r.o)
strtol                                            c:/program files (x86)/codesourcery/sourcery g++ lite/bin/../lib/gcc/arm-none-eabi/4.2.3/../../../../arm-none-eabi/lib\libc.a(lib_a-strtol.o)
                                                  ../../hal/lpc2106-cmucam3\libhal-lpc2106-cmucam3.a(uart_driver.o)
swi                                               ../../hal/lpc2106-cmucam3\libhal-lpc2106-cmucam3.a(interrupt.o)
                                                  ../../hal/lpc2106-cmucam3\libhal-lpc2106-cmucam3.a(startup.o)
uart0_getc                                        ../../hal/lpc2106-cmucam3\libhal-lpc2106-cmucam3.a(serial.o)
                                                  ../../hal/lpc2106-cmucam3\libhal-lpc2106-cmucam3.a(uart_driver.o)
uart0_getc_nb                                     ../../hal/lpc2106-cmucam3\libhal-lpc2106-cmucam3.a(serial.o)
uart0_putc                                        ../../hal/lpc2106-cmucam3\libhal-lpc2106-cmucam3.a(serial.o)
                                                  ../../hal/lpc2106-cmucam3\libhal-lpc2106-cmucam3.a(uart_driver.o)
uart0_write                                       ../../hal/lpc2106-cmucam3\libhal-lpc2106-cmucam3.a(serial.o)
                                                  ../../hal/lpc2106-cmucam3\libhal-lpc2106-cmucam3.a(interrupt.o)
uart0_write_hex                                   ../../hal/lpc2106-cmucam3\libhal-lpc2106-cmucam3.a(serial.o)
                                                  ../../hal/lpc2106-cmucam3\libhal-lpc2106-cmucam3.a(interrupt.o)
uart1_getc                                        ../../hal/lpc2106-cmucam3\libhal-lpc2106-cmucam3.a(serial.o)
                                                  ../../hal/lpc2106-cmucam3\libhal-lpc2106-cmucam3.a(uart_driver.o)
uart1_getc_nb                                     ../../hal/lpc2106-cmucam3\libhal-lpc2106-cmucam3.a(serial.o)
uart1_putc                                        ../../hal/lpc2106-cmucam3\libhal-lpc2106-cmucam3.a(serial.o)
                                                  ../../hal/lpc2106-cmucam3\libhal-lpc2106-cmucam3.a(uart_driver.o)
undefined                                         ../../hal/lpc2106-cmucam3\libhal-lpc2106-cmucam3.a(interrupt.o)
                                                  ../../hal/lpc2106-cmucam3\libhal-lpc2106-cmucam3.a(startup.o)
vfiprintf                                         c:/program files (x86)/codesourcery/sourcery g++ lite/bin/../lib/gcc/arm-none-eabi/4.2.3/../../../../arm-none-eabi/lib\libc.a(lib_a-vfiprintf.o)
